
ape_single_conv3_sdp4_revise.riscv：      elf64-littleriscv


Disassembly of section .config_addr:

0000000080051000 <ali1_data.1513>:
    80051000:	faf8                	sd	a4,240(a3)
    80051002:	04e9                	addi	s1,s1,26
    80051004:	2bdd                	addiw	s7,s7,23
    80051006:	dcfde627          	0xdcfde627
    8005100a:	2816                	fld	fa6,320(sp)
    8005100c:	19e2                	slli	s3,s3,0x38
    8005100e:	3102                	fld	ft2,32(sp)
    80051010:	f412                	sd	tp,40(sp)
    80051012:	13f40b1b          	addiw	s6,s0,319
    80051016:	f505                	bnez	a0,80050f3e <__heap_end+0x2cf3e>
    80051018:	ecee0fe3          	beq	t3,a4,80050ef6 <__heap_end+0x2cef6>
    8005101c:	0cfdf613          	andi	a2,s11,207
    80051020:	f112                	sd	tp,160(sp)
    80051022:	17e5                	addi	a5,a5,-7
    80051024:	0436                	slli	s0,s0,0xd
    80051026:	ff1e1223          	sh	a7,-28(t3)
    8005102a:	2919                	addiw	s2,s2,6
    8005102c:	1122f81b          	0x1122f81b
    80051030:	ebf8                	sd	a4,208(a5)
    80051032:	ebf5                	bnez	a5,80051126 <ali1_data.1513+0x126>
    80051034:	12f6                	slli	t0,t0,0x3d
    80051036:	1df400e7          	jalr	479(s0)
    8005103a:	0504                	addi	s1,sp,640
    8005103c:	f2ff                	0xf2ff
    8005103e:	f4f0                	sd	a2,232(s1)
    80051040:	eae5                	bnez	a3,80051130 <ali1_data.1513+0x130>
    80051042:	01f8                	addi	a4,sp,204
    80051044:	20f1                	addiw	ra,ra,28
    80051046:	d81f 05df 1af0      	0x1af005dfd81f
    8005104c:	31c1                	addiw	gp,gp,-16
    8005104e:	1129                	addi	sp,sp,-22
    80051050:	e5e0                	sd	s0,200(a1)
    80051052:	0f0c                	addi	a1,sp,912
    80051054:	dd2313f3          	csrrw	t2,0xdd2,t1
    80051058:	f006e3f7          	0xf006e3f7
    8005105c:	060d                	addi	a2,a2,3
    8005105e:	fbe9                	bnez	a5,80051030 <ali1_data.1513+0x30>
    80051060:	d916                	sw	t0,176(sp)
    80051062:	f715                	bnez	a4,80050f8e <__heap_end+0x2cf8e>
    80051064:	ea0a                	sd	sp,272(sp)
    80051066:	ec3a                	sd	a4,24(sp)
    80051068:	0720                	addi	s0,sp,904
    8005106a:	27fe27f3          	csrrs	a5,0x27f,t3
    8005106e:	f635                	bnez	a2,80050fda <__heap_end+0x2cfda>
    80051070:	dcecc813          	xori	a6,s9,-562
    80051074:	0ef9                	addi	t4,t4,30
    80051076:	1ff9                	addi	t6,t6,-2
    80051078:	0c22                	slli	s8,s8,0x8
    8005107a:	faddfc1b          	0xfaddfc1b
    8005107e:	01e2                	slli	gp,gp,0x18
    80051080:	1615                	addi	a2,a2,-27
    80051082:	050115eb          	0x50115eb
    80051086:	ed35                	bnez	a0,80051102 <ali1_data.1513+0x102>
    80051088:	0d18                	addi	a4,sp,656
    8005108a:	d3e9                	beqz	a5,8005104c <ali1_data.1513+0x4c>
    8005108c:	f5e8                	sd	a0,232(a1)
    8005108e:	effc                	sd	a5,216(a5)
    80051090:	e216                	sd	t0,256(sp)
    80051092:	f4e2                	sd	s8,104(sp)
    80051094:	e9dc                	sd	a5,144(a1)
    80051096:	05fc                	addi	a5,sp,716
    80051098:	00f4                	addi	a3,sp,76
    8005109a:	da0e                	sw	gp,52(sp)
    8005109c:	09e7021b          	addiw	tp,a4,158
    800510a0:	0cec                	addi	a1,sp,604
    800510a2:	011a                	slli	sp,sp,0x6
    800510a4:	0334                	addi	a3,sp,392
    800510a6:	0b1f ff21 160c      	0x160cff210b1f
    800510ac:	1a06                	slli	s4,s4,0x21
    800510ae:	17fa                	slli	a5,a5,0x3e
    800510b0:	040d0f0f          	0x40d0f0f
    800510b4:	1704                	addi	s1,sp,928
    800510b6:	e4df 06e2 e006      	0xe00606e2e4df
    800510bc:	22e2                	fld	ft5,24(sp)
    800510be:	1511                	addi	a0,a0,-28
    800510c0:	2810                	fld	fa2,16(s0)
    800510c2:	f2001feb          	0xf2001feb
    800510c6:	1221                	addi	tp,tp,-24
    800510c8:	fff1                	bnez	a5,800510a4 <ali1_data.1513+0xa4>
    800510ca:	e9f9                	bnez	a1,800511a0 <ali1_data.1513+0x1a0>
    800510cc:	05dae70b          	0x5dae70b
    800510d0:	150e                	slli	a0,a0,0x23
    800510d2:	f2f6f1eb          	0xf2f6f1eb
    800510d6:	f3cd                	bnez	a5,80051078 <ali1_data.1513+0x78>
    800510d8:	092004eb          	0x92004eb
    800510dc:	edff                	0xedff
    800510de:	f90c                	sd	a1,48(a0)
    800510e0:	e8ea                	sd	s10,80(sp)
    800510e2:	180c                	addi	a1,sp,48
    800510e4:	0c14dd33          	0xc14dd33
    800510e8:	1bfcfd2b          	0x1bfcfd2b
    800510ec:	22fd                	addiw	t0,t0,31
    800510ee:	fb0108c7          	fmsub.d	fa7,ft2,fa6,ft11,rne
    800510f2:	08ee                	slli	a7,a7,0x1b
    800510f4:	20fe                	fld	ft1,472(sp)
    800510f6:	fb1a                	sd	t1,432(sp)
    800510f8:	ede5                	bnez	a1,800511f0 <ali1_data.1513+0x1f0>
    800510fa:	0609                	addi	a2,a2,2
    800510fc:	11ce                	slli	gp,gp,0x33
    800510fe:	f702                	sd	zero,424(sp)
    80051100:	fe09                	bnez	a2,8005101a <ali1_data.1513+0x1a>
    80051102:	f6ff                	0xf6ff
    80051104:	16ff                	0x16ff
    80051106:	ed20                	sd	s0,88(a0)
    80051108:	f8fc0303          	lb	t1,-113(s8)
    8005110c:	06f5                	addi	a3,a3,29
    8005110e:	37c0                	fld	fs0,168(a5)
    80051110:	dff6                	sw	t4,252(sp)
    80051112:	16e1e0ef          	jal	ra,8006f280 <ali3_data.1513+0x17f80>
    80051116:	1012                	c.slli	zero,0x24
    80051118:	1efd                	addi	t4,t4,-1
    8005111a:	0b0e                	slli	s6,s6,0x3
    8005111c:	091a                	slli	s2,s2,0x6
    8005111e:	f3ef1413          	0xf3ef1413
    80051122:	dbf50b17          	auipc	s6,0xdbf50
    80051126:	f6f4                	sd	a3,232(a3)
    80051128:	03f9                	addi	t2,t2,30
    8005112a:	de16                	sw	t0,60(sp)
    8005112c:	11f4                	addi	a3,sp,236
    8005112e:	f3d40acb          	fnmsub.d	fs5,fs0,ft9,ft10,rne
    80051132:	1406                	slli	s0,s0,0x21
    80051134:	f606                	sd	ra,296(sp)
    80051136:	e629                	bnez	a2,80051180 <ali1_data.1513+0x180>
    80051138:	e716                	sd	t0,392(sp)
    8005113a:	06cc                	addi	a1,sp,836
    8005113c:	feea                	sd	s10,376(sp)
    8005113e:	dedeeed7          	0xdedeeed7
    80051142:	241d                	addiw	s0,s0,7
    80051144:	02f5                	addi	t0,t0,29
    80051146:	dfceeefb          	0xdfceeefb
    8005114a:	42ce1c13          	0x42ce1c13
    8005114e:	1dec                	addi	a1,sp,764
    80051150:	d6fc                	sw	a5,108(a3)
    80051152:	0822                	slli	a6,a6,0x8
    80051154:	f30a                	sd	sp,416(sp)
    80051156:	2111                	addiw	sp,sp,4
    80051158:	0febfd0b          	0xfebfd0b
    8005115c:	1812                	slli	a6,a6,0x24
    8005115e:	12fc                	addi	a5,sp,364
    80051160:	e804                	sd	s1,16(s0)
    80051162:	f604                	sd	s1,40(a2)
    80051164:	fe32                	sd	a2,312(sp)
    80051166:	00d6                	slli	ra,ra,0x15
    80051168:	f9ffeb07          	0xf9ffeb07
    8005116c:	0434                	addi	a3,sp,520
    8005116e:	f402f3d3          	0xf402f3d3
    80051172:	e9e0                	sd	s0,208(a1)
    80051174:	1306                	slli	t1,t1,0x21
    80051176:	1bf4                	addi	a3,sp,508
    80051178:	1d16                	slli	s10,s10,0x25
    8005117a:	19f4                	addi	a3,sp,252
    8005117c:	eddbf507          	0xeddbf507
    80051180:	0d05                	addi	s10,s10,1
    80051182:	f30a                	sd	sp,416(sp)
    80051184:	f0f5                	bnez	s1,80051168 <ali1_data.1513+0x168>
    80051186:	c421                	beqz	s0,800511ce <ali1_data.1513+0x1ce>
    80051188:	fce1                	bnez	s1,80051160 <ali1_data.1513+0x160>
    8005118a:	ea10                	sd	a2,16(a2)
    8005118c:	0e16                	slli	t3,t3,0x5
    8005118e:	f20fe71b          	0xf20fe71b
    80051192:	10fe                	slli	ra,ra,0x3f
    80051194:	071e192b          	0x71e192b
    80051198:	07edf603          	0x7edf603
    8005119c:	e7d8fbef          	jal	s7,7ffe1018 <__stack_size+0x7ffd9018>
    800511a0:	ebf2                	sd	t3,464(sp)
    800511a2:	12f5                	addi	t0,t0,-3
    800511a4:	05cef12f          	0x5cef12f
    800511a8:	ece2                	sd	s8,88(sp)
    800511aa:	0739                	addi	a4,a4,14
    800511ac:	201f2317          	auipc	t1,0x201f2
    800511b0:	e710                	sd	a2,8(a4)
    800511b2:	0fd8                	addi	a4,sp,980
    800511b4:	1220                	addi	s0,sp,296
    800511b6:	fcf1                	bnez	s1,80051192 <ali1_data.1513+0x192>
    800511b8:	f7160af3          	0xf7160af3
    800511bc:	f2dc                	sd	a5,160(a3)
    800511be:	e0fd                	bnez	s1,800512a4 <ali1_data.1513+0x2a4>
    800511c0:	06ec                	addi	a1,sp,844
    800511c2:	c624                	sw	s1,72(a2)
    800511c4:	f82e                	sd	a1,48(sp)
    800511c6:	e0f0                	sd	a2,192(s1)
    800511c8:	1c11                	addi	s8,s8,-28
    800511ca:	d8d8                	sw	a4,52(s1)
    800511cc:	d3fcd317          	auipc	t1,0xd3fcd
    800511d0:	1309                	addi	t1,t1,-30
    800511d2:	3fec                	fld	fa1,248(a5)
    800511d4:	21e9                	addiw	gp,gp,26
    800511d6:	113d                	addi	sp,sp,-17
    800511d8:	04eb06fb          	0x4eb06fb
    800511dc:	0a010a03          	lb	s4,160(sp)
    800511e0:	0018f2fb          	0x18f2fb
    800511e4:	1410                	addi	a2,sp,544
    800511e6:	f9ed                	bnez	a1,800511d8 <ali1_data.1513+0x1d8>
    800511e8:	df02                	sw	zero,188(sp)
    800511ea:	0ae32a0b          	0xae32a0b
    800511ee:	0807100b          	0x807100b
    800511f2:	0af2edf7          	0xaf2edf7
    800511f6:	0e2c                	addi	a1,sp,792
    800511f8:	10de                	slli	ra,ra,0x37
    800511fa:	f301                	bnez	a4,800510fa <ali1_data.1513+0xfa>
    800511fc:	26ff                	0x26ff
    800511fe:	0cff05f3          	0xcff05f3
    80051202:	012d                	addi	sp,sp,11
    80051204:	14fe                	slli	s1,s1,0x3f
    80051206:	33f6                	fld	ft7,376(sp)
    80051208:	0918                	addi	a4,sp,144
    8005120a:	d219                	beqz	a2,80051110 <ali1_data.1513+0x110>
    8005120c:	0e06                	slli	t3,t3,0x1
    8005120e:	dac2                	sw	a6,116(sp)
    80051210:	de1c                	sw	a5,56(a2)
    80051212:	d0e329e7          	0xd0e329e7
    80051216:	0215                	addi	tp,tp,5
    80051218:	0e0e                	slli	t3,t3,0x3
    8005121a:	fff9                	bnez	a5,800511f8 <ali1_data.1513+0x1f8>
    8005121c:	15fffcf3          	csrrci	s9,0x15f,31
    80051220:	e7eaddd3          	0xe7eaddd3
    80051224:	2011                	0x2011
    80051226:	1ed6                	slli	t4,t4,0x35
    80051228:	fae2e707          	0xfae2e707
    8005122c:	0018270b          	0x18270b
    80051230:	dc12                	sw	tp,56(sp)
    80051232:	ea0d                	bnez	a2,80051264 <ali1_data.1513+0x264>
    80051234:	eb50f92f          	0xeb50f92f
    80051238:	fc09deef          	jal	t4,7ffee9f8 <__stack_size+0x7ffe69f8>
    8005123c:	0d06                	slli	s10,s10,0x1
    8005123e:	06ff                	0x6ff
    80051240:	d6de                	sw	s7,108(sp)
    80051242:	24f1                	addiw	s1,s1,28
    80051244:	320a                	fld	ft4,160(sp)
    80051246:	f519                	bnez	a0,80051154 <ali1_data.1513+0x154>
    80051248:	c9f8                	sw	a4,84(a1)
    8005124a:	f709                	bnez	a4,80051154 <ali1_data.1513+0x154>
    8005124c:	2aee                	fld	fs5,216(sp)
    8005124e:	fcf1                	bnez	s1,8005122a <ali1_data.1513+0x22a>
    80051250:	eeee                	sd	s11,344(sp)
    80051252:	0afd                	addi	s5,s5,31
    80051254:	dd15                	beqz	a0,80051190 <ali1_data.1513+0x190>
    80051256:	da3e                	sw	a5,52(sp)
    80051258:	13da                	slli	t2,t2,0x36
    8005125a:	f3ee                	sd	s11,480(sp)
    8005125c:	fce5                	bnez	s1,80051254 <ali1_data.1513+0x254>
    8005125e:	e2f0                	sd	a2,192(a3)
    80051260:	de091fef          	jal	t6,7ffe2840 <__stack_size+0x7ffda840>
    80051264:	dddf e4e2 0a07      	0xa07e4e2dddf
    8005126a:	f7f8                	sd	a4,232(a5)
    8005126c:	fd06                	sd	ra,184(sp)
    8005126e:	e1fa                	sd	t5,192(sp)
    80051270:	0c2fe807          	0xc2fe807
    80051274:	ed2c                	sd	a1,88(a0)
    80051276:	e846                	sd	a7,16(sp)
    80051278:	1709                	addi	a4,a4,-30
    8005127a:	0718                	addi	a4,sp,896
    8005127c:	d7e0                	sw	s0,108(a5)
    8005127e:	dd08                	sw	a0,56(a0)
    80051280:	f60ee9ef          	jal	s3,8003f9e0 <__heap_end+0x1b9e0>
    80051284:	f904                	sd	s1,48(a0)
    80051286:	ee08                	sd	a0,24(a2)
    80051288:	ca05                	beqz	a2,800512b8 <ali1_data.1513+0x2b8>
    8005128a:	ec1e                	sd	t2,24(sp)
    8005128c:	23ee                	fld	ft7,216(sp)
    8005128e:	0c06                	slli	s8,s8,0x1
    80051290:	d614                	sw	a3,40(a2)
    80051292:	01e6                	slli	gp,gp,0x19
    80051294:	1df8                	addi	a4,sp,764
    80051296:	0504                	addi	s1,sp,640
    80051298:	01fa                	slli	gp,gp,0x1e
    8005129a:	17dc                	addi	a5,sp,996
    8005129c:	d904                	sw	s1,48(a0)
    8005129e:	05ff                	0x5ff
    800512a0:	0dfa09e7          	jalr	s3,223(s4)
    800512a4:	04e0                	addi	s0,sp,588
    800512a6:	f404                	sd	s1,40(s0)
    800512a8:	15f8                	addi	a4,sp,748
    800512aa:	22e51a03          	lh	s4,558(a0)
    800512ae:	ec1c28ef          	jal	a7,8001416e <__global_pointer$+0x105ee>
    800512b2:	1f00                	addi	s0,sp,944
    800512b4:	17dd                	addi	a5,a5,-9
    800512b6:	2001                	0x2001
    800512b8:	f01f f603 04ed      	0x4edf603f01f
    800512be:	07ee16f3          	csrrw	a3,0x7e,t3
    800512c2:	cbf8                	sw	a4,84(a5)
    800512c4:	e4f8                	sd	a4,200(s1)
    800512c6:	f212                	sd	tp,288(sp)
    800512c8:	0709                	addi	a4,a4,2
    800512ca:	cb1c                	sw	a5,16(a4)
    800512cc:	060c                	addi	a1,sp,768
    800512ce:	f726                	sd	s1,424(sp)
    800512d0:	db25                	beqz	a4,80051240 <ali1_data.1513+0x240>
    800512d2:	e900                	sd	s0,16(a0)
    800512d4:	fc12                	sd	tp,56(sp)
    800512d6:	ff06                	sd	ra,440(sp)
    800512d8:	1e04                	addi	s1,sp,816
    800512da:	f30d                	bnez	a4,800511fc <ali1_data.1513+0x1fc>
    800512dc:	f5f0                	sd	a2,232(a1)
    800512de:	d6ca                	sw	s2,108(sp)
    800512e0:	e8f2                	sd	t3,80(sp)
    800512e2:	1bfd                	addi	s7,s7,-1
    800512e4:	0fdc                	addi	a5,sp,980
    800512e6:	d82607f3          	0xd82607f3
    800512ea:	e706                	sd	ra,392(sp)
    800512ec:	02de                	slli	t0,t0,0x17
    800512ee:	f10d10cf          	fnmadd.s	ft1,fs10,fa6,ft10,rtz
    800512f2:	0700                	addi	s0,sp,896
    800512f4:	e7f2                	sd	t3,456(sp)
    800512f6:	0be6                	slli	s7,s7,0x19
    800512f8:	f006                	sd	ra,32(sp)
    800512fa:	0fee                	slli	t6,t6,0x1b
    800512fc:	17f6                	slli	a5,a5,0x3d
    800512fe:	2204                	fld	fs1,0(a2)
    80051300:	eb203d03          	ld	s10,-334(zero) # fffffffffffffeb2 <ali3_data.1513+0xffffffff7ffa8bb2>
    80051304:	cf05                	beqz	a4,8005133c <ali1_data.1513+0x33c>
    80051306:	0eda                	slli	t4,t4,0x16
    80051308:	2de5                	addiw	s11,s11,25
    8005130a:	c9e1                	beqz	a1,800513da <ali1_data.1513+0x3da>
    8005130c:	fbe0                	sd	s0,240(a5)
    8005130e:	e4d5                	bnez	s1,800513ba <ali1_data.1513+0x3ba>
    80051310:	fcf5                	bnez	s1,8005130c <ali1_data.1513+0x30c>
    80051312:	f526                	sd	s1,168(sp)
    80051314:	2f13032b          	0x2f13032b
    80051318:	eee2                	sd	s8,344(sp)
    8005131a:	02f1                	addi	t0,t0,28
    8005131c:	f4e715d3          	0xf4e715d3
    80051320:	d6f0                	sw	a2,108(a3)
    80051322:	f5e4f9d7          	0xf5e4f9d7
    80051326:	0ced                	addi	s9,s9,27
    80051328:	0211                	addi	tp,tp,4
    8005132a:	0221                	addi	tp,tp,8
    8005132c:	02f21333          	mulh	t1,tp,a5
    80051330:	dfe803f7          	0xdfe803f7
    80051334:	e440                	sd	s0,136(s0)
    80051336:	1ffe                	slli	t6,t6,0x3f
    80051338:	df0e                	sw	gp,188(sp)
    8005133a:	f021                	bnez	s0,8005127a <ali1_data.1513+0x27a>
    8005133c:	fcfa                	sd	t5,120(sp)
    8005133e:	11f90b07          	0x11f90b07
    80051342:	3eca262b          	0x3eca262b
    80051346:	08170cc7          	fmsub.s	fs9,fa4,ft1,ft1,rne
    8005134a:	19eb010b          	0x19eb010b
    8005134e:	1ada                	slli	s5,s5,0x36
    80051350:	eff6                	sd	t4,472(sp)
    80051352:	0ffc                	addi	a5,sp,988
    80051354:	122a                	slli	tp,tp,0x2a
    80051356:	161c                	addi	a5,sp,800
    80051358:	11e1                	addi	gp,gp,-8
    8005135a:	e9ff                	0xe9ff
    8005135c:	fd00                	sd	s0,56(a0)
    8005135e:	ef1b1d0b          	0xef1b1d0b
    80051362:	e3e8                	sd	a0,192(a5)
    80051364:	17f0                	addi	a2,sp,1004
    80051366:	e6e9                	bnez	a3,80051430 <ali1_data.1513+0x430>
    80051368:	1b29f927          	0x1b29f927
    8005136c:	f441                	bnez	s0,800512f4 <ali1_data.1513+0x2f4>
    8005136e:	02fe                	slli	t0,t0,0x1f
    80051370:	cf26                	sw	s1,156(sp)
    80051372:	f61c                	sd	a5,40(a2)
    80051374:	05d9d12f          	0x5d9d12f
    80051378:	0be8e7e3          	bltu	a7,t5,80051c26 <ali1_data.1513+0xc26>
    8005137c:	e7ed                	bnez	a5,80051466 <ali1_data.1513+0x466>
    8005137e:	00f9fb03          	0xf9fb03
    80051382:	18f9                	addi	a7,a7,-2
    80051384:	37f2                	fld	fa5,312(sp)
    80051386:	1de2                	slli	s11,s11,0x38
    80051388:	c206                	sw	ra,4(sp)
    8005138a:	08ff                	0x8ff
    8005138c:	3a08                	fld	fa0,48(a2)
    8005138e:	10172ff3          	csrrs	t6,0x101,a4
    80051392:	10ea                	slli	ra,ra,0x3a
    80051394:	00f9                	addi	ra,ra,30
    80051396:	e9ff                	0xe9ff
    80051398:	02ee                	slli	t0,t0,0x1b
    8005139a:	0200                	addi	s0,sp,256
    8005139c:	19ea                	slli	s3,s3,0x3a
    8005139e:	2619e7ef          	jal	a5,800efdfe <ali3_data.1513+0x98afe>
    800513a2:	0608                	addi	a0,sp,768
    800513a4:	e0e5                	bnez	s1,80051484 <ali1_data.1513+0x484>
    800513a6:	020e                	slli	tp,tp,0x3
    800513a8:	fef9                	bnez	a3,80051386 <ali1_data.1513+0x386>
    800513aa:	e627f4f3          	csrrci	s1,0xe62,15
    800513ae:	17f9                	addi	a5,a5,-2
    800513b0:	c2da                	sw	s6,68(sp)
    800513b2:	1401                	addi	s0,s0,-32
    800513b4:	ea64                	sd	s1,208(a2)
    800513b6:	39ee                	fld	fs3,248(sp)
    800513b8:	3ff1                	addiw	t6,t6,-4
    800513ba:	ea1c                	sd	a5,16(a2)
    800513bc:	d8ee                	sw	s11,112(sp)
    800513be:	02e8                	addi	a0,sp,332
    800513c0:	d902                	sw	zero,176(sp)
    800513c2:	e6f5                	bnez	a3,800514ae <ali1_data.1513+0x4ae>
    800513c4:	033a                	slli	t1,t1,0xe
    800513c6:	0df9                	addi	s11,s11,30
    800513c8:	efe4120b          	0xefe4120b
    800513cc:	f9f4                	sd	a3,240(a1)
    800513ce:	f9df cd18 fbfa      	0xfbfacd18f9df
    800513d4:	ebf6                	sd	t4,464(sp)
    800513d6:	2810                	fld	fa2,16(s0)
    800513d8:	19ea                	slli	s3,s3,0x3a
    800513da:	15e1                	addi	a1,a1,-8
    800513dc:	e810                	sd	a2,16(s0)
    800513de:	f420                	sd	s0,104(s0)
    800513e0:	0a02                	c.slli64	s4
    800513e2:	f516                	sd	t0,168(sp)
    800513e4:	d616                	sw	t0,44(sp)
    800513e6:	0f04                	addi	s1,sp,912
    800513e8:	17fa0603          	lb	a2,383(s4)
    800513ec:	01c2                	slli	gp,gp,0x10
    800513ee:	dbfa                	sw	t5,244(sp)
    800513f0:	e8d0                	sd	a2,144(s1)
    800513f2:	0f1e                	slli	t5,t5,0x7
    800513f4:	0ef4                	addi	a3,sp,860
    800513f6:	0321                	addi	t1,t1,8
    800513f8:	f316                	sd	t0,416(sp)
    800513fa:	0220                	addi	s0,sp,264
    800513fc:	e50d                	bnez	a0,80051426 <ali1_data.1513+0x426>
    800513fe:	ee09                	bnez	a2,80051418 <ali1_data.1513+0x418>
    80051400:	20de                	fld	ft1,464(sp)
    80051402:	d412d717          	auipc	a4,0xd412d
    80051406:	fec6                	sd	a7,376(sp)
    80051408:	14d2                	slli	s1,s1,0x34
    8005140a:	02dd                	addi	t0,t0,23
    8005140c:	d7070be3          	beq	a4,a6,80051182 <ali1_data.1513+0x182>
    80051410:	ed09f207          	0xed09f207
    80051414:	0805                	addi	a6,a6,1
    80051416:	ffd9                	bnez	a5,800513b4 <ali1_data.1513+0x3b4>
    80051418:	2bee                	fld	fs7,216(sp)
    8005141a:	fadc                	sd	a5,176(a3)
    8005141c:	d6c9                	beqz	a3,800513a6 <ali1_data.1513+0x3a6>
    8005141e:	09c5                	addi	s3,s3,17
    80051420:	f8f9                	bnez	s1,800513f6 <ali1_data.1513+0x3f6>
    80051422:	19fe                	slli	s3,s3,0x3f
    80051424:	18e8000f          	0x18e8000f
    80051428:	f834                	sd	a3,112(s0)
    8005142a:	07df 001f 0903      	0x903001f07df
    80051430:	0bf2                	slli	s7,s7,0x1c
    80051432:	3109                	addiw	sp,sp,-30
    80051434:	f0c6                	sd	a7,96(sp)
    80051436:	1f0e                	slli	t5,t5,0x23
    80051438:	ed09                	bnez	a0,80051452 <ali1_data.1513+0x452>
    8005143a:	e30c                	sd	a1,0(a4)
    8005143c:	05fc                	addi	a5,sp,716
    8005143e:	f2021707          	0xf2021707
    80051442:	ecf2                	sd	t3,88(sp)
    80051444:	fcf8                	sd	a4,248(s1)
    80051446:	0cc0                	addi	s0,sp,596
    80051448:	fff8                	sd	a4,248(a5)
    8005144a:	c7dc                	sw	a5,12(a5)
    8005144c:	f008                	sd	a0,32(s0)
    8005144e:	e5de                	sd	s7,200(sp)
    80051450:	13f5f3f3          	csrrci	t2,0x13f,11
    80051454:	fdf9faeb          	0xfdf9faeb
    80051458:	18e8fadb          	0x18e8fadb
    8005145c:	1ee8                	addi	a0,sp,892
    8005145e:	ebec                	sd	a1,208(a5)
    80051460:	fefc                	sd	a5,248(a3)
    80051462:	f4fe                	sd	t6,104(sp)
    80051464:	000a01f7          	0xa01f7
    80051468:	e009                	bnez	s0,8005146a <ali1_data.1513+0x46a>
    8005146a:	f419                	bnez	s0,80051378 <ali1_data.1513+0x378>
    8005146c:	f010                	sd	a2,32(s0)
    8005146e:	f80eef0f          	0xf80eef0f
    80051472:	3815                	addiw	a6,a6,-27
    80051474:	0ee2                	slli	t4,t4,0x18
    80051476:	0af9                	addi	s5,s5,30
    80051478:	ff0e                	sd	gp,440(sp)
    8005147a:	fa0a                	sd	sp,304(sp)
    8005147c:	02ce                	slli	t0,t0,0x13
    8005147e:	d91d                	beqz	a0,800513b4 <ali1_data.1513+0x3b4>
    80051480:	ef16                	sd	t0,408(sp)
    80051482:	05ed                	addi	a1,a1,27
    80051484:	41d0                	lw	a2,4(a1)
    80051486:	0805                	addi	a6,a6,1
    80051488:	fbed                	bnez	a5,8005147a <ali1_data.1513+0x47a>
    8005148a:	2ee9f2fb          	0x2ee9f2fb
    8005148e:	0cd1                	addi	s9,s9,20
    80051490:	e504                	sd	s1,8(a0)
    80051492:	e9ee                	sd	s11,208(sp)
    80051494:	0001                	nop
    80051496:	1e1d                	addi	t3,t3,-25
    80051498:	050d0103          	lb	sp,80(s10)
    8005149c:	18fb2e07          	flw	ft8,399(s6) # 5bfa12b1 <__stack_size+0x5bf992b1>
    800514a0:	05f308e3          	beq	t1,t6,80051cf0 <ali1_data.1513+0xcf0>
    800514a4:	051d                	addi	a0,a0,7
    800514a6:	0de5                	addi	s11,s11,25
    800514a8:	e2f2                	sd	t3,320(sp)
    800514aa:	112c                	addi	a1,sp,168
    800514ac:	f8f0                	sd	a2,240(s1)
    800514ae:	fcfa                	sd	t5,120(sp)
    800514b0:	f7ff                	0xf7ff
    800514b2:	17fa                	slli	a5,a5,0x3e
    800514b4:	06ba                	slli	a3,a3,0xe
    800514b6:	0f0626e3          	0xf0626e3
    800514ba:	16e307f3          	0x16e307f3
    800514be:	eef5                	bnez	a3,800515ba <ali1_data.1513+0x5ba>
    800514c0:	f6e0                	sd	s0,232(a3)
    800514c2:	e8ff                	0xe8ff
    800514c4:	1408ebe3          	bltu	a7,zero,80051e1a <ali1_data.1513+0xe1a>
    800514c8:	dff9                	beqz	a5,800514a6 <ali1_data.1513+0x4a6>
    800514ca:	2f040fe7          	jalr	t6,752(s0)
    800514ce:	143a                	slli	s0,s0,0x2e
    800514d0:	1a11                	addi	s4,s4,-28
    800514d2:	e11c                	sd	a5,0(a0)
    800514d4:	02f5                	addi	t0,t0,29
    800514d6:	ea09                	bnez	a2,800514e8 <ali1_data.1513+0x4e8>
    800514d8:	16ee                	slli	a3,a3,0x3b
    800514da:	dff8                	sw	a4,124(a5)
    800514dc:	e700                	sd	s0,8(a4)
    800514de:	e9e8e507          	0xe9e8e507
    800514e2:	0bf51523          	sh	t6,170(a0)
    800514e6:	12ea                	slli	t0,t0,0x3a
    800514e8:	0612e8eb          	0x612e8eb
    800514ec:	eaf610fb          	0xeaf610fb
    800514f0:	f120                	sd	s0,96(a0)
    800514f2:	0011                	c.nop	4
    800514f4:	21c9                	addiw	gp,gp,18
    800514f6:	10c9                	addi	ra,ra,-14
    800514f8:	20f9                	addiw	ra,ra,30
    800514fa:	ed01                	bnez	a0,80051512 <ali1_data.1513+0x512>
    800514fc:	120c                	addi	a1,sp,288
    800514fe:	f5f0                	sd	a2,232(a1)
    80051500:	e8ee                	sd	s11,80(sp)
    80051502:	d616f30f          	0xd616f30f
    80051506:	ebe6                	sd	s9,464(sp)
    80051508:	e1d1                	bnez	a1,8005158c <ali1_data.1513+0x58c>
    8005150a:	e2f9                	bnez	a3,800515d0 <ali1_data.1513+0x5d0>
    8005150c:	14e4                	addi	s1,sp,620
    8005150e:	db21                	beqz	a4,8005145e <ali1_data.1513+0x45e>
    80051510:	021a                	slli	tp,tp,0x6
    80051512:	f208                	sd	a0,32(a2)
    80051514:	1cec                	addi	a1,sp,636
    80051516:	17e5                	addi	a5,a5,-7
    80051518:	f6d9                	bnez	a3,800514a6 <ali1_data.1513+0x4a6>
    8005151a:	f114                	sd	a3,32(a0)
    8005151c:	06e1                	addi	a3,a3,24
    8005151e:	090cfbe7          	0x90cfbe7
    80051522:	0eee                	slli	t4,t4,0x1b
    80051524:	01fd                	addi	gp,gp,31
    80051526:	03f5                	addi	t2,t2,29
    80051528:	0801                	addi	a6,a6,0
    8005152a:	ea1d                	bnez	a2,80051560 <ali1_data.1513+0x560>
    8005152c:	022518fb          	0x22518fb
    80051530:	15e2                	slli	a1,a1,0x38
    80051532:	19ee                	slli	s3,s3,0x3b
    80051534:	060c                	addi	a1,sp,768
    80051536:	ec04                	sd	s1,24(s0)
    80051538:	d904                	sw	s1,48(a0)
    8005153a:	050a                	slli	a0,a0,0x2
    8005153c:	e9f309e7          	jalr	s3,-353(t1) # 5401e06b <__stack_size+0x5401606b>
    80051540:	e716                	sd	t0,392(sp)
    80051542:	e902                	sd	zero,144(sp)
    80051544:	e5f0                	sd	a2,200(a1)
    80051546:	2db9                	addiw	s11,s11,14
    80051548:	f2e6                	sd	s9,352(sp)
    8005154a:	eb1d                	bnez	a4,80051580 <ali1_data.1513+0x580>
    8005154c:	0a1c                	addi	a5,sp,272
    8005154e:	eee8                	sd	a0,216(a3)
    80051550:	f5e5                	bnez	a1,80051538 <ali1_data.1513+0x538>
    80051552:	12f8                	addi	a4,sp,364
    80051554:	0d0421f7          	0xd0421f7
    80051558:	11ec                	addi	a1,sp,236
    8005155a:	e319                	bnez	a4,80051560 <ali1_data.1513+0x560>
    8005155c:	07cc                	addi	a1,sp,964
    8005155e:	f20fe7cb          	fnmsub.d	fa5,ft11,ft0,ft10,unknown
    80051562:	0100                	addi	s0,sp,128
    80051564:	e6d623fb          	0xe6d623fb
    80051568:	000fee0f          	0xfee0f
    8005156c:	fcea0907          	0xfcea0907
    80051570:	0609                	addi	a2,a2,2
    80051572:	f2f2                	sd	t3,352(sp)
    80051574:	ecfe                	sd	t6,88(sp)
    80051576:	e834                	sd	a3,80(s0)
    80051578:	edfc                	sd	a5,216(a1)
    8005157a:	f812                	sd	tp,48(sp)
    8005157c:	16ff                	0x16ff
    8005157e:	e414                	sd	a3,8(s0)
    80051580:	fde1fb2b          	0xfde1fb2b
    80051584:	f8f70ed7          	0xf8f70ed7
    80051588:	03fa                	slli	t2,t2,0x1e
    8005158a:	f0de0103          	lb	sp,-243(t3)
    8005158e:	0cf0                	addi	a2,sp,604
    80051590:	02fd                	addi	t0,t0,31
    80051592:	fee0                	sd	s0,248(a3)
    80051594:	101a                	c.slli	zero,0x26
    80051596:	ebe4e9e3          	bltu	s1,t5,80051448 <ali1_data.1513+0x448>
    8005159a:	17080a13          	addi	s4,a6,368
    8005159e:	e40a03fb          	0xe40a03fb
    800515a2:	00020ae3          	beqz	tp,80051db6 <ali1_data.1513+0xdb6>
    800515a6:	fd10f403          	0xfd10f403
    800515aa:	07ff                	0x7ff
    800515ac:	20ea                	fld	ft1,152(sp)
    800515ae:	00e4                	addi	s1,sp,76
    800515b0:	03f2                	slli	t2,t2,0x1c
    800515b2:	1ce0                	addi	s0,sp,636
    800515b4:	1122                	slli	sp,sp,0x28
    800515b6:	e220d643          	fmadd.d	fa2,ft1,ft2,ft8,unknown
    800515ba:	e719                	bnez	a4,800515c8 <ali1_data.1513+0x5c8>
    800515bc:	0aff                	0xaff
    800515be:	0c1d                	addi	s8,s8,7
    800515c0:	fbd9c0ef          	jal	ra,7ffee57c <__stack_size+0x7ffe657c>
    800515c4:	ff23feeb          	0xff23feeb
    800515c8:	19deec0b          	0x19deec0b
    800515cc:	2406                	fld	fs0,64(sp)
    800515ce:	17f0                	addi	a2,sp,1004
    800515d0:	e4e9                	bnez	s1,8005169a <ali1_data.1513+0x69a>
    800515d2:	ede9                	bnez	a1,800516ac <ali1_data.1513+0x6ac>
    800515d4:	1a0b00f7          	0x1a0b00f7
    800515d8:	05e1df07          	0x5e1df07
    800515dc:	f1ea                	sd	s10,224(sp)
    800515de:	fe19                	bnez	a2,800514fc <ali1_data.1513+0x4fc>
    800515e0:	e916eaef          	jal	s5,7ffc0470 <__stack_size+0x7ffb8470>
    800515e4:	fc0e                	sd	gp,56(sp)
    800515e6:	0ed9                	addi	t4,t4,22
    800515e8:	dcec                	sw	a1,124(s1)
    800515ea:	f709                	bnez	a4,800514f4 <ali1_data.1513+0x4f4>
    800515ec:	0bf5                	addi	s7,s7,29
    800515ee:	f1d4                	sd	a3,160(a1)
    800515f0:	ec0c                	sd	a1,24(s0)
    800515f2:	e3ef0feb          	0xe3ef0feb
    800515f6:	ff19                	bnez	a4,80051514 <ali1_data.1513+0x514>
    800515f8:	e81a                	sd	t1,16(sp)
    800515fa:	13f6                	slli	t2,t2,0x3d
    800515fc:	f530                	sd	a2,104(a0)
    800515fe:	fc25                	bnez	s0,80051576 <ali1_data.1513+0x576>
    80051600:	d8e8                	sw	a0,116(s1)
    80051602:	0bf2                	slli	s7,s7,0x1c
    80051604:	0f1117e7          	0xf1117e7
    80051608:	1a1ce9f3          	csrrsi	s3,0x1a1,25
    8005160c:	1f04                	addi	s1,sp,944
    8005160e:	1dffed3b          	0x1dffed3b
    80051612:	1515fc27          	0x1515fc27
    80051616:	1709                	addi	a4,a4,-30
    80051618:	ecff                	0xecff
    8005161a:	eadd                	bnez	a3,800516d0 <ali1_data.1513+0x6d0>
    8005161c:	0fde                	slli	t6,t6,0x17
    8005161e:	0b02                	c.slli64	s6
    80051620:	e7ee                	sd	s11,456(sp)
    80051622:	1801                	addi	a6,a6,-32
    80051624:	fd070d07          	0xfd070d07
    80051628:	09f2                	slli	s3,s3,0x1c
    8005162a:	04fe                	slli	s1,s1,0x1f
    8005162c:	0ff1                	addi	t6,t6,28
    8005162e:	fbd9                	bnez	a5,800515c4 <ali1_data.1513+0x5c4>
    80051630:	fe24                	sd	s1,120(a2)
    80051632:	27f6                	fld	fa5,344(sp)
    80051634:	d7f913db          	0xd7f913db
    80051638:	0322                	slli	t1,t1,0x8
    8005163a:	03ed                	addi	t2,t2,27
    8005163c:	0704                	addi	s1,sp,896
    8005163e:	da0e                	sw	gp,52(sp)
    80051640:	f902                	sd	zero,176(sp)
    80051642:	0fff0c0f          	0xfff0c0f
    80051646:	0b2c                	addi	a1,sp,408
    80051648:	ca01                	beqz	a2,80051658 <ali1_data.1513+0x658>
    8005164a:	f3d5                	bnez	a5,800515ee <ali1_data.1513+0x5ee>
    8005164c:	044a0503          	lb	a0,68(s4)
    80051650:	07dd                	addi	a5,a5,23
    80051652:	0804                	addi	s1,sp,16
    80051654:	0203f1fb          	0x203f1fb
    80051658:	1add                	addi	s5,s5,-9
    8005165a:	ded5                	beqz	a3,80051616 <ali1_data.1513+0x616>
    8005165c:	e41d                	bnez	s0,8005168a <ali1_data.1513+0x68a>
    8005165e:	dbe8                	sw	a0,116(a5)
    80051660:	2bd9                	addiw	s7,s7,22
    80051662:	0e26                	slli	t3,t3,0x9
    80051664:	0c20                	addi	s0,sp,536
    80051666:	00f5daf3          	csrrwi	s5,0xf,11
    8005166a:	16e1                	addi	a3,a3,-8
    8005166c:	ff24                	sd	s1,120(a4)
    8005166e:	e324                	sd	s1,64(a4)
    80051670:	08ec                	addi	a1,sp,92
    80051672:	d2f4                	sw	a3,100(a3)
    80051674:	0215                	addi	tp,tp,5
    80051676:	14f2                	slli	s1,s1,0x3c
    80051678:	ff16                	sd	t0,440(sp)
    8005167a:	f2f4                	sd	a3,224(a3)
    8005167c:	fcf6                	sd	t4,120(sp)
    8005167e:	2219                	addiw	tp,tp,6
    80051680:	28e5                	addiw	a7,a7,25
    80051682:	102d                	c.nop	-21
    80051684:	16260ce3          	beq	a2,sp,80051ffc <ali1_data.1513+0xffc>
    80051688:	ee0a                	sd	sp,280(sp)
    8005168a:	150d                	addi	a0,a0,-29
    8005168c:	3ce9                	addiw	s9,s9,-6
    8005168e:	0b15                	addi	s6,s6,5
    80051690:	fc22                	sd	s0,56(sp)
    80051692:	1a35                	addi	s4,s4,-19
    80051694:	f504                	sd	s1,40(a0)
    80051696:	36fd                	addiw	a3,a3,-1
    80051698:	e90be2e3          	bltu	s7,a6,8005151c <ali1_data.1513+0x51c>
    8005169c:	f4060803          	lb	a6,-192(a2)
    800516a0:	eed2                	sd	s4,344(sp)
    800516a2:	12f2                	slli	t0,t0,0x3c
    800516a4:	03edf52b          	0x3edf52b
    800516a8:	f4de                	sd	s7,104(sp)
    800516aa:	0ffa                	slli	t6,t6,0x1e
    800516ac:	2128                	fld	fa0,64(a0)
    800516ae:	f426                	sd	s1,40(sp)
    800516b0:	06d10b03          	lb	s6,109(sp)
    800516b4:	f1f5                	bnez	a1,80051698 <ali1_data.1513+0x698>
    800516b6:	0bf0                	addi	a2,sp,476
    800516b8:	f3e1e427          	0xf3e1e427
    800516bc:	fdfd                	bnez	a1,800516ba <ali1_data.1513+0x6ba>
    800516be:	19eb041b          	addiw	s0,s6,414
    800516c2:	170c                	addi	a1,sp,928
    800516c4:	f4142fe3          	0xf4142fe3
    800516c8:	f8e5                	bnez	s1,800516b8 <ali1_data.1513+0x6b8>
    800516ca:	1af4                	addi	a3,sp,380
    800516cc:	27de                	fld	fa5,464(sp)
    800516ce:	2a08                	fld	fa0,16(a2)
    800516d0:	f321                	bnez	a4,80051610 <ali1_data.1513+0x610>
    800516d2:	f429                	bnez	s0,8005161c <ali1_data.1513+0x61c>
    800516d4:	d7dd                	beqz	a5,80051682 <ali1_data.1513+0x682>
    800516d6:	21e8                	fld	fa0,192(a1)
    800516d8:	0105                	addi	sp,sp,1
    800516da:	03d2                	slli	t2,t2,0x14
    800516dc:	13fc                	addi	a5,sp,492
    800516de:	101a                	c.slli	zero,0x26
    800516e0:	e4ee                	sd	s11,72(sp)
    800516e2:	e2e9                	bnez	a3,800517a4 <ali1_data.1513+0x7a4>
    800516e4:	ef0ee31b          	0xef0ee31b
    800516e8:	03dc                	addi	a5,sp,452
    800516ea:	e729                	bnez	a4,80051734 <ali1_data.1513+0x734>
    800516ec:	fe0de107          	0xfe0de107
    800516f0:	13ff                	0x13ff
    800516f2:	d71a                	sw	t1,172(sp)
    800516f4:	fbf0                	sd	a2,240(a5)
    800516f6:	fdf9                	bnez	a1,800516d4 <ali1_data.1513+0x6d4>
    800516f8:	18ea                	slli	a7,a7,0x3a
    800516fa:	ddd5                	beqz	a1,800516b6 <ali1_data.1513+0x6b6>
    800516fc:	effe                	sd	t6,472(sp)
    800516fe:	0629                	addi	a2,a2,10
    80051700:	06fa                	slli	a3,a3,0x1e
    80051702:	11e2                	slli	gp,gp,0x38
    80051704:	e00a                	sd	sp,0(sp)
    80051706:	edff                	0xedff
    80051708:	0002                	c.slli64	zero
    8005170a:	c2de                	sw	s7,68(sp)
    8005170c:	ecfe                	sd	t6,88(sp)
    8005170e:	00da                	slli	ra,ra,0x16
    80051710:	002d                	c.nop	11
    80051712:	15f90127          	0x15f90127
    80051716:	250c                	fld	fa1,8(a0)
    80051718:	ef05                	bnez	a4,80051750 <ali1_data.1513+0x750>
    8005171a:	edf1                	bnez	a1,800517f6 <ali1_data.1513+0x7f6>
    8005171c:	e918                	sd	a4,16(a0)
    8005171e:	f331                	bnez	a4,80051662 <ali1_data.1513+0x662>
    80051720:	e9ff                	0xe9ff
    80051722:	1b1e                	slli	s6,s6,0x27
    80051724:	eb14fc0f          	0xeb14fc0f
    80051728:	dc1e                	sw	t2,56(sp)
    8005172a:	ed00                	sd	s0,24(a0)
    8005172c:	dcea                	sw	s10,120(sp)
    8005172e:	2cf1                	addiw	s9,s9,28
    80051730:	e624                	sd	s1,72(a2)
    80051732:	f10825fb          	0xf10825fb
    80051736:	f501                	bnez	a0,8005163e <ali1_data.1513+0x63e>
    80051738:	fc0d0007          	0xfc0d0007
    8005173c:	f206                	sd	ra,288(sp)
    8005173e:	2315                	addiw	t1,t1,5
    80051740:	f906                	sd	ra,176(sp)
    80051742:	fdd2                	sd	s4,248(sp)
    80051744:	ce12                	sw	tp,28(sp)
    80051746:	1825                	addi	a6,a6,-23
    80051748:	dbc305fb          	0xdbc305fb
    8005174c:	0610                	addi	a2,sp,768
    8005174e:	ea16                	sd	t0,272(sp)
    80051750:	0402                	c.slli64	s0
    80051752:	170e                	slli	a4,a4,0x23
    80051754:	0918                	addi	a4,sp,144
    80051756:	fd18                	sd	a4,56(a0)
    80051758:	0afe                	slli	s5,s5,0x1f
    8005175a:	f704                	sd	s1,40(a4)
    8005175c:	0dee                	slli	s11,s11,0x1b
    8005175e:	e6dd                	bnez	a3,8005180c <ali1_data.1513+0x80c>
    80051760:	18d9                	addi	a7,a7,-10
    80051762:	1b0a                	slli	s6,s6,0x22
    80051764:	cbda12f7          	0xcbda12f7
    80051768:	fff2                	sd	t3,504(sp)
    8005176a:	da0e                	sw	gp,52(sp)
    8005176c:	03fe                	slli	t2,t2,0x1f
    8005176e:	3306                	fld	ft6,96(sp)
    80051770:	221f16f3          	csrrw	a3,0x221,t5
    80051774:	0506                	slli	a0,a0,0x1
    80051776:	fb1d                	bnez	a4,800516ac <ali1_data.1513+0x6ac>
    80051778:	05f5                	addi	a1,a1,29
    8005177a:	cfe4                	sw	s1,92(a5)
    8005177c:	e8ec                	sd	a1,208(s1)
    8005177e:	30ec                	fld	fa1,224(s1)
    80051780:	f3ec                	sd	a1,224(a5)
    80051782:	3c061027          	0x3c061027
    80051786:	d825                	beqz	s0,800516f6 <ali1_data.1513+0x6f6>
    80051788:	fdf5e1eb          	0xfdf5e1eb
    8005178c:	27ea                	fld	fa5,152(sp)
    8005178e:	e830                	sd	a2,80(s0)
    80051790:	16e02313          	slti	t1,zero,366
    80051794:	f818                	sd	a4,48(s0)
    80051796:	000c                	0xc
    80051798:	e3ed                	bnez	a5,8005187a <ali1_data.1513+0x87a>
    8005179a:	09f8                	addi	a4,sp,220
    8005179c:	19df 20da 1806      	0x180620da19df
    800517a2:	c7c8                	sw	a0,12(a5)
    800517a4:	0fe2f2f7          	0xfe2f2f7
    800517a8:	0902                	c.slli64	s2
    800517aa:	c9b6                	sw	a3,208(sp)
    800517ac:	0407dcf7          	0x407dcf7
    800517b0:	14f8                	addi	a4,sp,620
    800517b2:	e4f9                	bnez	s1,80051880 <ali1_data.1513+0x880>
    800517b4:	000ee5f7          	0xee5f7
    800517b8:	fff2                	sd	t3,504(sp)
    800517ba:	1de4                	addi	s1,sp,764
    800517bc:	1ef1                	addi	t4,t4,-4
    800517be:	f6fa                	sd	t5,360(sp)
    800517c0:	25210dfb          	0x25210dfb
    800517c4:	47d2                	lw	a5,20(sp)
    800517c6:	e700                	sd	s0,8(a4)
    800517c8:	15f0                	addi	a2,sp,748
    800517ca:	2bf5                	addiw	s7,s7,29
    800517cc:	e9227fdb          	0xe9227fdb
    800517d0:	0b18240f          	0xb18240f
    800517d4:	d704                	sw	s1,40(a4)
    800517d6:	fa0c                	sd	a1,48(a2)
    800517d8:	fbf1                	bnez	a5,800517ac <ali1_data.1513+0x7ac>
    800517da:	e302                	sd	zero,384(sp)
    800517dc:	16dee30b          	0x16dee30b
    800517e0:	cff3e707          	0xcff3e707
    800517e4:	e4dedceb          	0xe4dedceb
    800517e8:	ea14                	sd	a3,16(a2)
    800517ea:	dc10e6cb          	0xdc10e6cb
    800517ee:	f100                	sd	s0,32(a0)
    800517f0:	f40c                	sd	a1,40(s0)
    800517f2:	f9ec                	sd	a1,240(a1)
    800517f4:	e41d                	bnez	s0,80051822 <ali1_data.1513+0x822>
    800517f6:	e210                	sd	a2,0(a2)
    800517f8:	1501                	addi	a0,a0,-32
    800517fa:	ea000ae7          	jalr	s5,-352(zero) # 0 <__boot_hart>
    800517fe:	0006                	c.slli	zero,0x1
    80051800:	e3c81507          	0xe3c81507
    80051804:	30d2                	fld	ft1,304(sp)
    80051806:	fcd0                	sd	a2,184(s1)
    80051808:	faf7020b          	0xfaf7020b
    8005180c:	f6f8                	sd	a4,232(a3)
    8005180e:	0dde                	slli	s11,s11,0x17
    80051810:	15f2                	slli	a1,a1,0x3c
    80051812:	e21f312b          	0xe21f312b
    80051816:	2425                	addiw	s0,s0,9
    80051818:	df0a                	sw	sp,188(sp)
    8005181a:	d2dc                	sw	a5,36(a3)
    8005181c:	dbf0                	sw	a2,116(a5)
    8005181e:	fe19                	bnez	a2,8005173c <ali1_data.1513+0x73c>
    80051820:	11ebcdf3          	0x11ebcdf3
    80051824:	dbe0                	sw	s0,116(a5)
    80051826:	f728                	sd	a0,104(a4)
    80051828:	16f9effb          	0x16f9effb
    8005182c:	f616                	sd	t0,296(sp)
    8005182e:	e5f6                	sd	t4,200(sp)
    80051830:	e915                	bnez	a0,80051864 <ali1_data.1513+0x864>
    80051832:	e2190e0b          	0xe2190e0b
    80051836:	ebf1                	bnez	a5,8005190a <ali1_data.1513+0x90a>
    80051838:	e1f5                	bnez	a1,8005191c <ali1_data.1513+0x91c>
    8005183a:	04e6                	slli	s1,s1,0x19
    8005183c:	1812                	slli	a6,a6,0x24
    8005183e:	f604                	sd	s1,40(a2)
    80051840:	e708                	sd	a0,8(a4)
    80051842:	d6da                	sw	s6,108(sp)
    80051844:	cafd                	beqz	a3,8005193a <ali1_data.1513+0x93a>
    80051846:	d22bf70b          	0xd22bf70b
    8005184a:	f201bcc3          	fmadd.d	fs9,ft3,ft0,ft10,rup
    8005184e:	04f0                	addi	a2,sp,588
    80051850:	18e2                	slli	a7,a7,0x38
    80051852:	da2e0907          	0xda2e0907
    80051856:	08f6                	slli	a7,a7,0x1d
    80051858:	e8e1                	bnez	s1,80051928 <ali1_data.1513+0x928>
    8005185a:	fa18                	sd	a4,48(a2)
    8005185c:	18dd                	addi	a7,a7,-9
    8005185e:	fe09eb0b          	0xfe09eb0b
    80051862:	40092e03          	lw	t3,1024(s2)
    80051866:	0808d703          	lhu	a4,128(a7)
    8005186a:	0c2c                	addi	a1,sp,536
    8005186c:	08ec                	addi	a1,sp,92
    8005186e:	1dde001b          	addiw	zero,t3,477
    80051872:	fd09                	bnez	a0,8005178c <ali1_data.1513+0x78c>
    80051874:	ea1f e323 f0e1      	0xf0e1e323ea1f
    8005187a:	1f10                	addi	a2,sp,944
    8005187c:	1cd1                	addi	s9,s9,-12
    8005187e:	06e2ecf3          	csrrsi	s9,0x6e,5
    80051882:	1105f80b          	0x1105f80b
    80051886:	eb24                	sd	s1,80(a4)
    80051888:	0e18                	addi	a4,sp,784
    8005188a:	d7da                	sw	s6,236(sp)
    8005188c:	f5e0                	sd	s0,232(a1)
    8005188e:	fd41                	bnez	a0,80051826 <ali1_data.1513+0x826>
    80051890:	1c31f2f3          	csrrci	t0,0x1c3,3
    80051894:	2117dd27          	0x2117dd27
    80051898:	18dd                	addi	a7,a7,-9
    8005189a:	22ee                	fld	ft5,216(sp)
    8005189c:	1b06                	slli	s6,s6,0x21
    8005189e:	e515                	bnez	a0,800518ca <ali1_data.1513+0x8ca>
    800518a0:	19010627          	0x19010627
    800518a4:	f1f1                	bnez	a1,80051868 <ali1_data.1513+0x868>
    800518a6:	fcda                	sd	s6,120(sp)
    800518a8:	0411                	addi	s0,s0,4
    800518aa:	fe141803          	lh	a6,-31(s0)
    800518ae:	2908                	fld	fa0,16(a0)
    800518b0:	25e1                	addiw	a1,a1,24
    800518b2:	3430                	fld	fa2,104(s0)
    800518b4:	d541                	beqz	a0,8005183c <ali1_data.1513+0x83c>
    800518b6:	f528                	sd	a0,104(a0)
    800518b8:	eb18                	sd	a4,16(a4)
    800518ba:	12f8                	addi	a4,sp,364
    800518bc:	f7e5                	bnez	a5,800518a4 <ali1_data.1513+0x8a4>
    800518be:	22e2                	fld	ft5,24(sp)
    800518c0:	4028fec7          	fmsub.s	ft9,fa7,ft2,fs0
    800518c4:	3319                	addiw	t1,t1,-26
    800518c6:	eb1c                	sd	a5,16(a4)
    800518c8:	19cd                	addi	s3,s3,-13
    800518ca:	2c18                	fld	fa4,24(s0)
    800518cc:	3e18                	fld	fa4,56(a2)
    800518ce:	ee25                	bnez	a2,80051946 <ali1_data.1513+0x946>
    800518d0:	08f0                	addi	a2,sp,92
    800518d2:	d700                	sw	s0,40(a4)
    800518d4:	14ff                	0x14ff
    800518d6:	f916                	sd	t0,176(sp)
    800518d8:	05ec                	addi	a1,sp,716
    800518da:	0702                	c.slli64	a4
    800518dc:	2108f7ef          	jal	a5,800e0aec <ali3_data.1513+0x897ec>
    800518e0:	0d06                	slli	s10,s10,0x1
    800518e2:	d2ee                	sw	s11,100(sp)
    800518e4:	ebf8                	sd	a4,208(a5)
    800518e6:	153cfa03          	0x153cfa03
    800518ea:	e101                	bnez	a0,800518ea <ali1_data.1513+0x8ea>
    800518ec:	2aeff0d3          	0x2aeff0d3
    800518f0:	1428f91b          	0x1428f91b
    800518f4:	13fcf007          	0x13fcf007
    800518f8:	201f 0300 fb09      	0xfb090300201f
    800518fe:	1cff                	0x1cff
    80051900:	f8e2                	sd	s8,112(sp)
    80051902:	2fd104d7          	0x2fd104d7
    80051906:	e9e6                	sd	s9,208(sp)
    80051908:	35e1e1e7          	0x35e1e1e7
    8005190c:	5dea                	lw	s11,184(sp)
    8005190e:	14f7c3f3          	0x14f7c3f3
    80051912:	e2fc                	sd	a5,192(a3)
    80051914:	170e                	slli	a4,a4,0x23
    80051916:	01df 18ee eb05      	0xeb0518ee01df
    8005191c:	0bffe607          	0xbffe607
    80051920:	190e                	slli	s2,s2,0x23
    80051922:	e7fd                	bnez	a5,80051a10 <ali1_data.1513+0xa10>
    80051924:	05fbe7e7          	0x5fbe7e7
    80051928:	2319                	addiw	t1,t1,6
    8005192a:	341800eb          	0x341800eb
    8005192e:	06e9                	addi	a3,a3,26
    80051930:	f9f2                	sd	t3,240(sp)
    80051932:	f4e9                	bnez	s1,800518fc <ali1_data.1513+0x8fc>
    80051934:	fd12                	sd	tp,184(sp)
    80051936:	f00332cb          	fnmsub.s	ft5,ft6,ft0,ft10,rup
    8005193a:	0408d9bf f51dfeff 	0xf51dfeff0408d9bf
    80051942:	ada6                	fsd	fs1,216(sp)
    80051944:	c6fd                	beqz	a3,80051a32 <ali1_data.1513+0xa32>
    80051946:	f01af1cf          	fnmadd.s	ft3,fs5,ft1,ft10
    8005194a:	c9aa                	sw	a0,208(sp)
    8005194c:	ece6                	sd	s9,88(sp)
    8005194e:	e6dd                	bnez	a3,800519fc <ali1_data.1513+0x9fc>
    80051950:	f5f616c7          	0xf5f616c7
    80051954:	d702                	sw	zero,172(sp)
    80051956:	d1fdfdf3          	csrrci	s11,0xd1f,27
    8005195a:	e3d2                	sd	s4,448(sp)
    8005195c:	daf0                	sw	a2,116(a3)
    8005195e:	0bee                	slli	s7,s7,0x1b
    80051960:	f6fd021b          	addiw	tp,s10,-145
    80051964:	2b08                	fld	fa0,16(a4)
    80051966:	e528                	sd	a0,72(a0)
    80051968:	1bd6                	slli	s7,s7,0x35
    8005196a:	0e0e                	slli	t3,t3,0x3
    8005196c:	3315                	addiw	t1,t1,-27
    8005196e:	ffde                	sd	s7,504(sp)
    80051970:	18fa                	slli	a7,a7,0x3e
    80051972:	c6e8                	sw	a0,76(a3)
    80051974:	dc12                	sw	tp,56(sp)
    80051976:	18d1                	addi	a7,a7,-12
    80051978:	12e5                	addi	t0,t0,-7
    8005197a:	05fa                	slli	a1,a1,0x1e
    8005197c:	0ddd                	addi	s11,s11,23
    8005197e:	0e41                	addi	t3,t3,16
    80051980:	0208                	addi	a0,sp,256
    80051982:	0ccd                	addi	s9,s9,19
    80051984:	23f4                	fld	fa3,192(a5)
    80051986:	ec0d                	bnez	s0,800519c0 <ali1_data.1513+0x9c0>
    80051988:	c6d4d41b          	0xc6d4d41b
    8005198c:	c6f5                	beqz	a3,80051a78 <ali1_data.1513+0xa78>
    8005198e:	0cf1                	addi	s9,s9,28
    80051990:	0ef5                	addi	t4,t4,29
    80051992:	f4e5                	bnez	s1,8005197a <ali1_data.1513+0x97a>
    80051994:	d9ed                	beqz	a1,80051986 <ali1_data.1513+0x986>
    80051996:	0005d7e7          	0x5d7e7
    8005199a:	001b0b1b          	addiw	s6,s6,1
    8005199e:	1600d43b          	0x1600d43b
    800519a2:	0c202feb          	0xc202feb
    800519a6:	ec0d                	bnez	s0,800519e0 <ali1_data.1513+0x9e0>
    800519a8:	e40b28db          	0xe40b28db
    800519ac:	fb21                	bnez	a4,800518fc <ali1_data.1513+0x8fc>
    800519ae:	d402                	sw	zero,40(sp)
    800519b0:	adce100f          	0xadce100f
    800519b4:	ef4e                	sd	s3,408(sp)
    800519b6:	f9d8                	sd	a4,176(a1)
    800519b8:	0cf1                	addi	s9,s9,28
    800519ba:	2c16                	fld	fs8,320(sp)
    800519bc:	1ee4                	addi	s1,sp,892
    800519be:	f5ee                	sd	s11,232(sp)
    800519c0:	01d0                	addi	a2,sp,196
    800519c2:	f105                	bnez	a0,800518e2 <ali1_data.1513+0x8e2>
    800519c4:	5911                	li	s2,-28
    800519c6:	e232                	sd	a2,256(sp)
    800519c8:	0dfc                	addi	a5,sp,732
    800519ca:	18ee                	slli	a7,a7,0x3b
    800519cc:	2324                	fld	fs1,64(a4)
    800519ce:	fc24                	sd	s1,120(s0)
    800519d0:	ffd9                	bnez	a5,8005196e <ali1_data.1513+0x96e>
    800519d2:	0e0e                	slli	t3,t3,0x3
    800519d4:	ebfc                	sd	a5,208(a5)
    800519d6:	19ec                	addi	a1,sp,252
    800519d8:	19de                	slli	s3,s3,0x37
    800519da:	0e1c                	addi	a5,sp,784
    800519dc:	23d5                	addiw	t2,t2,21
    800519de:	04eef21b          	0x4eef21b
    800519e2:	0dd4                	addi	a3,sp,724
    800519e4:	0d15                	addi	s10,s10,5
    800519e6:	04da                	slli	s1,s1,0x16
    800519e8:	1014                	addi	a3,sp,32
    800519ea:	de0ed9bf fbe9dff4 	0xfbe9dff4de0ed9bf
    800519f2:	b7bc                	fsd	fa5,104(a5)
    800519f4:	e035                	bnez	s0,80051a58 <ali1_data.1513+0xa58>
    800519f6:	efd1                	bnez	a5,80051a92 <ali1_data.1513+0xa92>
    800519f8:	1935                	addi	s2,s2,-19
    800519fa:	e3ec                	sd	a1,192(a5)
    800519fc:	ccd5                	beqz	s1,80051ab8 <ali1_data.1513+0xab8>
    800519fe:	27d4                	fld	fa3,136(a5)
    80051a00:	26e702d3          	fmv.q	ft5,fa4
    80051a04:	530a                	lw	t1,160(sp)
    80051a06:	ebf5                	bnez	a5,80051afa <ali1_data.1513+0xafa>
    80051a08:	00f4                	addi	a3,sp,76
    80051a0a:	1414                	addi	a3,sp,544
    80051a0c:	fb3929f3          	csrrs	s3,0xfb3,s2
    80051a10:	01d9                	addi	gp,gp,22
    80051a12:	cbf8                	sw	a4,84(a5)
    80051a14:	0000                	unimp
    80051a16:	e9eefd0b          	0xe9eefd0b
    80051a1a:	0c08                	addi	a0,sp,528
    80051a1c:	f2d9                	bnez	a3,800519a2 <ali1_data.1513+0x9a2>
    80051a1e:	17ea0edb          	0x17ea0edb
    80051a22:	e209                	bnez	a2,80051a24 <ali1_data.1513+0xa24>
    80051a24:	fedee5e7          	0xfedee5e7
    80051a28:	121e1823          	sh	ra,304(t3)
    80051a2c:	3e06                	fld	ft8,96(sp)
    80051a2e:	01fa2013          	slti	zero,s4,31
    80051a32:	e7f80313          	addi	t1,a6,-385
    80051a36:	f2260ee3          	beq	a2,sp,80051972 <ali1_data.1513+0x972>
    80051a3a:	0422edf7          	0x422edf7
    80051a3e:	1eec                	addi	a1,sp,892
    80051a40:	091c                	addi	a5,sp,144
    80051a42:	d3d9                	beqz	a5,800519c8 <ali1_data.1513+0x9c8>
    80051a44:	edda                	sd	s6,216(sp)
    80051a46:	d7ee                	sw	s11,236(sp)
    80051a48:	1d20                	addi	s0,sp,696
    80051a4a:	12f5                	addi	t0,t0,-3
    80051a4c:	c20707d7          	0xc20707d7
    80051a50:	fc1d                	bnez	s0,8005198e <ali1_data.1513+0x98e>
    80051a52:	dcee                	sw	s11,120(sp)
    80051a54:	e90c                	sd	a1,16(a0)
    80051a56:	fcdf f3f5 c1d7      	0xc1d7f3f5fcdf
    80051a5c:	ccf8                	sw	a4,92(s1)
    80051a5e:	11f1e5e3          	bltu	gp,t6,80052368 <ali1_data.1513+0x1368>
    80051a62:	09e5                	addi	s3,s3,25
    80051a64:	1eec                	addi	a1,sp,892
    80051a66:	0eec                	addi	a1,sp,860
    80051a68:	371a                	fld	fa4,416(sp)
    80051a6a:	fe20                	sd	s0,120(a2)
    80051a6c:	1104                	addi	s1,sp,160
    80051a6e:	ffd8                	sd	a4,184(a5)
    80051a70:	2230120f          	0x2230120f
    80051a74:	cdec                	sw	a1,92(a1)
    80051a76:	1c16                	slli	s8,s8,0x25
    80051a78:	071c                	addi	a5,sp,896
    80051a7a:	26ebe8e3          	bltu	s7,a4,800524ea <ali1_data.1513+0x14ea>
    80051a7e:	e6f5                	bnez	a3,80051b6a <ali1_data.1513+0xb6a>
    80051a80:	0510                	addi	a2,sp,640
    80051a82:	fbecaad3          	0xfbecaad3
    80051a86:	dc26                	sw	s1,56(sp)
    80051a88:	d61e                	sw	t2,44(sp)
    80051a8a:	e1e4cae3          	blt	s1,t5,8005189e <ali1_data.1513+0x89e>
    80051a8e:	f5fd                	bnez	a1,80051a7c <ali1_data.1513+0xa7c>
    80051a90:	00f1                	addi	ra,ra,28
    80051a92:	e6e5                	bnez	a3,80051b7a <ali1_data.1513+0xb7a>
    80051a94:	0901                	addi	s2,s2,0
    80051a96:	edf0                	sd	a2,216(a1)
    80051a98:	e9ea                	sd	s10,208(sp)
    80051a9a:	ede0                	sd	s0,216(a1)
    80051a9c:	0edc                	addi	a5,sp,852
    80051a9e:	dc16                	sw	t0,56(sp)
    80051aa0:	16e2                	slli	a3,a3,0x38
    80051aa2:	f4ea                	sd	s10,104(sp)
    80051aa4:	f0e5                	bnez	s1,80051a84 <ali1_data.1513+0xa84>
    80051aa6:	0c1d                	addi	s8,s8,7
    80051aa8:	f0e3151b          	0xf0e3151b
    80051aac:	1506                	slli	a0,a0,0x21
    80051aae:	f7e2                	sd	s8,488(sp)
    80051ab0:	fafe                	sd	t6,368(sp)
    80051ab2:	dad1ea47          	fmsub.d	fs4,ft3,fa3,fs11,unknown
    80051ab6:	2211                	addiw	tp,tp,4
    80051ab8:	fc0a                	sd	sp,56(sp)
    80051aba:	1822                	slli	a6,a6,0x28
    80051abc:	0404                	addi	s1,sp,512
    80051abe:	11e30113          	addi	sp,t1,286
    80051ac2:	19d5                	addi	s3,s3,-11
    80051ac4:	32fd                	addiw	t0,t0,-1
    80051ac6:	ef5e                	sd	s7,408(sp)
    80051ac8:	ff0e1823          	sh	a6,-16(t3)
    80051acc:	2c07f20f          	0x2c07f20f
    80051ad0:	10d30d0b          	0x10d30d0b
    80051ad4:	1800                	addi	s0,sp,48
    80051ad6:	0e09                	addi	t3,t3,2
    80051ad8:	0ada                	slli	s5,s5,0x16
    80051ada:	0c11121b          	0xc11121b
    80051ade:	f1160833          	0xf1160833
    80051ae2:	dafc                	sw	a5,116(a3)
    80051ae4:	1400                	addi	s0,sp,544
    80051ae6:	f3d8                	sd	a4,160(a5)
    80051ae8:	0c1f eaef 07fd      	0x7fdeaef0c1f
    80051aee:	05fd                	addi	a1,a1,31
    80051af0:	0d30                	addi	a2,sp,664
    80051af2:	de35                	beqz	a2,80051a6e <ali1_data.1513+0xa6e>
    80051af4:	5208f2e3          	bgeu	a7,zero,80052818 <ali1_data.1513+0x1818>
    80051af8:	ed10                	sd	a2,24(a0)
    80051afa:	23d62b07          	flw	fs6,573(a2)
    80051afe:	ed0d                	bnez	a0,80051b38 <ali1_data.1513+0xb38>
    80051b00:	08ec                	addi	a1,sp,92
    80051b02:	fc04                	sd	s1,56(s0)
    80051b04:	e7e91bf3          	csrrw	s7,0xe7e,s2
    80051b08:	1c2e02eb          	0x1c2e02eb
    80051b0c:	3e1f 261d ead8      	0xead8261d3e1f
    80051b12:	0600                	addi	s0,sp,768
    80051b14:	fe16                	sd	t0,312(sp)
    80051b16:	07e4                	addi	s1,sp,972
    80051b18:	01c9                	addi	gp,gp,18
    80051b1a:	2211                	addiw	tp,tp,4
    80051b1c:	16d9                	addi	a3,a3,-10
    80051b1e:	d711                	beqz	a4,80051a2a <ali1_data.1513+0xa2a>
    80051b20:	dec60723          	sb	a2,-530(a2)
    80051b24:	cb10                	sw	a2,16(a4)
    80051b26:	1aff                	0x1aff
    80051b28:	ec031303          	lh	t1,-320(t1)
    80051b2c:	1710                	addi	a2,sp,928
    80051b2e:	101c                	addi	a5,sp,32
    80051b30:	1410                	addi	a2,sp,544
    80051b32:	ee01ca13          	xori	s4,gp,-288
    80051b36:	4308                	lw	a0,0(a4)
    80051b38:	ef08f43f 000c18e9 	0xc18e9ef08f43f
    80051b40:	c4b10b23          	sb	a1,-938(sp)
    80051b44:	0acfe4fb          	0xacfe4fb
    80051b48:	05e1f7ef          	jal	a5,80070ba6 <ali3_data.1513+0x198a6>
    80051b4c:	ff2dffe3          	bgeu	s11,s2,80051b4a <ali1_data.1513+0xb4a>
    80051b50:	ebd0dfe7          	0xebd0dfe7
    80051b54:	02e9d70b          	0x2e9d70b
    80051b58:	0ce41603          	lh	a2,206(s0)
    80051b5c:	eae6                	sd	s9,336(sp)
    80051b5e:	e7d9                	bnez	a5,80051bec <ali1_data.1513+0xbec>
    80051b60:	10f2                	slli	ra,ra,0x3c
    80051b62:	ea21                	bnez	a2,80051bb2 <ali1_data.1513+0xbb2>
    80051b64:	e505                	bnez	a0,80051b8c <ali1_data.1513+0xb8c>
    80051b66:	eafa                	sd	t5,336(sp)
    80051b68:	28d8                	fld	fa4,144(s1)
    80051b6a:	2a283727          	fsd	ft2,686(a6)
    80051b6e:	daec                	sw	a1,116(a3)
    80051b70:	23f5                	addiw	t2,t2,29
    80051b72:	1039                	c.nop	-18
    80051b74:	03ee                	slli	t2,t2,0x1b
    80051b76:	e321                	bnez	a4,80051bb6 <ali1_data.1513+0xbb6>
    80051b78:	1018                	addi	a4,sp,32
    80051b7a:	09f4df0f          	0x9f4df0f
    80051b7e:	ebe8                	sd	a0,208(a5)
    80051b80:	e624                	sd	s1,72(a2)
    80051b82:	c9b6                	sw	a3,208(sp)
    80051b84:	e5f1                	bnez	a1,80051c50 <ali1_data.1513+0xc50>
    80051b86:	f5d8                	sd	a4,168(a1)
    80051b88:	e9f8                	sd	a4,208(a1)
    80051b8a:	1614                	addi	a3,sp,800
    80051b8c:	f721                	bnez	a4,80051ad4 <ali1_data.1513+0xad4>
    80051b8e:	10f8                	addi	a4,sp,108
    80051b90:	1714                	addi	a3,sp,928
    80051b92:	ece0                	sd	s0,216(s1)
    80051b94:	fb02                	sd	zero,432(sp)
    80051b96:	131d                	addi	t1,t1,-25
    80051b98:	e419                	bnez	s0,80051ba6 <ali1_data.1513+0xba6>
    80051b9a:	fbe6                	sd	s9,496(sp)
    80051b9c:	f4da                	sd	s6,104(sp)
    80051b9e:	1eff                	0x1eff
    80051ba0:	eef1e90b          	0xeef1e90b
    80051ba4:	1dd8                	addi	a4,sp,756
    80051ba6:	15e9                	addi	a1,a1,-6
    80051ba8:	020c                	addi	a1,sp,256
    80051baa:	dbe6                	sw	s9,244(sp)
    80051bac:	f1e7dfef          	jal	t6,7ffcf2ca <__stack_size+0x7ffc72ca>
    80051bb0:	f2e9                	bnez	a3,80051b72 <ali1_data.1513+0xb72>
    80051bb2:	f9261e3b          	0xf9261e3b
    80051bb6:	0e0a                	slli	t3,t3,0x2
    80051bb8:	06e5                	addi	a3,a3,25
    80051bba:	f2f5                	bnez	a3,80051b9e <ali1_data.1513+0xb9e>
    80051bbc:	070320fb          	0x70320fb
    80051bc0:	0e15                	addi	t3,t3,5
    80051bc2:	c9b8                	sw	a4,80(a1)
    80051bc4:	1a21                	addi	s4,s4,-24
    80051bc6:	0c35                	addi	s8,s8,13
    80051bc8:	e1ff1113          	0xe1ff1113
    80051bcc:	fcf5                	bnez	s1,80051bc8 <ali1_data.1513+0xbc8>
    80051bce:	1e1610f7          	0x1e1610f7
    80051bd2:	d811                	beqz	s0,80051ae6 <ali1_data.1513+0xae6>
    80051bd4:	fee4                	sd	s1,248(a3)
    80051bd6:	fbec                	sd	a1,240(a5)
    80051bd8:	d811                	beqz	s0,80051aec <ali1_data.1513+0xaec>
    80051bda:	f4fd                	bnez	s1,80051bc8 <ali1_data.1513+0xbc8>
    80051bdc:	1301                	addi	t1,t1,-32
    80051bde:	eff8                	sd	a4,216(a5)
    80051be0:	08ee                	slli	a7,a7,0x1b
    80051be2:	f1e5                	bnez	a1,80051bc2 <ali1_data.1513+0xbc2>
    80051be4:	e500                	sd	s0,8(a0)
    80051be6:	ead8                	sd	a4,144(a3)
    80051be8:	dd29                	beqz	a0,80051b42 <ali1_data.1513+0xb42>
    80051bea:	f608                	sd	a0,40(a2)
    80051bec:	f4df 2f17 1ec0      	0x1ec02f17f4df
    80051bf2:	f830                	sd	a2,112(s0)
    80051bf4:	1dec                	addi	a1,sp,764
    80051bf6:	20ec00e3          	beq	s8,a4,800525f6 <ali1_data.1513+0x15f6>
    80051bfa:	0610                	addi	a2,sp,768
    80051bfc:	e902                	sd	zero,144(sp)
    80051bfe:	f71a                	sd	t1,424(sp)
    80051c00:	e4c5                	bnez	s1,80051ca8 <ali1_data.1513+0xca8>
    80051c02:	edde                	sd	s7,216(sp)
    80051c04:	0e11                	addi	t3,t3,4
    80051c06:	0324                	addi	s1,sp,392
    80051c08:	09fc                	addi	a5,sp,220
    80051c0a:	e905                	bnez	a0,80051c3a <ali1_data.1513+0xc3a>
    80051c0c:	1316                	slli	t1,t1,0x25
    80051c0e:	1426                	slli	s0,s0,0x29
    80051c10:	eff4ee07          	0xeff4ee07
    80051c14:	03ec                	addi	a1,sp,460
    80051c16:	f105                	bnez	a0,80051b36 <ali1_data.1513+0xb36>
    80051c18:	12f8                	addi	a4,sp,364
    80051c1a:	310d                	addiw	sp,sp,-29
    80051c1c:	07d8                	addi	a4,sp,964
    80051c1e:	e732                	sd	a2,392(sp)
    80051c20:	ecd5dc07          	0xecd5dc07
    80051c24:	e9d6030b          	0xe9d6030b
    80051c28:	ebfe                	sd	t6,464(sp)
    80051c2a:	fd14ed0f          	0xfd14ed0f
    80051c2e:	0712                	slli	a4,a4,0x4
    80051c30:	1c2ae7d7          	0x1c2ae7d7
    80051c34:	f3f0                	sd	a2,224(a5)
    80051c36:	1801                	addi	a6,a6,-32
    80051c38:	0ddf 0e19 f425      	0xf4250e190ddf
    80051c3e:	fb1c1843          	fmadd.d	fa6,fs8,fa7,ft11,rtz
    80051c42:	ef11                	bnez	a4,80051c5e <ali1_data.1513+0xc5e>
    80051c44:	171e0ceb          	0x171e0ceb
    80051c48:	19fe                	slli	s3,s3,0x3f
    80051c4a:	fdfa                	sd	t5,248(sp)
    80051c4c:	2a11                	addiw	s4,s4,4
    80051c4e:	e41f 18ef 05e8      	0x5e818efe41f
    80051c54:	dbe80d07          	0xdbe80d07
    80051c58:	14f9                	addi	s1,s1,-2
    80051c5a:	f218                	sd	a4,32(a2)
    80051c5c:	fdf4190f          	0xfdf4190f
    80051c60:	f6e7db0f          	0xf6e7db0f
    80051c64:	11eafdeb          	0x11eafdeb
    80051c68:	0a00                	addi	s0,sp,272
    80051c6a:	f7ed                	bnez	a5,80051c54 <ali1_data.1513+0xc54>
    80051c6c:	0d05                	addi	s10,s10,1
    80051c6e:	dd15                	beqz	a0,80051baa <ali1_data.1513+0xbaa>
    80051c70:	050002e7          	jalr	t0,80(zero) # 0 <__boot_hart>
    80051c74:	f7e4                	sd	s1,232(a5)
    80051c76:	170c1deb          	0x170c1deb
    80051c7a:	1b26                	slli	s6,s6,0x29
    80051c7c:	eee80617          	auipc	a2,0xeee80
    80051c80:	16f2                	slli	a3,a3,0x3c
    80051c82:	26f9                	addiw	a3,a3,30
    80051c84:	1ccd                	addi	s9,s9,-13
    80051c86:	1226                	slli	tp,tp,0x29
    80051c88:	1118                	addi	a4,sp,160
    80051c8a:	190a                	slli	s2,s2,0x22
    80051c8c:	0c04fc03          	0xc04fc03
    80051c90:	f8cd2a07          	flw	fs4,-116(s10)
    80051c94:	1fd8                	addi	a4,sp,1012
    80051c96:	e6d207f7          	0xe6d207f7
    80051c9a:	10fa                	slli	ra,ra,0x3e
    80051c9c:	0202                	c.slli64	tp
    80051c9e:	1706                	slli	a4,a4,0x21
    80051ca0:	0b16                	slli	s6,s6,0x5
    80051ca2:	e70a0ee3          	beq	s4,a6,80051b1e <ali1_data.1513+0xb1e>
    80051ca6:	e8f82127          	fsw	fa5,-382(a6)
    80051caa:	1418                	addi	a4,sp,544
    80051cac:	ffdf f6d8 0ced      	0xcedf6d8ffdf
    80051cb2:	0b1a                	slli	s6,s6,0x6
    80051cb4:	1eed                	addi	t4,t4,-5
    80051cb6:	f3f6100f          	0xf3f6100f
    80051cba:	eff2                	sd	t3,472(sp)
    80051cbc:	0b14e5ef          	jal	a1,800a056c <ali3_data.1513+0x4926c>
    80051cc0:	15ea                	slli	a1,a1,0x3a
    80051cc2:	09f6                	slli	s3,s3,0x1d
    80051cc4:	e2eb0307          	0xe2eb0307
    80051cc8:	fb0c                	sd	a1,48(a4)
    80051cca:	35fd                	addiw	a1,a1,-1
    80051ccc:	10d4                	addi	a3,sp,100
    80051cce:	eaea                	sd	s10,336(sp)
    80051cd0:	f5fe                	sd	t6,232(sp)
    80051cd2:	de06                	sw	ra,60(sp)
    80051cd4:	e626                	sd	s1,264(sp)
    80051cd6:	0bf426f3          	csrrs	a3,0xbf,s0
    80051cda:	26f5                	addiw	a3,a3,29
    80051cdc:	0600                	addi	s0,sp,768
    80051cde:	fc08                	sd	a0,56(s0)
    80051ce0:	fae6f5eb          	0xfae6f5eb
    80051ce4:	c8f4                	sw	a3,84(s1)
    80051ce6:	df02c1bf 081b350e 	0x81b350edf02c1bf
    80051cee:	fc25                	bnez	s0,80051c66 <ali1_data.1513+0xc66>
    80051cf0:	0fed                	addi	t6,t6,27
    80051cf2:	fbf5                	bnez	a5,80051ce6 <ali1_data.1513+0xce6>
    80051cf4:	e8f8                	sd	a4,208(s1)
    80051cf6:	f5ee                	sd	s11,232(sp)
    80051cf8:	e8d2                	sd	s4,80(sp)
    80051cfa:	ff24                	sd	s1,120(a4)
    80051cfc:	db04                	sw	s1,48(a4)
    80051cfe:	09db0aef          	jal	s5,8010259a <ali3_data.1513+0xab29a>
    80051d02:	e8fc                	sd	a5,208(s1)
    80051d04:	ecd6                	sd	s5,88(sp)
    80051d06:	d008                	sw	a0,32(s0)
    80051d08:	02ec                	addi	a1,sp,332
    80051d0a:	0fea                	slli	t6,t6,0x1a
    80051d0c:	0cfa                	slli	s9,s9,0x1e
    80051d0e:	e0140607          	0xe0140607
    80051d12:	fa0c                	sd	a1,48(a2)
    80051d14:	e412                	sd	tp,8(sp)
    80051d16:	f8ec23e7          	0xf8ec23e7
    80051d1a:	00ff                	0xff
    80051d1c:	d9e1                	beqz	a1,80051cec <ali1_data.1513+0xcec>
    80051d1e:	f2d5                	bnez	a3,80051cc2 <ali1_data.1513+0xcc2>
    80051d20:	13e625e3          	0x13e625e3
    80051d24:	08df f109 efeb      	0xefebf10908df
    80051d2a:	dce9                	beqz	s1,80051d04 <ali1_data.1513+0xd04>
    80051d2c:	06f5                	addi	a3,a3,29
    80051d2e:	e3e8f7f3          	csrrci	a5,0xe3e,17
    80051d32:	e3f501fb          	0xe3f501fb
    80051d36:	e202e2e7          	0xe202e2e7
    80051d3a:	e0fe                	sd	t6,64(sp)
    80051d3c:	f8efe5e7          	0xf8efe5e7
    80051d40:	04fc                	addi	a5,sp,588
    80051d42:	ea0d                	bnez	a2,80051d74 <ali1_data.1513+0xd74>
    80051d44:	2f12                	fld	ft10,256(sp)
    80051d46:	e9f4                	sd	a3,208(a1)
    80051d48:	1cf6                	slli	s9,s9,0x3d
    80051d4a:	e2f1                	bnez	a3,80051e0e <ali1_data.1513+0xe0e>
    80051d4c:	f301                	bnez	a4,80051c4c <ali1_data.1513+0xc4c>
    80051d4e:	fec8                	sd	a0,184(a3)
    80051d50:	ec08                	sd	a0,24(s0)
    80051d52:	dd10                	sw	a2,56(a0)
    80051d54:	1ddc                	addi	a5,sp,756
    80051d56:	d21d                	beqz	a2,80051c7c <ali1_data.1513+0xc7c>
    80051d58:	f7e2                	sd	s8,488(sp)
    80051d5a:	dfdd                	beqz	a5,80051d18 <ali1_data.1513+0xd18>
    80051d5c:	04f4ef0b          	0x4f4ef0b
    80051d60:	cad0c907          	flq	fs2,-851(ra)
    80051d64:	e1ea                	sd	s10,192(sp)
    80051d66:	fbe1                	bnez	a5,80051d36 <ali1_data.1513+0xd36>
    80051d68:	13f9                	addi	t2,t2,-2
    80051d6a:	00d53def          	jal	s11,800a5576 <ali3_data.1513+0x4e276>
    80051d6e:	0701                	addi	a4,a4,0
    80051d70:	10f1                	addi	ra,ra,-4
    80051d72:	192c                	addi	a1,sp,184
    80051d74:	e4f2                	sd	t3,72(sp)
    80051d76:	0cf2e807          	0xcf2e807
    80051d7a:	e3f8                	sd	a4,192(a5)
    80051d7c:	03fc                	addi	a5,sp,460
    80051d7e:	fa06                	sd	ra,304(sp)
    80051d80:	f7f2                	sd	t3,488(sp)
    80051d82:	c4c5d1f3          	csrrwi	gp,0xc4c,11
    80051d86:	e5fd                	bnez	a1,80051e74 <ali1_data.1513+0xe74>
    80051d88:	1314                	addi	a3,sp,416
    80051d8a:	39f6                	fld	fs3,376(sp)
    80051d8c:	1f16                	slli	t5,t5,0x25
    80051d8e:	f4f0                	sd	a2,232(s1)
    80051d90:	1916                	slli	s2,s2,0x25
    80051d92:	f1e0                	sd	s0,224(a1)
    80051d94:	310d2013          	slti	zero,s10,784
    80051d98:	ed0117e3          	bne	sp,a6,80051c66 <ali1_data.1513+0xc66>
    80051d9c:	ff1e                	sd	t2,440(sp)
    80051d9e:	f9de11f7          	0xf9de11f7
    80051da2:	03f9                	addi	t2,t2,30
    80051da4:	15ecf0d7          	0x15ecf0d7
    80051da8:	1d09                	addi	s10,s10,-30
    80051daa:	1ef0                	addi	a2,sp,892
    80051dac:	0432                	slli	s0,s0,0xc
    80051dae:	00f4                	addi	a3,sp,76
    80051db0:	ea19                	bnez	a2,80051dc6 <ali1_data.1513+0xdc6>
    80051db2:	db05                	beqz	a4,80051ce2 <ali1_data.1513+0xce2>
    80051db4:	0c0e                	slli	s8,s8,0x3
    80051db6:	13d6                	slli	t2,t2,0x35
    80051db8:	36fc                	fld	fa5,232(a3)
    80051dba:	fdf8                	sd	a4,248(a1)
    80051dbc:	0809                	addi	a6,a6,2
    80051dbe:	fef0                	sd	a2,248(a3)
    80051dc0:	01da                	slli	gp,gp,0x16
    80051dc2:	edfa                	sd	t5,216(sp)
    80051dc4:	f8e4f2f3          	csrrci	t0,0xf8e,9
    80051dc8:	dfe5                	beqz	a5,80051dc0 <ali1_data.1513+0xdc0>
    80051dca:	edf0                	sd	a2,216(a1)
    80051dcc:	ffe6f80b          	0xffe6f80b
    80051dd0:	fffcdc0f          	0xfffcdc0f
    80051dd4:	0210d317          	auipc	t1,0x210d
    80051dd8:	e215                	bnez	a2,80051dfc <ali1_data.1513+0xdfc>
    80051dda:	10e1                	addi	ra,ra,-8
    80051ddc:	e602de0b          	0xe602de0b
    80051de0:	f3fd                	bnez	a5,80051dc6 <ali1_data.1513+0xdc6>
    80051de2:	bed0                	fsd	fa2,184(a3)
    80051de4:	ea29                	bnez	a2,80051e36 <ali1_data.1513+0xe36>
    80051de6:	d9fa                	sw	t5,240(sp)
    80051de8:	1df4                	addi	a3,sp,764
    80051dea:	e5fc                	sd	a5,200(a1)
    80051dec:	cbf8                	sw	a4,84(a5)
    80051dee:	ead4                	sd	a3,144(a3)
    80051df0:	14da                	slli	s1,s1,0x36
    80051df2:	e401                	bnez	s0,80051dfa <ali1_data.1513+0xdfa>
    80051df4:	0f05                	addi	t5,t5,1
    80051df6:	e4181227          	0xe4181227
    80051dfa:	2fd9                	addiw	t6,t6,22
    80051dfc:	d7f1                	beqz	a5,80051dc8 <ali1_data.1513+0xdc8>
    80051dfe:	11e6                	slli	gp,gp,0x39
    80051e00:	bed8                	fsd	fa4,184(a3)
    80051e02:	c0f6                	sw	t4,64(sp)
    80051e04:	c2f5                	beqz	a3,80051ee8 <ali1_data.1513+0xee8>
    80051e06:	e4e2                	sd	s8,72(sp)
    80051e08:	04df eafe fbd2      	0xfbd2eafe04df
    80051e0e:	05ebd9ef          	jal	s3,8010ee6c <ali3_data.1513+0xb7b6c>
    80051e12:	1ce6                	slli	s9,s9,0x39
    80051e14:	e511                	bnez	a0,80051e20 <ali1_data.1513+0xe20>
    80051e16:	df14                	sw	a3,56(a4)
    80051e18:	f9f7d903          	lhu	s2,-97(a5)
    80051e1c:	06f1                	addi	a3,a3,28
    80051e1e:	0114                	addi	a3,sp,128
    80051e20:	14d0                	addi	a2,sp,612
    80051e22:	fb31                	bnez	a4,80051d76 <ali1_data.1513+0xd76>
    80051e24:	e9f2e3ef          	jal	t2,7ff80cc2 <__stack_size+0x7ff78cc2>
    80051e28:	e622ffe3          	bgeu	t0,sp,80051ca6 <ali1_data.1513+0xca6>
    80051e2c:	2706                	fld	fa4,64(sp)
    80051e2e:	09e1                	addi	s3,s3,24
    80051e30:	ef19                	bnez	a4,80051e4e <ali1_data.1513+0xe4e>
    80051e32:	02d5                	addi	t0,t0,21
    80051e34:	f7ea                	sd	s10,488(sp)
    80051e36:	cff0                	sw	a2,92(a5)
    80051e38:	dbf2                	sw	t3,244(sp)
    80051e3a:	f1fc                	sd	a5,224(a1)
    80051e3c:	e534                	sd	a3,72(a0)
    80051e3e:	e9ed                	bnez	a1,80051f30 <ali1_data.1513+0xf30>
    80051e40:	0618                	addi	a4,sp,768
    80051e42:	16f9                	addi	a3,a3,-2
    80051e44:	1bec                	addi	a1,sp,508
    80051e46:	e902                	sd	zero,144(sp)
    80051e48:	08e5                	addi	a7,a7,25
    80051e4a:	1a28de07          	0x1a28de07
    80051e4e:	dbd1de07          	0xdbd1de07
    80051e52:	0210                	addi	a2,sp,256
    80051e54:	f7e5                	bnez	a5,80051e3c <ali1_data.1513+0xe3c>
    80051e56:	2206e3ef          	jal	t2,800c0076 <ali3_data.1513+0x68d76>
    80051e5a:	ce02                	sw	zero,28(sp)
    80051e5c:	ece6                	sd	s9,88(sp)
    80051e5e:	1be009ef          	jal	s3,8005201c <ali1_data.1513+0x101c>
    80051e62:	b8f5                	j	8005175e <ali1_data.1513+0x75e>
    80051e64:	f1071bf7          	0xf1071bf7
    80051e68:	13ed                	addi	t2,t2,-5
    80051e6a:	18e6                	slli	a7,a7,0x39
    80051e6c:	fd0bd9fb          	0xfd0bd9fb
    80051e70:	dcd7d603          	lhu	a2,-563(a5)
    80051e74:	11df 2d14 e6de      	0xe6de2d1411df
    80051e7a:	00f6                	slli	ra,ra,0x1d
    80051e7c:	ded8                	sw	a4,60(a3)
    80051e7e:	0208                	addi	a0,sp,256
    80051e80:	d7f2                	sw	t3,236(sp)
    80051e82:	e0de                	sd	s7,64(sp)
    80051e84:	e7eafb0f          	0xe7eafb0f
    80051e88:	fdde                	sd	s7,248(sp)
    80051e8a:	03e7effb          	0x3e7effb
    80051e8e:	eae2                	sd	s8,336(sp)
    80051e90:	e106f8f3          	csrrci	a7,0xe10,13
    80051e94:	e109                	bnez	a0,80051e96 <ali1_data.1513+0xe96>
    80051e96:	06e1                	addi	a3,a3,24
    80051e98:	0b1f 4122 05f2      	0x5f241220b1f
    80051e9e:	130a                	slli	t1,t1,0x22
    80051ea0:	f6c8                	sd	a0,168(a3)
    80051ea2:	e71f cd0e d401      	0xd401cd0ee71f
    80051ea8:	01f5e1f3          	csrrsi	gp,0x1f,11
    80051eac:	dff1                	beqz	a5,80051e88 <ali1_data.1513+0xe88>
    80051eae:	08fff9cf          	fnmadd.s	fs3,ft11,fa5,ft1
    80051eb2:	f7cd                	bnez	a5,80051e5c <ali1_data.1513+0xe5c>
    80051eb4:	10dc                	addi	a5,sp,100
    80051eb6:	d712fffb          	0xd712fffb
    80051eba:	300a                	fld	ft0,160(sp)
    80051ebc:	f9f21df7          	0xf9f21df7
    80051ec0:	20de                	fld	ft1,464(sp)
    80051ec2:	eadd                	bnez	a3,80051f78 <ali1_data.1513+0xf78>
    80051ec4:	e6f2                	sd	t3,328(sp)
    80051ec6:	0011                	c.nop	4
    80051ec8:	e619                	bnez	a2,80051ed6 <ali1_data.1513+0xed6>
    80051eca:	0e1e                	slli	t3,t3,0x7
    80051ecc:	0ee5                	addi	t4,t4,25
    80051ece:	dce2                	sw	s8,120(sp)
    80051ed0:	13e6                	slli	t2,t2,0x39
    80051ed2:	e312                	sd	tp,384(sp)
    80051ed4:	e2e9                	bnez	a3,80051f96 <ali1_data.1513+0xf96>
    80051ed6:	ff27fc1b          	0xff27fc1b
    80051eda:	f5352a1b          	0xf5352a1b
    80051ede:	0c23192b          	0xc23192b
    80051ee2:	fbfd                	bnez	a5,80051ed8 <ali1_data.1513+0xed8>
    80051ee4:	121718eb          	0x121718eb
    80051ee8:	f9f6                	sd	t4,240(sp)
    80051eea:	ed13f2e3          	bgeu	t2,a7,80051dae <ali1_data.1513+0xdae>
    80051eee:	030a                	slli	t1,t1,0x2
    80051ef0:	e9cd                	bnez	a1,80051fa2 <ali1_data.1513+0xfa2>
    80051ef2:	fb0d                	bnez	a4,80051e24 <ali1_data.1513+0xe24>
    80051ef4:	06f5                	addi	a3,a3,29
    80051ef6:	f10f1a03          	lh	s4,-240(t5)
    80051efa:	d62330db          	0xd62330db
    80051efe:	0300                	addi	s0,sp,384
    80051f00:	f8f9                	bnez	s1,80051ed6 <ali1_data.1513+0xed6>
    80051f02:	baf2                	fsd	ft8,368(sp)
    80051f04:	00ee                	slli	ra,ra,0x1b
    80051f06:	dadd                	beqz	a3,80051ebc <ali1_data.1513+0xebc>
    80051f08:	07f513eb          	0x7f513eb
    80051f0c:	eded                	bnez	a1,80052006 <ali1_data.1513+0x1006>
    80051f0e:	e912                	sd	tp,144(sp)
    80051f10:	0de8                	addi	a0,sp,732
    80051f12:	1de1                	addi	s11,s11,-8
    80051f14:	1a0a                	slli	s4,s4,0x22
    80051f16:	12de                	slli	t0,t0,0x37
    80051f18:	f4e5                	bnez	s1,80051f00 <ali1_data.1513+0xf00>
    80051f1a:	21e5                	addiw	gp,gp,25
    80051f1c:	08ec                	addi	a1,sp,92
    80051f1e:	2400                	fld	fs0,8(s0)
    80051f20:	fef5e1ef          	jal	gp,7ffb0f0e <__stack_size+0x7ffa8f0e>
    80051f24:	06fe                	slli	a3,a3,0x1f
    80051f26:	f9fc                	sd	a5,240(a1)
    80051f28:	07f8                	addi	a4,sp,972
    80051f2a:	eb090e0b          	0xeb090e0b
    80051f2e:	f21f df00 13f4      	0x13f4df00f21f
    80051f34:	0bee                	slli	s7,s7,0x1b
    80051f36:	f0f4                	sd	a3,224(s1)
    80051f38:	f9e1                	bnez	a1,80051f08 <ali1_data.1513+0xf08>
    80051f3a:	02ec                	addi	a1,sp,332
    80051f3c:	1819                	addi	a6,a6,-26
    80051f3e:	fae1                	bnez	a3,80051f0e <ali1_data.1513+0xf0e>
    80051f40:	f2cc                	sd	a1,160(a3)
    80051f42:	ee0e                	sd	gp,280(sp)
    80051f44:	f51a                	sd	t1,168(sp)
    80051f46:	07f2                	slli	a5,a5,0x1c
    80051f48:	04fd                	addi	s1,s1,31
    80051f4a:	0a100213          	li	tp,161
    80051f4e:	f4e0                	sd	s0,232(s1)
    80051f50:	ee05                	bnez	a2,80051f88 <ali1_data.1513+0xf88>
    80051f52:	fafc                	sd	a5,240(a3)
    80051f54:	11e2                	slli	gp,gp,0x38
    80051f56:	1cff                	0x1cff
    80051f58:	ece0                	sd	s0,216(s1)
    80051f5a:	f1f1                	bnez	a1,80051f1e <ali1_data.1513+0xf1e>
    80051f5c:	f3e5                	bnez	a5,80051f3c <ali1_data.1513+0xf3c>
    80051f5e:	fdde                	sd	s7,248(sp)
    80051f60:	2cd4                	fld	fa3,152(s1)
    80051f62:	e3f4                	sd	a3,192(a5)
    80051f64:	12f9                	addi	t0,t0,-2
    80051f66:	13f4                	addi	a3,sp,492
    80051f68:	0b04                	addi	s1,sp,400
    80051f6a:	0ae6                	slli	s5,s5,0x19
    80051f6c:	e7eff1ef          	jal	gp,800515ea <ali1_data.1513+0x5ea>
    80051f70:	05f5                	addi	a1,a1,29
    80051f72:	0206                	slli	tp,tp,0x1
    80051f74:	eb0a                	sd	sp,400(sp)
    80051f76:	05f5                	addi	a1,a1,29
    80051f78:	13de                	slli	t2,t2,0x37
    80051f7a:	f21d                	bnez	a2,80051ea0 <ali1_data.1513+0xea0>
    80051f7c:	0d092223          	sw	a6,196(s2)
    80051f80:	fe0e                	sd	gp,312(sp)
    80051f82:	f62c                	sd	a1,104(a2)
    80051f84:	0bfd19e7          	0xbfd19e7
    80051f88:	07fc                	addi	a5,sp,972
    80051f8a:	e7f4                	sd	a3,200(a5)
    80051f8c:	e522                	sd	s0,136(sp)
    80051f8e:	ebeb00e3          	beq	s6,t5,80051e2e <ali1_data.1513+0xe2e>
    80051f92:	09031317          	auipc	t1,0x9031
    80051f96:	eadf050b          	0xeadf050b
    80051f9a:	1216                	slli	tp,tp,0x25
    80051f9c:	f80e                	sd	gp,48(sp)
    80051f9e:	0af2                	slli	s5,s5,0x1c
    80051fa0:	eef7d307          	0xeef7d307
    80051fa4:	efcd                	bnez	a5,8005205e <ali1_data.1513+0x105e>
    80051fa6:	fd16                	sd	t0,184(sp)
    80051fa8:	f61e                	sd	t2,296(sp)
    80051faa:	f9df e90e ff0d      	0xff0de90ef9df
    80051fb0:	0a16                	slli	s4,s4,0x5
    80051fb2:	f208                	sd	a0,32(a2)
    80051fb4:	f50c                	sd	a1,40(a0)
    80051fb6:	1114                	addi	a3,sp,160
    80051fb8:	dad9                	beqz	a3,80051f4e <ali1_data.1513+0xf4e>
    80051fba:	fa16                	sd	t0,304(sp)
    80051fbc:	2d02                	fld	fs10,0(sp)
    80051fbe:	0f11                	addi	t5,t5,4
    80051fc0:	f30e                	sd	gp,416(sp)
    80051fc2:	0ff5                	addi	t6,t6,29
    80051fc4:	eacd                	bnez	a3,80052076 <ali1_data.1513+0x1076>
    80051fc6:	f402                	sd	zero,40(sp)
    80051fc8:	da0a                	sw	sp,52(sp)
    80051fca:	0b0e                	slli	s6,s6,0x3
    80051fcc:	1415                	addi	s0,s0,-27
    80051fce:	10fe                	slli	ra,ra,0x3f
    80051fd0:	ecf516e3          	bne	a0,a5,80051e9c <ali1_data.1513+0xe9c>
    80051fd4:	02f60b3b          	mulw	s6,a2,a5
    80051fd8:	ecff                	0xecff
    80051fda:	dff113e3          	bne	sp,t6,80051dc0 <ali1_data.1513+0xdc0>
    80051fde:	d7f500f7          	0xd7f500f7
    80051fe2:	271d                	addiw	a4,a4,7
    80051fe4:	21fe                	fld	ft3,472(sp)
    80051fe6:	f926                	sd	s1,176(sp)
    80051fe8:	fff4                	sd	a3,248(a5)
    80051fea:	e510                	sd	a2,8(a0)
    80051fec:	07ff                	0x7ff
    80051fee:	f51affdb          	0xf51affdb
    80051ff2:	01fc                	addi	a5,sp,204
    80051ff4:	1330                	addi	a2,sp,424
    80051ff6:	2a1dec1b          	0x2a1dec1b
    80051ffa:	17e6                	slli	a5,a5,0x39
    80051ffc:	f70a                	sd	sp,424(sp)
    80051ffe:	f6ff                	0xf6ff
    80052000:	ddec                	sw	a1,124(a1)
    80052002:	14e713fb          	0x14e713fb
    80052006:	1ee4                	addi	s1,sp,892
    80052008:	040d1dfb          	0x40d1dfb
    8005200c:	e0dc                	sd	a5,128(s1)
    8005200e:	14ea                	slli	s1,s1,0x3a
    80052010:	f20a                	sd	sp,288(sp)
    80052012:	f0da                	sd	s6,96(sp)
    80052014:	1528                	addi	a0,sp,680
    80052016:	f811                	bnez	s0,80051f2a <ali1_data.1513+0xf2a>
    80052018:	011f 1cf6 f12d      	0xf12d1cf6011f
    8005201e:	12da                	slli	t0,t0,0x36
    80052020:	09e6                	slli	s3,s3,0x19
    80052022:	140d                	addi	s0,s0,-29
    80052024:	19ee                	slli	s3,s3,0x3b
    80052026:	fbf8                	sd	a4,240(a5)
    80052028:	14f208e3          	beq	tp,a5,80052978 <ali1_data.1513+0x1978>
    8005202c:	0a28060b          	0xa28060b
    80052030:	e9e2                	sd	s8,208(sp)
    80052032:	ed09                	bnez	a0,8005204c <ali1_data.1513+0x104c>
    80052034:	e212                	sd	tp,256(sp)
    80052036:	0eea                	slli	t4,t4,0x1a
    80052038:	19ea                	slli	s3,s3,0x3a
    8005203a:	2fec                	fld	fa1,216(a5)
    8005203c:	2304                	fld	fs1,0(a4)
    8005203e:	ee1e                	sd	t2,280(sp)
    80052040:	06fe070b          	0x6fe070b
    80052044:	dd1e                	sw	t2,184(sp)
    80052046:	0601f20b          	0x601f20b
    8005204a:	191a                	slli	s2,s2,0x26
    8005204c:	0df6                	slli	s11,s11,0x1d
    8005204e:	ffe8                	sd	a0,248(a5)
    80052050:	24f6                	fld	fs1,344(sp)
    80052052:	fdfd                	bnez	a1,80052050 <ali1_data.1513+0x1050>
    80052054:	0422                	slli	s0,s0,0x8
    80052056:	fff4                	sd	a3,248(a5)
    80052058:	ff1a                	sd	t1,440(sp)
    8005205a:	ecf2f7f3          	csrrci	a5,0xecf,5
    8005205e:	f2e0                	sd	s0,224(a3)
    80052060:	f425                	bnez	s0,80051fc8 <ali1_data.1513+0xfc8>
    80052062:	dbe0                	sw	s0,116(a5)
    80052064:	0ce1                	addi	s9,s9,24
    80052066:	ffeedbcb          	fnmsub.q	fs7,ft9,ft10,ft11,unknown
    8005206a:	15f80a13          	addi	s4,a6,351
    8005206e:	f420                	sd	s0,104(s0)
    80052070:	fd14                	sd	a3,56(a0)
    80052072:	d908                	sw	a0,48(a0)
    80052074:	e916                	sd	t0,144(sp)
    80052076:	ef02                	sd	zero,408(sp)
    80052078:	f3fc                	sd	a5,224(a5)
    8005207a:	1af0                	addi	a2,sp,380
    8005207c:	fb132007          	flw	ft0,-79(t1) # 89082f43 <ali3_data.1513+0x902bc43>
    80052080:	e7e8                	sd	a0,200(a5)
    80052082:	eddc                	sd	a5,152(a1)
    80052084:	f9e7effb          	0xf9e7effb
    80052088:	ee14fae7          	0xee14fae7
    8005208c:	0a06f5e7          	0xa06f5e7
    80052090:	f3fc                	sd	a5,224(a5)
    80052092:	0917f2e3          	bgeu	a5,a7,80052916 <ali1_data.1513+0x1916>
    80052096:	0a11ed0f          	0xa11ed0f
    8005209a:	f31efa13          	andi	s4,t4,-207
    8005209e:	010cf2d7          	0x10cf2d7
    800520a2:	0509                	addi	a0,a0,2
    800520a4:	e7f5                	bnez	a5,80052190 <ali1_data.1513+0x1190>
    800520a6:	13e8                	addi	a0,sp,492
    800520a8:	050c                	addi	a1,sp,640
    800520aa:	19efffe3          	bgeu	t6,t5,80052a48 <ali1_data.1513+0x1a48>
    800520ae:	f409                	bnez	s0,80051fb8 <ali1_data.1513+0xfb8>
    800520b0:	f1df e8e7 f3f6      	0xf3f6e8e7f1df
    800520b6:	2605                	addiw	a2,a2,1
    800520b8:	f92d                	bnez	a0,8005202a <ali1_data.1513+0x102a>
    800520ba:	de2a290b          	0xde2a290b
    800520be:	ef0a                	sd	sp,408(sp)
    800520c0:	e802                	sd	zero,16(sp)
    800520c2:	0b1ff0fb          	0xb1ff0fb
    800520c6:	e2f6f937          	lui	s2,0xe2f6f
    800520ca:	1005                	c.nop	-31
    800520cc:	1700                	addi	s0,sp,928
    800520ce:	03fa                	slli	t2,t2,0x1e
    800520d0:	d4df fcf0 e2d4      	0xe2d4fcf0d4df
    800520d6:	df17eaf7          	0xdf17eaf7
    800520da:	eef5                	bnez	a3,800521d6 <ali1_data.1513+0x11d6>
    800520dc:	0a04fce7          	0xa04fce7
    800520e0:	ff33ee17          	auipc	t3,0xff33e
    800520e4:	0dfe                	slli	s11,s11,0x1f
    800520e6:	030d                	addi	t1,t1,3
    800520e8:	03ea                	slli	t2,t2,0x1a
    800520ea:	fded                	bnez	a1,800520e4 <ali1_data.1513+0x10e4>
    800520ec:	0cfd                	addi	s9,s9,31
    800520ee:	eade                	sd	s7,336(sp)
    800520f0:	04f0f413          	andi	s0,ra,79
    800520f4:	001a0a33          	add	s4,s4,ra
    800520f8:	d8f0                	sw	a2,116(s1)
    800520fa:	eef2                	sd	t3,344(sp)
    800520fc:	ff18                	sd	a4,56(a4)
    800520fe:	191a                	slli	s2,s2,0x26
    80052100:	0418                	addi	a4,sp,512
    80052102:	0300                	addi	s0,sp,384
    80052104:	ea01                	bnez	a2,80052114 <ali1_data.1513+0x1114>
    80052106:	1df4                	addi	a3,sp,764
    80052108:	f9e9                	bnez	a1,800520da <ali1_data.1513+0x10da>
    8005210a:	ed22ecef          	jal	s9,7ff807dc <__stack_size+0x7ff787dc>
    8005210e:	07f1f50f          	0x7f1f50f
    80052112:	ee0a                	sd	sp,280(sp)
    80052114:	1412                	slli	s0,s0,0x24
    80052116:	f7152cef          	jal	s9,7ffa5086 <__stack_size+0x7ff9d086>
    8005211a:	f909                	bnez	a0,8005202c <ali1_data.1513+0x102c>
    8005211c:	e200f0eb          	0xe200f0eb
    80052120:	000e                	c.slli	zero,0x3
    80052122:	2e12                	fld	ft8,256(sp)
    80052124:	02f409f7          	0x2f409f7
    80052128:	f1fd                	bnez	a1,8005210e <ali1_data.1513+0x110e>
    8005212a:	d110                	sw	a2,32(a0)
    8005212c:	d500                	sw	s0,40(a0)
    8005212e:	0bec08ef          	jal	a7,801121ec <ali3_data.1513+0xbaeec>
    80052132:	f6fc                	sd	a5,232(a3)
    80052134:	e119                	bnez	a0,8005213a <ali1_data.1513+0x113a>
    80052136:	f20a                	sd	sp,288(sp)
    80052138:	4a1e                	lw	s4,196(sp)
    8005213a:	e6fc                	sd	a5,200(a3)
    8005213c:	d9dd                	beqz	a1,800520f2 <ali1_data.1513+0x10f2>
    8005213e:	08e4                	addi	s1,sp,92
    80052140:	f60cfd0b          	0xf60cfd0b
    80052144:	14ed                	addi	s1,s1,-5
    80052146:	08f3061b          	addiw	a2,t1,143
    8005214a:	ee19                	bnez	a2,80052168 <ali1_data.1513+0x1168>
    8005214c:	2a04                	fld	fs1,16(a2)
    8005214e:	e30d17eb          	0xe30d17eb
    80052152:	f23ef0f3          	csrrci	ra,0xf23,29
    80052156:	2305                	addiw	t1,t1,1
    80052158:	1d1c                	addi	a5,sp,688
    8005215a:	ead605fb          	0xead605fb
    8005215e:	1dd4                	addi	a3,sp,756
    80052160:	0a1c                	addi	a5,sp,272
    80052162:	03ee                	slli	t2,t2,0x1b
    80052164:	12d5                	addi	t0,t0,-11
    80052166:	cd15e5e7          	0xcd15e5e7
    8005216a:	2129fae3          	bgeu	s3,s2,80052b7e <ali1_data.1513+0x1b7e>
    8005216e:	18f404ef          	jal	s1,80092afc <ali3_data.1513+0x3b7fc>
    80052172:	0bf5f907          	0xbf5f907
    80052176:	01041aef          	jal	s5,80093186 <ali3_data.1513+0x3be86>
    8005217a:	e90c                	sd	a1,16(a0)
    8005217c:	0bf4                	addi	a3,sp,476
    8005217e:	17fa                	slli	a5,a5,0x3e
    80052180:	def8                	sw	a4,124(a3)
    80052182:	0209                	addi	tp,tp,2
    80052184:	0606e2db          	0x606e2db
    80052188:	ff01                	bnez	a4,800520a0 <ali1_data.1513+0x10a0>
    8005218a:	34fa                	fld	fs1,440(sp)
    8005218c:	35f8                	fld	fa4,232(a1)
    8005218e:	cc18ecdb          	0xcc18ecdb
    80052192:	ee10                	sd	a2,24(a2)
    80052194:	eb0e                	sd	gp,400(sp)
    80052196:	04fc                	addi	a5,sp,588
    80052198:	0cfa                	slli	s9,s9,0x1e
    8005219a:	1104                	addi	s1,sp,160
    8005219c:	f1f1                	bnez	a1,80052160 <ali1_data.1513+0x1160>
    8005219e:	e7d4                	sd	a3,136(a5)
    800521a0:	ff072a0b          	0xff072a0b
    800521a4:	f8ec                	sd	a1,240(s1)
    800521a6:	f4ffeef7          	0xf4ffeef7
    800521aa:	0bfa                	slli	s7,s7,0x1e
    800521ac:	fefe                	sd	t6,376(sp)
    800521ae:	0d0e                	slli	s10,s10,0x3
    800521b0:	0a02                	c.slli64	s4
    800521b2:	150d                	addi	a0,a0,-29
    800521b4:	1cf0                	addi	a2,sp,636
    800521b6:	e8ffefe7          	0xe8ffefe7
    800521ba:	02f9df0f          	0x2f9df0f
    800521be:	eef21bf7          	0xeef21bf7
    800521c2:	04e4                	addi	s1,sp,588
    800521c4:	030e                	slli	t1,t1,0x3
    800521c6:	04cc                	addi	a1,sp,580
    800521c8:	d3e1                	beqz	a5,80052188 <ali1_data.1513+0x1188>
    800521ca:	02f0                	addi	a2,sp,332
    800521cc:	28ec                	fld	fa1,208(s1)
    800521ce:	dd0f0f2b          	0xdd0f0f2b
    800521d2:	d62fd80b          	0xd62fd80b
    800521d6:	00df00db          	0xdf00db
    800521da:	df10                	sw	a2,56(a4)
    800521dc:	ee1207db          	0xee1207db
    800521e0:	ec0e                	sd	gp,24(sp)
    800521e2:	e628                	sd	a0,72(a2)
    800521e4:	fde5                	bnez	a1,800521dc <ali1_data.1513+0x11dc>
    800521e6:	e6ef28e7          	0xe6ef28e7
    800521ea:	f800                	sd	s0,48(s0)
    800521ec:	fa1e                	sd	t2,304(sp)
    800521ee:	1a1e                	slli	s4,s4,0x27
    800521f0:	0f0eda03          	lhu	s4,240(t4)
    800521f4:	fa09                	bnez	a2,80052106 <ali1_data.1513+0x1106>
    800521f6:	15d2                	slli	a1,a1,0x34
    800521f8:	f2ee0d0b          	0xf2ee0d0b
    800521fc:	1d11                	addi	s10,s10,-28
    800521fe:	02f6                	slli	t0,t0,0x1d
    80052200:	dff4                	sw	a3,124(a5)
    80052202:	fe1c08e7          	jalr	a7,-31(s8)
    80052206:	f5de                	sd	s7,232(sp)
    80052208:	e927df27          	0xe927df27
    8005220c:	15f4                	addi	a3,sp,748
    8005220e:	051c                	addi	a5,sp,640
    80052210:	e6ec                	sd	a1,200(a3)
    80052212:	ff10                	sd	a2,56(a4)
    80052214:	e2d1d927          	0xe2d1d927
    80052218:	d6f1                	beqz	a3,800521e4 <ali1_data.1513+0x11e4>
    8005221a:	f8ee                	sd	s11,112(sp)
    8005221c:	04db1f0b          	0x4db1f0b
    80052220:	eaf5                	bnez	a3,80052314 <ali1_data.1513+0x1314>
    80052222:	f536                	sd	a3,168(sp)
    80052224:	1af728cb          	fnmsub.d	fa7,fa4,fa5,ft3,rdn
    80052228:	25e71a03          	lh	s4,606(a4) # 5417e660 <__stack_size+0x54176660>
    8005222c:	e804                	sd	s1,16(s0)
    8005222e:	d7ec                	sw	a1,108(a5)
    80052230:	db21                	beqz	a4,80052180 <ali1_data.1513+0x1180>
    80052232:	dcee                	sw	s11,120(sp)
    80052234:	e4ff                	0xe4ff
    80052236:	1d0e                	slli	s10,s10,0x23
    80052238:	e4f0                	sd	a2,200(s1)
    8005223a:	09e2                	slli	s3,s3,0x18
    8005223c:	2a15                	addiw	s4,s4,5
    8005223e:	f839                	bnez	s0,80052194 <ali1_data.1513+0x1194>
    80052240:	d80d                	beqz	s0,80052172 <ali1_data.1513+0x1172>
    80052242:	f801                	bnez	s0,80052152 <ali1_data.1513+0x1152>
    80052244:	ebfa                	sd	t5,464(sp)
    80052246:	fbff                	0xfbff
    80052248:	2219ede7          	0x2219ede7
    8005224c:	1eda01cf          	fnmadd.q	ft3,fs4,fa3,ft3,rne
    80052250:	071a                	slli	a4,a4,0x6
    80052252:	0fd9                	addi	t6,t6,22
    80052254:	2026                	fld	ft0,72(sp)
    80052256:	11f806e3          	beq	a6,t6,80052b62 <ali1_data.1513+0x1b62>
    8005225a:	1c3234fb          	0x1c3234fb
    8005225e:	e632                	sd	a2,264(sp)
    80052260:	0a0e                	slli	s4,s4,0x3
    80052262:	3cfd1ff3          	csrrw	t6,0x3cf,s10
    80052266:	f51d                	bnez	a0,80052194 <ali1_data.1513+0x1194>
    80052268:	010a                	slli	sp,sp,0x2
    8005226a:	18e1                	addi	a7,a7,-8
    8005226c:	02fc                	addi	a5,sp,332
    8005226e:	211c08ef          	jal	a7,80112c7e <ali3_data.1513+0xbb97e>
    80052272:	d5ef01f3          	0xd5ef01f3
    80052276:	f4c5                	bnez	s1,8005221e <ali1_data.1513+0x121e>
    80052278:	1af2                	slli	s5,s5,0x3c
    8005227a:	14fa                	slli	s1,s1,0x3e
    8005227c:	f0c6                	sd	a7,96(sp)
    8005227e:	060a                	slli	a2,a2,0x2
    80052280:	f204                	sd	s1,32(a2)
    80052282:	f7ff                	0xf7ff
    80052284:	0fed                	addi	t6,t6,27
    80052286:	ef010df7          	0xef010df7
    8005228a:	250a                	fld	fa0,128(sp)
    8005228c:	07e2                	slli	a5,a5,0x18
    8005228e:	1bf4                	addi	a3,sp,508
    80052290:	08e503f7          	0x8e503f7
    80052294:	fa1c                	sd	a5,48(a2)
    80052296:	2fc2                	fld	ft11,16(sp)
    80052298:	16ef20ef          	jal	ra,80144406 <ali3_data.1513+0xed106>
    8005229c:	02f8e607          	0x2f8e607
    800522a0:	19f9                	addi	s3,s3,-2
    800522a2:	d8f2                	sw	t3,112(sp)
    800522a4:	fddddd23          	0xfddddd23
    800522a8:	f029                	bnez	s0,800521ea <ali1_data.1513+0x11ea>
    800522aa:	ffee                	sd	s11,504(sp)
    800522ac:	fe04                	sd	s1,56(a2)
    800522ae:	f8e0                	sd	s0,240(s1)
    800522b0:	f41c06eb          	0xf41c06eb
    800522b4:	07d519db          	0x7d519db
    800522b8:	eb05                	bnez	a4,800522e8 <ali1_data.1513+0x12e8>
    800522ba:	2aff                	0x2aff
    800522bc:	1918fae7          	0x1918fae7
    800522c0:	e319                	bnez	a4,800522c6 <ali1_data.1513+0x12c6>
    800522c2:	f7df 17f0 d907      	0xd90717f0f7df
    800522c8:	e910                	sd	a2,16(a0)
    800522ca:	0c11                	addi	s8,s8,4
    800522cc:	13f2                	slli	t2,t2,0x3c
    800522ce:	d825                	beqz	s0,8005223e <ali1_data.1513+0x123e>
    800522d0:	d9e4                	sw	s1,116(a1)
    800522d2:	efed                	bnez	a5,800523cc <ali1_data.1513+0x13cc>
    800522d4:	f5dd                	bnez	a1,80052282 <ali1_data.1513+0x1282>
    800522d6:	fdd0                	sd	a2,184(a1)
    800522d8:	1eff                	0x1eff
    800522da:	14fe                	slli	s1,s1,0x3f
    800522dc:	20fc                	fld	fa5,192(s1)
    800522de:	f6f8                	sd	a4,232(a3)
    800522e0:	fc12                	sd	tp,56(sp)
    800522e2:	d70c0803          	lb	a6,-656(s8)
    800522e6:	00f2e9eb          	0xf2e9eb
    800522ea:	de0e                	sw	gp,60(sp)
    800522ec:	e42c                	sd	a1,72(s0)
    800522ee:	2216                	fld	ft4,320(sp)
    800522f0:	0208                	addi	a0,sp,256
    800522f2:	3107090b          	0x3107090b
    800522f6:	1af2                	slli	s5,s5,0x3c
    800522f8:	0002                	c.slli64	zero
    800522fa:	08f6                	slli	a7,a7,0x1d
    800522fc:	1e2bfed7          	0x1e2bfed7
    80052300:	fc09                	bnez	s0,8005221a <ali1_data.1513+0x121a>
    80052302:	e4e1                	bnez	s1,800523ca <ali1_data.1513+0x13ca>
    80052304:	fffd                	bnez	a5,80052302 <ali1_data.1513+0x1302>
    80052306:	d726d8d7          	0xd726d8d7
    8005230a:	f8ea                	sd	s10,112(sp)
    8005230c:	de2c                	sw	a1,120(a2)
    8005230e:	f83e                	sd	a5,48(sp)
    80052310:	ce09                	beqz	a2,8005232a <ali1_data.1513+0x132a>
    80052312:	e6ee                	sd	s11,328(sp)
    80052314:	f805                	bnez	s0,80052244 <ali1_data.1513+0x1244>
    80052316:	2af2                	fld	fs5,280(sp)
    80052318:	0ef8                	addi	a4,sp,860
    8005231a:	0f12                	slli	t5,t5,0x4
    8005231c:	1ce1                	addi	s9,s9,-8
    8005231e:	df21                	beqz	a4,80052276 <ali1_data.1513+0x1276>
    80052320:	0408                	addi	a0,sp,512
    80052322:	e2fd                	bnez	a3,80052408 <ali1_data.1513+0x1408>
    80052324:	3e15                	addiw	t3,t3,-27
    80052326:	1ad1                	addi	s5,s5,-12
    80052328:	f305                	bnez	a4,80052248 <ali1_data.1513+0x1248>
    8005232a:	fd1d1e23          	sh	a7,-36(s10)
    8005232e:	f5f8                	sd	a4,232(a1)
    80052330:	1720d60b          	0x1720d60b
    80052334:	0822                	slli	a6,a6,0x8
    80052336:	1a0bf313          	andi	t1,s7,416
    8005233a:	1802                	slli	a6,a6,0x20
    8005233c:	16cd                	addi	a3,a3,-13
    8005233e:	f2fddc17          	auipc	s8,0xf2fdd
    80052342:	0611                	addi	a2,a2,4
    80052344:	f6e2                	sd	s8,360(sp)
    80052346:	f5e0                	sd	s0,232(a1)
    80052348:	1df4                	addi	a3,sp,764
    8005234a:	fff9                	bnez	a5,80052328 <ali1_data.1513+0x1328>
    8005234c:	f02e                	sd	a1,32(sp)
    8005234e:	0211                	addi	tp,tp,4
    80052350:	f4ec                	sd	a1,232(s1)
    80052352:	e209                	bnez	a2,80052354 <ali1_data.1513+0x1354>
    80052354:	05ea                	slli	a1,a1,0x1a
    80052356:	0a1206c7          	fmsub.d	fa3,ft4,ft1,ft1,rne
    8005235a:	f0e6df07          	0xf0e6df07
    8005235e:	f0fc                	sd	a5,224(s1)
    80052360:	1affeaf7          	0x1affeaf7
    80052364:	0eea                	slli	t4,t4,0x1a
    80052366:	d508                	sw	a0,40(a0)
    80052368:	15e5                	addi	a1,a1,-7
    8005236a:	1c2529ef          	jal	s3,800a452c <ali3_data.1513+0x4d22c>
    8005236e:	e520                	sd	s0,72(a0)
    80052370:	f6fe                	sd	t6,360(sp)
    80052372:	df1f 07d8 1af3      	0x1af307d8df1f
    80052378:	f4f3c907          	flq	fs2,-177(t2)
    8005237c:	210e                	fld	ft2,192(sp)
    8005237e:	f82c                	sd	a1,112(s0)
    80052380:	e3dc                	sd	a5,128(a5)
    80052382:	18c70a23          	sb	a2,404(a4)
    80052386:	1ffd                	addi	t6,t6,-1
    80052388:	0700                	addi	s0,sp,896
    8005238a:	eede                	sd	s7,344(sp)
    8005238c:	26f6                	fld	fa3,344(sp)
    8005238e:	fe25                	bnez	a2,80052306 <ali1_data.1513+0x1306>
    80052390:	e811                	bnez	s0,800523a4 <ali1_data.1513+0x13a4>
    80052392:	15f1e203          	lwu	tp,351(gp) # 80003cdf <__global_pointer$+0x15f>
    80052396:	00c1                	addi	ra,ra,16
    80052398:	e7e4                	sd	s1,200(a5)
    8005239a:	df2e                	sw	a1,188(sp)
    8005239c:	141c                	addi	a5,sp,544
    8005239e:	0c2c                	addi	a1,sp,536
    800523a0:	da05                	beqz	a2,800522d0 <ali1_data.1513+0x12d0>
    800523a2:	090bedfb          	0x90bedfb
    800523a6:	0d18                	addi	a4,sp,656
    800523a8:	0eed                	addi	t4,t4,27
    800523aa:	14f2                	slli	s1,s1,0x3c
    800523ac:	e2d5                	bnez	a3,80052450 <ali1_data.1513+0x1450>
    800523ae:	23e7ee2f          	0x23e7ee2f
    800523b2:	221c                	fld	fa5,0(a2)
    800523b4:	23ff                	0x23ff
    800523b6:	f1ed                	bnez	a1,80052398 <ali1_data.1513+0x1398>
    800523b8:	29ec                	fld	fa1,208(a1)
    800523ba:	fbde                	sd	s7,496(sp)
    800523bc:	07fc                	addi	a5,sp,972
    800523be:	d536                	sw	a3,168(sp)
    800523c0:	dc09                	beqz	s0,800522da <ali1_data.1513+0x12da>
    800523c2:	00ee                	slli	ra,ra,0x1b
    800523c4:	10210103          	lb	sp,258(sp)
    800523c8:	f304f7fb          	0xf304f7fb
    800523cc:	0d18                	addi	a4,sp,656
    800523ce:	061a                	slli	a2,a2,0x6
    800523d0:	f8e5                	bnez	s1,800523c0 <ali1_data.1513+0x13c0>
    800523d2:	1af5f32b          	0x1af5f32b
    800523d6:	14d9                	addi	s1,s1,-10
    800523d8:	05e2                	slli	a1,a1,0x18
    800523da:	1d1e                	slli	s10,s10,0x27
    800523dc:	1910                	addi	a2,sp,176
    800523de:	0609                	addi	a2,a2,2
    800523e0:	1fe6                	slli	t6,t6,0x39
    800523e2:	e1fff21b          	0xe1fff21b
    800523e6:	e4c8                	sd	a0,136(s1)
    800523e8:	1c0c                	addi	a1,sp,560
    800523ea:	10f4                	addi	a3,sp,108
    800523ec:	21c9                	addiw	gp,gp,18
    800523ee:	0efe                	slli	t4,t4,0x1f
    800523f0:	fbe8                	sd	a0,240(a5)
    800523f2:	21ea                	fld	ft3,152(sp)
    800523f4:	f8f1                	bnez	s1,800523c8 <ali1_data.1513+0x13c8>
    800523f6:	0eec                	addi	a1,sp,860
    800523f8:	f7e2e017          	auipc	zero,0xf7e2e
    800523fc:	ee3c                	sd	a5,88(a2)
    800523fe:	0c26                	slli	s8,s8,0x9
    80052400:	fa0c2303          	lw	t1,-96(s8) # 7302f2de <__stack_size+0x730272de>
    80052404:	07fae0eb          	0x7fae0eb
    80052408:	12fc                	addi	a5,sp,364
    8005240a:	e81e                	sd	t2,16(sp)
    8005240c:	0429                	addi	s0,s0,10
    8005240e:	f508                	sd	a0,40(a0)
    80052410:	0be1                	addi	s7,s7,24
    80052412:	10de                	slli	ra,ra,0x37
    80052414:	1db8                	addi	a4,sp,760
    80052416:	f6e8                	sd	a0,232(a3)
    80052418:	fbf9                	bnez	a5,800523ee <ali1_data.1513+0x13ee>
    8005241a:	fe1e                	sd	t2,312(sp)
    8005241c:	1810                	addi	a2,sp,48
    8005241e:	0be9                	addi	s7,s7,26
    80052420:	010e                	slli	sp,sp,0x3
    80052422:	01f8                	addi	a4,sp,204
    80052424:	22ec                	fld	fa1,192(a3)
    80052426:	03e8                	addi	a0,sp,460
    80052428:	e51f edf1 18e2      	0x18e2edf1e51f
    8005242e:	e60c02f7          	0xe60c02f7
    80052432:	03faeb03          	lwu	s6,63(s5)
    80052436:	1d05                	addi	s10,s10,-31
    80052438:	d5f4                	sw	a3,108(a1)
    8005243a:	26f0                	fld	fa2,200(a3)
    8005243c:	194c2247          	fmsub.s	ft4,fs8,fs4,ft3,rdn
    80052440:	21e8                	fld	fa0,192(a1)
    80052442:	cdfe                	sw	t6,216(sp)
    80052444:	01ea                	slli	gp,gp,0x1a
    80052446:	fb0a                	sd	sp,432(sp)
    80052448:	0be8                	addi	a0,sp,476
    8005244a:	1914                	addi	a3,sp,176
    8005244c:	1202de23          	0x1202de23
    80052450:	dd12                	sw	tp,184(sp)
    80052452:	fff2                	sd	t3,504(sp)
    80052454:	f7d2                	sd	s4,488(sp)
    80052456:	fae9d6fb          	0xfae9d6fb
    8005245a:	1709                	addi	a4,a4,-30
    8005245c:	fcd4                	sd	a3,184(s1)
    8005245e:	16ec                	addi	a1,sp,876
    80052460:	cefa                	sw	t5,92(sp)
    80052462:	e6f2                	sd	t3,328(sp)
    80052464:	24ec                	fld	fa1,200(s1)
    80052466:	fad9                	bnez	a3,800523fc <ali1_data.1513+0x13fc>
    80052468:	021e                	slli	tp,tp,0x7
    8005246a:	f7d2ecdb          	0xf7d2ecdb
    8005246e:	0009                	c.nop	2
    80052470:	f909                	bnez	a0,80052382 <ali1_data.1513+0x1382>
    80052472:	0e00                	addi	s0,sp,784
    80052474:	0b2e                	slli	s6,s6,0xb
    80052476:	f206                	sd	ra,288(sp)
    80052478:	e0f2                	sd	t3,64(sp)
    8005247a:	1ef0                	addi	a2,sp,892
    8005247c:	ee35                	bnez	a2,800524f8 <ali1_data.1513+0x14f8>
    8005247e:	1b24                	addi	s1,sp,440
    80052480:	0f0c                	addi	a1,sp,912
    80052482:	f602                	sd	zero,296(sp)
    80052484:	f0da                	sd	s6,96(sp)
    80052486:	06dd                	addi	a3,a3,23
    80052488:	f921f803          	0xf921f803
    8005248c:	0f000e13          	li	t3,240
    80052490:	f704                	sd	s1,40(a4)
    80052492:	0a04                	addi	s1,sp,272
    80052494:	11ec                	addi	a1,sp,236
    80052496:	00e90d0b          	0xe90d0b
    8005249a:	eae9                	bnez	a3,8005256c <ali1_data.1513+0x156c>
    8005249c:	fdde                	sd	s7,248(sp)
    8005249e:	edde                	sd	s7,216(sp)
    800524a0:	f9e9                	bnez	a1,80052472 <ali1_data.1513+0x1472>
    800524a2:	d319dc23          	0xd319dc23
    800524a6:	0424                	addi	s1,sp,520
    800524a8:	f6f8                	sd	a4,232(a3)
    800524aa:	f815                	bnez	s0,800523de <ali1_data.1513+0x13de>
    800524ac:	0b11                	addi	s6,s6,4
    800524ae:	1e31                	addi	t3,t3,-20
    800524b0:	0d25fc0b          	0xd25fc0b
    800524b4:	22f1                	addiw	t0,t0,28
    800524b6:	f9ea                	sd	s10,240(sp)
    800524b8:	d910                	sw	a2,48(a0)
    800524ba:	0ee8                	addi	a0,sp,860
    800524bc:	260b1b13          	0x260b1b13
    800524c0:	e90c                	sd	a1,16(a0)
    800524c2:	15dafa07          	0x15dafa07
    800524c6:	ea24                	sd	s1,80(a2)
    800524c8:	0efc                	addi	a5,sp,860
    800524ca:	0312                	slli	t1,t1,0x4
    800524cc:	fadf 040c 1cf4      	0x1cf4040cfadf
    800524d2:	d60b000f          	0xd60b000f
    800524d6:	e4e4                	sd	s1,200(s1)
    800524d8:	2410                	fld	fa2,8(s0)
    800524da:	0522                	slli	a0,a0,0x8
    800524dc:	e4eb0bf7          	0xe4eb0bf7
    800524e0:	d720200f          	0xd720200f
    800524e4:	1b1a110f          	0x1b1a110f
    800524e8:	f5e8                	sd	a0,232(a1)
    800524ea:	23f5                	addiw	t2,t2,29
    800524ec:	031e                	slli	t1,t1,0x7
    800524ee:	0b02e737          	lui	a4,0xb02e
    800524f2:	e6e4                	sd	s1,200(a3)
    800524f4:	25fc                	fld	fa5,200(a1)
    800524f6:	e8fbe1f7          	0xe8fbe1f7
    800524fa:	e604                	sd	s1,8(a2)
    800524fc:	f715                	bnez	a4,80052428 <ali1_data.1513+0x1428>
    800524fe:	feec                	sd	a1,248(a3)
    80052500:	e70c                	sd	a1,8(a4)
    80052502:	d70e                	sw	gp,172(sp)
    80052504:	cd0d1017          	auipc	zero,0xcd0d1
    80052508:	e1fa                	sd	t5,192(sp)
    8005250a:	1506                	slli	a0,a0,0x21
    8005250c:	0112                	slli	sp,sp,0x4
    8005250e:	0310                	addi	a2,sp,384
    80052510:	f6f5                	bnez	a3,800524fc <ali1_data.1513+0x14fc>
    80052512:	06e5                	addi	a3,a3,25
    80052514:	ea0c1bd7          	0xea0c1bd7
    80052518:	dc0e                	sw	gp,56(sp)
    8005251a:	1b12                	slli	s6,s6,0x24
    8005251c:	f5fe                	sd	t6,232(sp)
    8005251e:	1d0414f7          	0x1d0414f7
    80052522:	fe0cfaef          	jal	s5,80021d02 <__global_pointer$+0x1e182>
    80052526:	07f2                	slli	a5,a5,0x1c
    80052528:	e61c                	sd	a5,8(a2)
    8005252a:	2211                	addiw	tp,tp,4
    8005252c:	db38                	sw	a4,112(a4)
    8005252e:	1013082f          	0x1013082f
    80052532:	0ef7f3f7          	0xef7f3f7
    80052536:	fbfa                	sd	t5,496(sp)
    80052538:	e0ff                	0xe0ff
    8005253a:	02e4                	addi	s1,sp,332
    8005253c:	1fd7f02f          	0x1fd7f02f
    80052540:	e822f9e3          	bgeu	t0,sp,800523d2 <ali1_data.1513+0x13d2>
    80052544:	e00e                	sd	gp,0(sp)
    80052546:	f8ffe1f3          	csrrsi	gp,0xf8f,31
    8005254a:	2124                	fld	fs1,64(a0)
    8005254c:	0d03012b          	0xd03012b
    80052550:	2401ee0f          	0x2401ee0f
    80052554:	f50a                	sd	sp,168(sp)
    80052556:	0219                	addi	tp,tp,6
    80052558:	07ee                	slli	a5,a5,0x1b
    8005255a:	0cf1                	addi	s9,s9,28
    8005255c:	15d8                	addi	a4,sp,740
    8005255e:	df10                	sw	a2,56(a4)
    80052560:	f7daef17          	auipc	t5,0xf7dae
    80052564:	0302                	c.slli64	t1
    80052566:	e8f4                	sd	a3,208(s1)
    80052568:	11e2d5ef          	jal	a1,8007f686 <ali3_data.1513+0x28386>
    8005256c:	d7160b1b          	addiw	s6,a2,-655
    80052570:	1d0c                	addi	a1,sp,688
    80052572:	011a                	slli	sp,sp,0x6
    80052574:	1516                	slli	a0,a0,0x25
    80052576:	d51effd3          	0xd51effd3
    8005257a:	0e2c                	addi	a1,sp,792
    8005257c:	42d6170f          	0x42d6170f
    80052580:	f3f1                	bnez	a5,80052544 <ali1_data.1513+0x1544>
    80052582:	e021                	bnez	s0,800525c2 <ali1_data.1513+0x15c2>
    80052584:	f9ec                	sd	a1,240(a1)
    80052586:	09dc                	addi	a5,sp,212
    80052588:	d016                	sw	t0,32(sp)
    8005258a:	09fa                	slli	s3,s3,0x1e
    8005258c:	14f6                	slli	s1,s1,0x3d
    8005258e:	0f08                	addi	a0,sp,912
    80052590:	2d06                	fld	fs10,64(sp)
    80052592:	09ea                	slli	s3,s3,0x1a
    80052594:	e1f8                	sd	a4,192(a1)
    80052596:	e919                	bnez	a0,800525ac <ali1_data.1513+0x15ac>
    80052598:	0fd9                	addi	t6,t6,22
    8005259a:	f404                	sd	s1,40(s0)
    8005259c:	02f1                	addi	t0,t0,28
    8005259e:	06ff                	0x6ff
    800525a0:	ddf6                	sw	t4,248(sp)
    800525a2:	0f13ecd7          	0xf13ecd7
    800525a6:	00f0                	addi	a2,sp,76
    800525a8:	d8e4                	sw	s1,116(s1)
    800525aa:	2cff                	0x2cff
    800525ac:	e038f5fb          	0xe038f5fb
    800525b0:	e91c                	sd	a5,16(a0)
    800525b2:	20d915e7          	0x20d915e7
    800525b6:	20dd                	addiw	ra,ra,23
    800525b8:	d3e5                	beqz	a5,80052598 <ali1_data.1513+0x1598>
    800525ba:	dff4                	sw	a3,124(a5)
    800525bc:	0bff                	0xbff
    800525be:	21d1                	addiw	gp,gp,20
    800525c0:	fd08                	sd	a0,56(a0)
    800525c2:	f70e                	sd	gp,424(sp)
    800525c4:	ff06                	sd	ra,440(sp)
    800525c6:	ed290bef          	jal	s7,7ffe2c98 <__stack_size+0x7ffdac98>
    800525ca:	1019                	c.nop	-26
    800525cc:	21dd                	addiw	gp,gp,23
    800525ce:	27cd                	addiw	a5,a5,19
    800525d0:	1fee                	slli	t6,t6,0x3b
    800525d2:	f5f8                	sd	a4,232(a1)
    800525d4:	0905                	addi	s2,s2,1
    800525d6:	e1fe                	sd	t6,192(sp)
    800525d8:	0a0c                	addi	a1,sp,272
    800525da:	ec0d                	bnez	s0,80052614 <ali1_data.1513+0x1614>
    800525dc:	da02                	sw	zero,52(sp)
    800525de:	e3fe                	sd	t6,448(sp)
    800525e0:	0de8efeb          	0xde8efeb
    800525e4:	dff8                	sw	a4,124(a5)
    800525e6:	e31616eb          	0xe31616eb
    800525ea:	f6ce                	sd	s3,360(sp)
    800525ec:	e810                	sd	a2,16(s0)
    800525ee:	20f3e003          	lwu	zero,527(t2)
    800525f2:	0d1c                	addi	a5,sp,656
    800525f4:	290e                	fld	fs2,192(sp)
    800525f6:	0016                	c.slli	zero,0x5
    800525f8:	f0dd                	bnez	s1,8005259e <ali1_data.1513+0x159e>
    800525fa:	10f0                	addi	a2,sp,108
    800525fc:	1a04                	addi	s1,sp,304
    800525fe:	f035                	bnez	s0,80052562 <ali1_data.1513+0x1562>
    80052600:	ef17f2eb          	0xef17f2eb
    80052604:	04f6                	slli	s1,s1,0x1d
    80052606:	251e                	fld	fa0,448(sp)
    80052608:	04e6                	slli	s1,s1,0x19
    8005260a:	f010                	sd	a2,32(s0)
    8005260c:	1bed                	addi	s7,s7,-5
    8005260e:	1701ef03          	lwu	t5,368(gp) # 80003cf0 <__global_pointer$+0x170>
    80052612:	1bf5                	addi	s7,s7,-3
    80052614:	2c22                	fld	fs8,8(sp)
    80052616:	fa26                	sd	s1,304(sp)
    80052618:	241a                	fld	fs0,384(sp)
    8005261a:	e808                	sd	a0,16(s0)
    8005261c:	e506                	sd	ra,136(sp)
    8005261e:	37da                	fld	fa5,432(sp)
    80052620:	0dfce80b          	0xdfce80b
    80052624:	d5e6                	sw	s9,232(sp)
    80052626:	eedb1327          	0xeedb1327
    8005262a:	cf1ad7cb          	fnmsub.q	fa5,fs5,fa7,fs9,unknown
    8005262e:	faf6                	sd	t4,368(sp)
    80052630:	f5fd                	bnez	a1,8005261e <ali1_data.1513+0x161e>
    80052632:	1cf60bfb          	0x1cf60bfb
    80052636:	fdfa                	sd	t5,248(sp)
    80052638:	32fa                	fld	ft5,440(sp)
    8005263a:	1218                	addi	a4,sp,288
    8005263c:	edf8                	sd	a4,216(a1)
    8005263e:	06f0                	addi	a2,sp,844
    80052640:	da08                	sw	a0,48(a2)
    80052642:	ce0e                	sw	gp,28(sp)
    80052644:	d9ec                	sw	a1,116(a1)
    80052646:	00f2                	slli	ra,ra,0x1c
    80052648:	f710                	sd	a2,40(a4)
    8005264a:	cef6                	sw	t4,92(sp)
    8005264c:	de11                	beqz	a2,80052568 <ali1_data.1513+0x1568>
    8005264e:	07ec                	addi	a1,sp,972
    80052650:	f5f2                	sd	t3,232(sp)
    80052652:	1601                	addi	a2,a2,-32
    80052654:	d2140d3f dae5e7dd 	0xdae5e7ddd2140d3f
    8005265c:	df06                	sw	ra,188(sp)
    8005265e:	11e1                	addi	gp,gp,-8
    80052660:	040ae3fb          	0x40ae3fb
    80052664:	2409                	addiw	s0,s0,2
    80052666:	1afa                	slli	s5,s5,0x3e
    80052668:	0403060f          	0x403060f
    8005266c:	0810180f          	0x810180f
    80052670:	eaec0cf3          	0xeaec0cf3
    80052674:	faf1                	bnez	a3,80052648 <ali1_data.1513+0x1648>
    80052676:	e4d4                	sd	a3,136(s1)
    80052678:	16e02327          	fsw	fa4,358(zero) # 166 <__stack_align+0x156>
    8005267c:	1a14                	addi	a3,sp,304
    8005267e:	e61108eb          	0xe61108eb
    80052682:	d1fd                	beqz	a1,80052668 <ali1_data.1513+0x1668>
    80052684:	ddfa                	sw	t5,248(sp)
    80052686:	12e5                	addi	t0,t0,-7
    80052688:	dc10                	sw	a2,56(s0)
    8005268a:	d6dc                	sw	a5,44(a3)
    8005268c:	010c06ef          	jal	a3,8011269c <ali3_data.1513+0xbb39c>
    80052690:	e41e                	sd	t2,8(sp)
    80052692:	ebff                	0xebff
    80052694:	f3f80313          	addi	t1,a6,-193
    80052698:	def6                	sw	t4,124(sp)
    8005269a:	d7d1                	beqz	a5,80052626 <ali1_data.1513+0x1626>
    8005269c:	f8e5f123          	0xf8e5f123
    800526a0:	e000                	sd	s0,0(s0)
    800526a2:	f10e                	sd	gp,160(sp)
    800526a4:	ecc5                	bnez	s1,8005275c <ali1_data.1513+0x175c>
    800526a6:	19f2                	slli	s3,s3,0x3c
    800526a8:	e3e2                	sd	s8,448(sp)
    800526aa:	eb02                	sd	zero,400(sp)
    800526ac:	f40e                	sd	gp,40(sp)
    800526ae:	0908db1b          	0x908db1b
    800526b2:	e1d4                	sd	a3,128(a1)
    800526b4:	df20                	sw	s0,120(a4)
    800526b6:	f5ec                	sd	a1,232(a1)
    800526b8:	0801                	addi	a6,a6,0
    800526ba:	1409                	addi	s0,s0,-30
    800526bc:	1006                	c.slli	zero,0x21
    800526be:	f1e2f80f          	0xf1e2f80f
    800526c2:	d301                	beqz	a4,800525c2 <ali1_data.1513+0x15c2>
    800526c4:	e722                	sd	s0,392(sp)
    800526c6:	f6fd                	bnez	a3,800526b4 <ali1_data.1513+0x16b4>
    800526c8:	0f10                	addi	a2,sp,912
    800526ca:	07ea111b          	0x7ea111b
    800526ce:	271a                	fld	fa4,384(sp)
    800526d0:	02dfe417          	auipc	s0,0x2dfe
    800526d4:	fa00                	sd	s0,48(a2)
    800526d6:	e20c0313          	addi	t1,s8,-480
    800526da:	e3fd                	bnez	a5,800527c0 <ali1_data.1513+0x17c0>
    800526dc:	d11c                	sw	a5,32(a0)
    800526de:	020e03ef          	jal	t2,801326fe <ali3_data.1513+0xdb3fe>
    800526e2:	e604                	sd	s1,8(a2)
    800526e4:	eeee1703          	lh	a4,-274(t3) # 7f38ffce <__stack_size+0x7f387fce>
    800526e8:	1a132107          	flw	ft2,417(t1)
    800526ec:	0911dde7          	0x911dde7
    800526f0:	101a                	c.slli	zero,0x26
    800526f2:	eaf6                	sd	t4,336(sp)
    800526f4:	ea0a                	sd	sp,272(sp)
    800526f6:	ed08                	sd	a0,24(a0)
    800526f8:	03cc                	addi	a1,sp,452
    800526fa:	eefffefb          	0xeefffefb
    800526fe:	1e0a                	slli	t3,t3,0x22
    80052700:	17ee16d3          	fmul.q	fa3,ft8,ft10,rtz
    80052704:	16f4                	addi	a3,sp,876
    80052706:	2411d707          	0x2411d707
    8005270a:	ee0a                	sd	sp,280(sp)
    8005270c:	3306                	fld	ft6,96(sp)
    8005270e:	d4db0aef          	jal	s5,8000345a <ram_addr+0x7a>
    80052712:	e5dc                	sd	a5,136(a1)
    80052714:	e0de                	sd	s7,64(sp)
    80052716:	eaea                	sd	s10,336(sp)
    80052718:	ffe9                	bnez	a5,800526f2 <ali1_data.1513+0x16f2>
    8005271a:	e5dc                	sd	a5,136(a1)
    8005271c:	0f1c13f7          	0xf1c13f7
    80052720:	dd0a                	sw	sp,184(sp)
    80052722:	dce0                	sw	s0,124(s1)
    80052724:	08f0ea03          	lwu	s4,143(ra)
    80052728:	f91d                	bnez	a0,8005265e <ali1_data.1513+0x165e>
    8005272a:	e2e0                	sd	s0,192(a3)
    8005272c:	f6de                	sd	s7,360(sp)
    8005272e:	2adf 25eb 24f8      	0x24f825eb2adf
    80052734:	cd062a17          	auipc	s4,0xcd062
    80052738:	ede2                	sd	s8,216(sp)
    8005273a:	2e0a                	fld	ft8,128(sp)
    8005273c:	cb262d07          	flw	fs10,-846(a2) # 6eed192e <__stack_size+0x6eec992e>
    80052740:	e9fbe603          	lwu	a2,-353(s7)
    80052744:	f806                	sd	ra,48(sp)
    80052746:	250a                	fld	fa0,128(sp)
    80052748:	0a04                	addi	s1,sp,272
    8005274a:	fd01                	bnez	a0,80052662 <ali1_data.1513+0x1662>
    8005274c:	050e                	slli	a0,a0,0x3
    8005274e:	1dfb1df3          	csrrw	s11,0x1df,s6
    80052752:	dbe1                	beqz	a5,80052722 <ali1_data.1513+0x1722>
    80052754:	db36                	sw	a3,180(sp)
    80052756:	0710                	addi	a2,sp,896
    80052758:	f4090f03          	lb	t5,-192(s2) # ffffffffe2f6ef40 <ali3_data.1513+0xffffffff62f17c40>
    8005275c:	13dc                	addi	a5,sp,484
    8005275e:	fc1c2513          	slti	a0,s8,-63
    80052762:	201f 1f00 0135      	0x1351f00201f
    80052768:	fd1f cdf5 e023      	0xe023cdf5fd1f
    8005276e:	f802                	sd	zero,48(sp)
    80052770:	09ed                	addi	s3,s3,27
    80052772:	efe6                	sd	s9,472(sp)
    80052774:	011a                	slli	sp,sp,0x6
    80052776:	f7c6                	sd	a7,488(sp)
    80052778:	141f c9eb ffed      	0xffedc9eb141f
    8005277e:	0f0501cf          	fnmadd.q	ft3,fa0,fa6,ft1,rne
    80052782:	04f50f23          	sb	a5,94(a0)
    80052786:	ff04f8ef          	jal	a7,7ffa1f76 <__stack_size+0x7ff99f76>
    8005278a:	c104                	sw	s1,0(a0)
    8005278c:	2a0bdcf7          	0x2a0bdcf7
    80052790:	ddde03f3          	0xddde03f3
    80052794:	d12e                	sw	a1,160(sp)
    80052796:	02ea11f7          	0x2ea11f7
    8005279a:	f40d                	bnez	s0,800526c4 <ali1_data.1513+0x16c4>
    8005279c:	dedd                	beqz	a3,8005275a <ali1_data.1513+0x175a>
    8005279e:	41d4                	lw	a3,4(a1)
    800527a0:	f111                	bnez	a0,800526a4 <ali1_data.1513+0x16a4>
    800527a2:	2c1d                	addiw	s8,s8,7
    800527a4:	26e0                	fld	fs0,200(a3)
    800527a6:	ec1d                	bnez	s0,800527e4 <ali1_data.1513+0x17e4>
    800527a8:	e5dd                	bnez	a1,80052856 <ali1_data.1513+0x1856>
    800527aa:	e2fd                	bnez	a3,80052890 <ali1_data.1513+0x1890>
    800527ac:	fcfc                	sd	a5,248(s1)
    800527ae:	1d0d                	addi	s10,s10,-29
    800527b0:	05ed                	addi	a1,a1,27
    800527b2:	d3c9                	beqz	a5,80052734 <ali1_data.1513+0x1734>
    800527b4:	cce5                	beqz	s1,800528ac <ali1_data.1513+0x18ac>
    800527b6:	192d0cd7          	0x192d0cd7
    800527ba:	b9d6                	fsd	fs5,240(sp)
    800527bc:	00ec                	addi	a1,sp,76
    800527be:	20e6                	fld	ft1,88(sp)
    800527c0:	08e6ea0f          	0x8e6ea0f
    800527c4:	1deee807          	0x1deee807
    800527c8:	e619                	bnez	a2,800527d6 <ali1_data.1513+0x17d6>
    800527ca:	0e22                	slli	t3,t3,0x8
    800527cc:	0704                	addi	s1,sp,896
    800527ce:	2b11                	addiw	s6,s6,4
    800527d0:	f81e                	sd	t2,48(sp)
    800527d2:	a9ba                	fsd	fa4,208(sp)
    800527d4:	f32a                	sd	a0,416(sp)
    800527d6:	0805                	addi	a6,a6,1
    800527d8:	f90c                	sd	a1,48(a0)
    800527da:	fa0904e3          	beqz	s2,80052782 <ali1_data.1513+0x1782>
    800527de:	2819                	addiw	a6,a6,6
    800527e0:	fe15                	bnez	a2,8005271c <ali1_data.1513+0x171c>
    800527e2:	decd                	beqz	a3,8005279c <ali1_data.1513+0x179c>
    800527e4:	26f5                	addiw	a3,a3,29
    800527e6:	08ea                	slli	a7,a7,0x1a
    800527e8:	f4dc                	sd	a5,168(s1)
    800527ea:	e900                	sd	s0,16(a0)
    800527ec:	e7fe                	sd	t6,456(sp)
    800527ee:	f90a                	sd	sp,176(sp)
    800527f0:	0b1e                	slli	s6,s6,0x7
    800527f2:	e2ee                	sd	s11,320(sp)
    800527f4:	19fcf317          	auipc	t1,0x19fcf
    800527f8:	f722                	sd	s0,424(sp)
    800527fa:	f8ffdee7          	0xf8ffdee7
    800527fe:	f8e0                	sd	s0,240(s1)
    80052800:	f3d2                	sd	s4,480(sp)
    80052802:	f0e9c503          	lbu	a0,-242(s3)
    80052806:	19ea                	slli	s3,s3,0x3a
    80052808:	2406                	fld	fs0,64(sp)
    8005280a:	33fe0d2f          	0x33fe0d2f
    8005280e:	21f9                	addiw	gp,gp,30
    80052810:	f710                	sd	a2,40(a4)
    80052812:	adc8                	fsd	fa0,152(a1)
    80052814:	cf32                	sw	a2,156(sp)
    80052816:	dfdc                	sw	a5,60(a5)
    80052818:	f116                	sd	t0,160(sp)
    8005281a:	f1e1                	bnez	a1,800527da <ali1_data.1513+0x17da>
    8005281c:	21f0f307          	0x21f0f307
    80052820:	f1f8                	sd	a4,224(a1)
    80052822:	bdc2                	fsd	fa6,248(sp)
    80052824:	fe21                	bnez	a2,8005277c <ali1_data.1513+0x177c>
    80052826:	db14                	sw	a3,48(a4)
    80052828:	e9dd14f7          	0xe9dd14f7
    8005282c:	f512f723          	0xf512f723
    80052830:	ecf4                	sd	a3,216(s1)
    80052832:	fa24                	sd	s1,112(a2)
    80052834:	1d14                	addi	a3,sp,688
    80052836:	19f4                	addi	a3,sp,252
    80052838:	f9f8                	sd	a4,240(a1)
    8005283a:	d70400e3          	beq	s0,a6,8005259a <ali1_data.1513+0x159a>
    8005283e:	ed0a                	sd	sp,152(sp)
    80052840:	fee0                	sd	s0,248(a3)
    80052842:	cb05                	beqz	a4,80052872 <ali1_data.1513+0x1872>
    80052844:	fafd                	bnez	a3,8005283a <ali1_data.1513+0x183a>
    80052846:	f50e                	sd	gp,168(sp)
    80052848:	06f5                	addi	a3,a3,29
    8005284a:	1a09                	addi	s4,s4,-30
    8005284c:	13f31d07          	0x13f31d07
    80052850:	dbd9                	beqz	a5,800527e6 <ali1_data.1513+0x17e6>
    80052852:	eb07edb7          	lui	s11,0xeb07e
    80052856:	00de                	slli	ra,ra,0x17
    80052858:	0ef2                	slli	t4,t4,0x1c
    8005285a:	05fa                	slli	a1,a1,0x1e
    8005285c:	1bf0                	addi	a2,sp,508
    8005285e:	e012                	sd	tp,0(sp)
    80052860:	e6f0f80b          	0xe6f0f80b
    80052864:	f7f6                	sd	t4,488(sp)
    80052866:	f3150427          	0xf3150427
    8005286a:	ef07f207          	0xef07f207
    8005286e:	14d5                	addi	s1,s1,-11
    80052870:	ffe0                	sd	s0,248(a5)
    80052872:	38ede40b          	0x38ede40b
    80052876:	f916                	sd	t0,176(sp)
    80052878:	e6e1                	bnez	a3,80052940 <ali1_data.1513+0x1940>
    8005287a:	4ae0fefb          	0x4ae0fefb
    8005287e:	d521                	beqz	a0,800527c6 <ali1_data.1513+0x17c6>
    80052880:	efe802e7          	jalr	t0,-258(a6)
    80052884:	fd25                	bnez	a0,800527fc <ali1_data.1513+0x17fc>
    80052886:	1d1f 1609 0e01      	0xe0116091d1f
    8005288c:	daff                	0xdaff
    8005288e:	2ee5                	addiw	t4,t4,25
    80052890:	c2d8fe23          	0xc2d8fe23
    80052894:	ecfc                	sd	a5,216(s1)
    80052896:	fbe2                	sd	s8,496(sp)
    80052898:	0fe0                	addi	s0,sp,988
    8005289a:	0f00                	addi	s0,sp,912
    8005289c:	19fa                	slli	s3,s3,0x3e
    8005289e:	14e3ddf7          	0x14e3ddf7
    800528a2:	2ffc                	fld	fa5,216(a5)
    800528a4:	54de                	lw	s1,244(sp)
    800528a6:	f1f8f43f c8fbea28 	0xc8fbea28f1f8f43f
    800528ae:	3405                	addiw	s0,s0,-31
    800528b0:	ed19                	bnez	a0,800528ce <ali1_data.1513+0x18ce>
    800528b2:	f5f4                	sd	a3,232(a1)
    800528b4:	13d3e40b          	0x13d3e40b
    800528b8:	f21d                	bnez	a2,800527de <ali1_data.1513+0x17de>
    800528ba:	cafd                	beqz	a3,800529b0 <ali1_data.1513+0x19b0>
    800528bc:	1fe7cd07          	flq	fs10,510(a5)
    800528c0:	fa04                	sd	s1,48(a2)
    800528c2:	fd0d                	bnez	a0,800527fc <ali1_data.1513+0x17fc>
    800528c4:	ebff                	0xebff
    800528c6:	e626                	sd	s1,264(sp)
    800528c8:	1325                	addi	t1,t1,-23
    800528ca:	26fe                	fld	fa3,472(sp)
    800528cc:	232c2207          	flw	ft4,562(s8)
    800528d0:	c3ead333          	0xc3ead333
    800528d4:	31f5fafb          	0x31f5fafb
    800528d8:	1511                	addi	a0,a0,-28
    800528da:	0e032217          	auipc	tp,0xe032
    800528de:	fdf0                	sd	a2,248(a1)
    800528e0:	1802                	slli	a6,a6,0x20
    800528e2:	00e9                	addi	ra,ra,26
    800528e4:	5515                	li	a0,-27
    800528e6:	f7fc                	sd	a5,232(a5)
    800528e8:	ddd3030f          	0xddd3030f
    800528ec:	d908                	sw	a0,48(a0)
    800528ee:	32e1                	addiw	t0,t0,-8
    800528f0:	111a                	slli	sp,sp,0x26
    800528f2:	fff0                	sd	a2,248(a5)
    800528f4:	d6e1                	beqz	a3,800528bc <ali1_data.1513+0x18bc>
    800528f6:	e8e9                	bnez	s1,800529c8 <ali1_data.1513+0x19c8>
    800528f8:	0021000f          	0x21000f
    800528fc:	050c                	addi	a1,sp,640
    800528fe:	1b3e                	slli	s6,s6,0x2f
    80052900:	fd11                	bnez	a0,8005281c <ali1_data.1513+0x181c>
    80052902:	302a                	fld	ft0,168(sp)
    80052904:	2fe5                	addiw	t6,t6,25
    80052906:	110b0713          	addi	a4,s6,272
    8005290a:	38fc2a2f          	0x38fc2a2f
    8005290e:	f302                	sd	zero,416(sp)
    80052910:	0924                	addi	s1,sp,152
    80052912:	cbe5                	beqz	a5,80052a02 <ali1_data.1513+0x1a02>
    80052914:	0ee3feeb          	0xee3feeb
    80052918:	f708                	sd	a0,40(a4)
    8005291a:	e21f f9e9 1f04      	0x1f04f9e9e21f
    80052920:	ade71013          	0xade71013
    80052924:	e1f8e5eb          	0xe1f8e5eb
    80052928:	06ed                	addi	a3,a3,27
    8005292a:	c6f2                	sw	t3,76(sp)
    8005292c:	011e                	slli	sp,sp,0x7
    8005292e:	27e5                	addiw	a5,a5,25
    80052930:	fc01                	bnez	s0,80052848 <ali1_data.1513+0x1848>
    80052932:	0eec                	addi	a1,sp,860
    80052934:	0621ed23          	0x621ed23
    80052938:	f6fd                	bnez	a3,80052926 <ali1_data.1513+0x1926>
    8005293a:	081b1123          	sh	ra,130(s6)
    8005293e:	0d18                	addi	a4,sp,656
    80052940:	f9ed                	bnez	a1,80052932 <ali1_data.1513+0x1932>
    80052942:	ecd0e80f          	0xecd0e80f
    80052946:	00f9                	addi	ra,ra,30
    80052948:	3a15                	addiw	s4,s4,-27
    8005294a:	1d14                	addi	a3,sp,688
    8005294c:	021f 0806 ec0d      	0xec0d0806021f
    80052952:	f0fd03ef          	jal	t2,80023860 <__global_pointer$+0x1fce0>
    80052956:	20de                	fld	ft1,464(sp)
    80052958:	01dc                	addi	a5,sp,196
    8005295a:	17ec170f          	0x17ec170f
    8005295e:	f1f5                	bnez	a1,80052942 <ali1_data.1513+0x1942>
    80052960:	f529                	bnez	a0,800528aa <ali1_data.1513+0x18aa>
    80052962:	d7eabec7          	fmsub.q	ft9,fs5,ft10,fs10,rup
    80052966:	1d1a                	slli	s10,s10,0x26
    80052968:	f316                	sd	t0,416(sp)
    8005296a:	d2d2                	sw	s4,100(sp)
    8005296c:	d31d                	beqz	a4,80052892 <ali1_data.1513+0x1892>
    8005296e:	f6f4                	sd	a3,232(a3)
    80052970:	fb00                	sd	s0,48(a4)
    80052972:	1008                	addi	a0,sp,32
    80052974:	0a18                	addi	a4,sp,272
    80052976:	1300                	addi	s0,sp,416
    80052978:	1d0d                	addi	s10,s10,-29
    8005297a:	fb26                	sd	s1,432(sp)
    8005297c:	19f4                	addi	a3,sp,252
    8005297e:	19ff                	0x19ff
    80052980:	cfe9                	beqz	a5,80052a5a <ali1_data.1513+0x1a5a>
    80052982:	fdfbcf03          	lbu	t5,-33(s7)
    80052986:	fb02                	sd	zero,432(sp)
    80052988:	f0ef3027          	fsd	fa4,-256(t5) # 77e00460 <__stack_size+0x77df8460>
    8005298c:	dcf4                	sw	a3,124(s1)
    8005298e:	eefe                	sd	t6,344(sp)
    80052990:	e122                	sd	s0,128(sp)
    80052992:	fbe8                	sd	a0,240(a5)
    80052994:	e2fa                	sd	t5,320(sp)
    80052996:	ed100ff7          	0xed100ff7
    8005299a:	feed                	bnez	a3,80052994 <ali1_data.1513+0x1994>
    8005299c:	ec12                	sd	tp,24(sp)
    8005299e:	f3ec                	sd	a1,224(a5)
    800529a0:	fc2809f7          	0xfc2809f7
    800529a4:	2d04                	fld	fs1,24(a0)
    800529a6:	031e06fb          	0x31e06fb
    800529aa:	2322                	fld	ft6,8(sp)
    800529ac:	06fa                	slli	a3,a3,0x1e
    800529ae:	f1e2                	sd	s8,224(sp)
    800529b0:	f4e91df3          	csrrw	s11,0xf4e,s2
    800529b4:	0bed                	addi	s7,s7,27
    800529b6:	13e2                	slli	t2,t2,0x38
    800529b8:	02e5                	addi	t0,t0,25
    800529ba:	08f428f3          	csrrs	a7,0x8f,s0
    800529be:	e941                	bnez	a0,80052a4e <ali1_data.1513+0x1a4e>
    800529c0:	1b2dd317          	auipc	t1,0x1b2dd
    800529c4:	12fa                	slli	t0,t0,0x3e
    800529c6:	1c0af127          	0x1c0af127
    800529ca:	0330                	addi	a2,sp,392
    800529cc:	ff16                	sd	t0,440(sp)
    800529ce:	f3f2ed07          	0xf3f2ed07
    800529d2:	f916                	sd	t0,176(sp)
    800529d4:	f0de                	sd	s7,96(sp)
    800529d6:	0ad62f0b          	0xad62f0b
    800529da:	21fd                	addiw	gp,gp,31
    800529dc:	011e                	slli	sp,sp,0x7
    800529de:	f100                	sd	s0,32(a0)
    800529e0:	27c5                	addiw	a5,a5,17
    800529e2:	21f5                	addiw	gp,gp,29
    800529e4:	e6085607          	0xe6085607
    800529e8:	3046f21b          	0x3046f21b
    800529ec:	d1ed                	beqz	a1,800529ce <ali1_data.1513+0x19ce>
    800529ee:	09e2                	slli	s3,s3,0x18
    800529f0:	e02a                	sd	a0,0(sp)
    800529f2:	f1e2d6eb          	0xf1e2d6eb
    800529f6:	1d08                	addi	a0,sp,688
    800529f8:	f7f5                	bnez	a5,800529e4 <ali1_data.1513+0x19e4>
    800529fa:	f6d2                	sd	s4,360(sp)
    800529fc:	06d9d327          	0x6d9d327
    80052a00:	15ea                	slli	a1,a1,0x3a
    80052a02:	252d                	addiw	a0,a0,11
    80052a04:	4adc                	lw	a5,20(a3)
    80052a06:	ff02                	sd	zero,440(sp)
    80052a08:	1c0d22f3          	csrrs	t0,0x1c0,s10
    80052a0c:	f9233217          	auipc	tp,0xf9233
    80052a10:	df2d                	beqz	a4,8005298a <ali1_data.1513+0x198a>
    80052a12:	eef5                	bnez	a3,80052b0e <ali1_data.1513+0x1b0e>
    80052a14:	fcde                	sd	s7,120(sp)
    80052a16:	0a12                	slli	s4,s4,0x4
    80052a18:	0ad6                	slli	s5,s5,0x15
    80052a1a:	2115                	addiw	sp,sp,5
    80052a1c:	00e4                	addi	s1,sp,76
    80052a1e:	fe2ee50b          	0xfe2ee50b
    80052a22:	dac6                	sw	a7,116(sp)
    80052a24:	d3ec18cf          	fnmadd.d	fa7,fs8,ft10,fs10,rtz
    80052a28:	faf8                	sd	a4,240(a3)
    80052a2a:	0c39                	addi	s8,s8,14
    80052a2c:	e4de                	sd	s7,72(sp)
    80052a2e:	46f2                	lw	a3,28(sp)
    80052a30:	fcfbf40b          	0xfcfbf40b
    80052a34:	0718                	addi	a4,sp,896
    80052a36:	2226                	fld	ft4,72(sp)
    80052a38:	eaf53703          	ld	a4,-337(a0)
    80052a3c:	053d                	addi	a0,a0,15
    80052a3e:	0a1c                	addi	a5,sp,272
    80052a40:	09dd                	addi	s3,s3,23
    80052a42:	1a06                	slli	s4,s4,0x21
    80052a44:	2bea                	fld	fs7,152(sp)
    80052a46:	18ee                	slli	a7,a7,0x3b
    80052a48:	060d                	addi	a2,a2,3
    80052a4a:	f7e9                	bnez	a5,80052a14 <ali1_data.1513+0x1a14>
    80052a4c:	f504                	sd	s1,40(a0)
    80052a4e:	0ff8                	addi	a4,sp,988
    80052a50:	2f0fd813          	0x2f0fd813
    80052a54:	f7de                	sd	s7,488(sp)
    80052a56:	2dfa                	fld	fs11,408(sp)
    80052a58:	0af8                	addi	a4,sp,348
    80052a5a:	f609                	bnez	a2,80052964 <ali1_data.1513+0x1964>
    80052a5c:	e8f0                	sd	a2,208(s1)
    80052a5e:	054a1407          	0x54a1407
    80052a62:	c00bd5cf          	fnmadd.s	fa1,fs7,ft0,fs8,unknown
    80052a66:	1bf2                	slli	s7,s7,0x3c
    80052a68:	122fe83b          	0x122fe83b
    80052a6c:	efe5                	bnez	a5,80052b64 <ali1_data.1513+0x1b64>
    80052a6e:	34fe                	fld	fs1,504(sp)
    80052a70:	2cdc                	fld	fa5,152(s1)
    80052a72:	1104                	addi	s1,sp,160
    80052a74:	24e8                	fld	fa0,200(s1)
    80052a76:	1fe5                	addi	t6,t6,-7
    80052a78:	2dfa                	fld	fs11,408(sp)
    80052a7a:	e615                	bnez	a2,80052aa6 <ali1_data.1513+0x1aa6>
    80052a7c:	ebfb0a23          	sb	t6,-332(s6)
    80052a80:	fd0e                	sd	gp,184(sp)
    80052a82:	fa01                	bnez	a2,80052992 <ali1_data.1513+0x1992>
    80052a84:	d4e4                	sw	s1,108(s1)
    80052a86:	1021ebd3          	fmul.s	fs7,ft3,ft2,unknown
    80052a8a:	f5e8                	sd	a0,232(a1)
    80052a8c:	f32c                	sd	a1,96(a4)
    80052a8e:	fb0d                	bnez	a4,800529c0 <ali1_data.1513+0x19c0>
    80052a90:	090d                	addi	s2,s2,3
    80052a92:	0bd53753          	fsub.d	fa4,fa0,ft9,rup
    80052a96:	fbe8f7e7          	0xfbe8f7e7
    80052a9a:	06012717          	auipc	a4,0x6012
    80052a9e:	1ef4                	addi	a3,sp,892
    80052aa0:	1110                	addi	a2,sp,160
    80052aa2:	fbee                	sd	s11,496(sp)
    80052aa4:	2aed                	addiw	s5,s5,27
    80052aa6:	0e38                	addi	a4,sp,792
    80052aa8:	0b0a                	slli	s6,s6,0x2
    80052aaa:	f80c                	sd	a1,48(s0)
    80052aac:	4101f3e3          	bgeu	gp,a6,800536b2 <ali1_data.1513+0x26b2>
    80052ab0:	e108                	sd	a0,0(a0)
    80052ab2:	def4                	sw	a3,124(a3)
    80052ab4:	02f8                	addi	a4,sp,332
    80052ab6:	02fc                	addi	a5,sp,332
    80052ab8:	1c01                	addi	s8,s8,-32
    80052aba:	d0ee                	sw	s11,96(sp)
    80052abc:	fed3d933          	0xfed3d933
    80052ac0:	d00bfafb          	0xd00bfafb
    80052ac4:	020d                	addi	tp,tp,3
    80052ac6:	f02df62f          	0xf02df62f
    80052aca:	cff8                	sw	a4,92(a5)
    80052acc:	fa05                	bnez	a2,800529fc <ali1_data.1513+0x19fc>
    80052ace:	02ec                	addi	a1,sp,332
    80052ad0:	d70d                	beqz	a4,800529fa <ali1_data.1513+0x19fa>
    80052ad2:	f50a2a33          	0xf50a2a33
    80052ad6:	0dfe                	slli	s11,s11,0x1f
    80052ad8:	fc14                	sd	a3,56(s0)
    80052ada:	e902                	sd	zero,144(sp)
    80052adc:	e3fe                	sd	t6,448(sp)
    80052ade:	1c13fbe7          	0x1c13fbe7
    80052ae2:	0fec                	addi	a1,sp,988
    80052ae4:	ef04                	sd	s1,24(a4)
    80052ae6:	e7f8                	sd	a4,200(a5)
    80052ae8:	e806                	sd	ra,16(sp)
    80052aea:	28f9                	addiw	a7,a7,30
    80052aec:	1308                	addi	a0,sp,416
    80052aee:	d8fa                	sw	t5,112(sp)
    80052af0:	0318                	addi	a4,sp,384
    80052af2:	1b1e                	slli	s6,s6,0x27
    80052af4:	f31ee9e7          	0xf31ee9e7
    80052af8:	1dd2                	slli	s11,s11,0x34
    80052afa:	fcdd                	bnez	s1,80052ab8 <ali1_data.1513+0x1ab8>
    80052afc:	f5f0                	sd	a2,232(a1)
    80052afe:	ed26                	sd	s1,152(sp)
    80052b00:	1f1afd0b          	0x1f1afd0b
    80052b04:	14d4                	addi	a3,sp,612
    80052b06:	f2f8                	sd	a4,224(a3)
    80052b08:	0bf4                	addi	a3,sp,476
    80052b0a:	0f19                	addi	t5,t5,6
    80052b0c:	090e                	slli	s2,s2,0x3
    80052b0e:	030d                	addi	t1,t1,3
    80052b10:	e7fa                	sd	t5,456(sp)
    80052b12:	f00c                	sd	a1,32(s0)
    80052b14:	f2e2                	sd	s8,352(sp)
    80052b16:	f0d8                	sd	a4,160(s1)
    80052b18:	1001                	c.nop	-32
    80052b1a:	ec1c                	sd	a5,24(s0)
    80052b1c:	1eec                	addi	a1,sp,892
    80052b1e:	1702                	slli	a4,a4,0x20
    80052b20:	01fa                	slli	gp,gp,0x1e
    80052b22:	fa1ee903          	lwu	s2,-95(t4)
    80052b26:	ffe403f3          	0xffe403f3
    80052b2a:	0d11                	addi	s10,s10,4
    80052b2c:	f51f 000a f929      	0xf929000af51f
    80052b32:	0f05                	addi	t5,t5,1
    80052b34:	24fa                	fld	fs1,408(sp)
    80052b36:	f406                	sd	ra,40(sp)
    80052b38:	140a                	slli	s0,s0,0x22
    80052b3a:	e8ee                	sd	s11,80(sp)
    80052b3c:	d316                	sw	t0,164(sp)
    80052b3e:	06f0                	addi	a2,sp,844
    80052b40:	18c0                	addi	s0,sp,116
    80052b42:	3a1e                	fld	fs4,480(sp)
    80052b44:	36fc                	fld	fa5,232(a3)
    80052b46:	ce02                	sw	zero,28(sp)
    80052b48:	25d5                	addiw	a1,a1,21
    80052b4a:	0aee                	slli	s5,s5,0x1b
    80052b4c:	e6e6                	sd	s9,328(sp)
    80052b4e:	2324                	fld	fs1,64(a4)
    80052b50:	0f11                	addi	t5,t5,4
    80052b52:	0d0e                	slli	s10,s10,0x3
    80052b54:	01fd                	addi	gp,gp,31
    80052b56:	0e31                	addi	t3,t3,12
    80052b58:	de05                	beqz	a2,80052a90 <ali1_data.1513+0x1a90>
    80052b5a:	f3ff                	0xf3ff
    80052b5c:	f4e5                	bnez	s1,80052b44 <ali1_data.1513+0x1b44>
    80052b5e:	0aff                	0xaff
    80052b60:	de4a                	sw	s2,60(sp)
    80052b62:	d6d8                	sw	a4,44(a3)
    80052b64:	26f9f1db          	0x26f9f1db
    80052b68:	2804                	fld	fs1,16(s0)
    80052b6a:	12f0                	addi	a2,sp,364
    80052b6c:	f414                	sd	a3,40(s0)
    80052b6e:	edfe                	sd	t6,216(sp)
    80052b70:	18ec                	addi	a1,sp,124
    80052b72:	10fd1617          	auipc	a2,0x10fd1
    80052b76:	0bfe                	slli	s7,s7,0x1f
    80052b78:	0c09                	addi	s8,s8,2
    80052b7a:	d4d5                	beqz	s1,80052b26 <ali1_data.1513+0x1b26>
    80052b7c:	06c8bb17          	auipc	s6,0x6c8b
    80052b80:	fa10                	sd	a2,48(a2)
    80052b82:	e6c8                	sd	a0,136(a3)
    80052b84:	d9cf1bf3          	csrrw	s7,0xd9c,t5
    80052b88:	c1dd190f          	0xc1dd190f
    80052b8c:	bb1a                	fsd	ft6,432(sp)
    80052b8e:	0add                	addi	s5,s5,23
    80052b90:	1fe4                	addi	s1,sp,1020
    80052b92:	2f18                	fld	fa4,24(a4)
    80052b94:	f21429e7          	0xf21429e7
    80052b98:	0fe8e213          	ori	tp,a7,254
    80052b9c:	070e                	slli	a4,a4,0x3
    80052b9e:	080c                	addi	a1,sp,16
    80052ba0:	061af417          	auipc	s0,0x61af
    80052ba4:	f3f2                	sd	t3,480(sp)
    80052ba6:	2eff                	0x2eff
    80052ba8:	fde2                	sd	s8,248(sp)
    80052baa:	e402                	sd	zero,8(sp)
    80052bac:	e111                	bnez	a0,80052bb0 <ali1_data.1513+0x1bb0>
    80052bae:	d7ffece3          	bltu	t6,t6,80052926 <ali1_data.1513+0x1926>
    80052bb2:	e4e4                	sd	s1,200(s1)
    80052bb4:	20e406e7          	jalr	a3,526(s0) # 86201dae <ali3_data.1513+0x61aaaae>
    80052bb8:	011c                	addi	a5,sp,128
    80052bba:	cbc9                	beqz	a5,80052c4c <ali1_data.1513+0x1c4c>
    80052bbc:	df19                	beqz	a4,80052ada <ali1_data.1513+0x1ada>
    80052bbe:	e5232afb          	0xe5232afb
    80052bc2:	cde8                	sw	a0,92(a1)
    80052bc4:	0be0f913          	andi	s2,ra,190
    80052bc8:	19f1                	addi	s3,s3,-4
    80052bca:	ce17e7eb          	0xce17e7eb
    80052bce:	fcf4                	sd	a3,248(s1)
    80052bd0:	fde2                	sd	s8,248(sp)
    80052bd2:	0416                	slli	s0,s0,0x5
    80052bd4:	f4fd                	bnez	s1,80052bc2 <ali1_data.1513+0x1bc2>
    80052bd6:	dff2                	sw	t3,252(sp)
    80052bd8:	03e8                	addi	a0,sp,460
    80052bda:	e8f1                	bnez	s1,80052cae <ali1_data.1513+0x1cae>
    80052bdc:	1bea                	slli	s7,s7,0x3a
    80052bde:	fde6                	sd	s9,248(sp)
    80052be0:	0efa                	slli	t4,t4,0x1e
    80052be2:	27e2                	fld	fa5,24(sp)
    80052be4:	1fff                	0x1fff
    80052be6:	e709                	bnez	a4,80052bf0 <ali1_data.1513+0x1bf0>
    80052be8:	16d5                	addi	a3,a3,-11
    80052bea:	1528                	addi	a0,sp,680
    80052bec:	f101                	bnez	a0,80052aec <ali1_data.1513+0x1aec>
    80052bee:	dfe9                	beqz	a5,80052bc8 <ali1_data.1513+0x1bc8>
    80052bf0:	e801                	bnez	s0,80052c00 <ali1_data.1513+0x1c00>
    80052bf2:	e40a                	sd	sp,8(sp)
    80052bf4:	2c1a0fef          	jal	t6,800f36b4 <ali3_data.1513+0x9c3b4>
    80052bf8:	e830                	sd	a2,80(s0)
    80052bfa:	dbf5                	beqz	a5,80052bee <ali1_data.1513+0x1bee>
    80052bfc:	c5ff                	0xc5ff
    80052bfe:	19d8                	addi	a4,sp,244
    80052c00:	f1f5                	bnez	a1,80052be4 <ali1_data.1513+0x1be4>
    80052c02:	fc01                	bnez	s0,80052b1a <ali1_data.1513+0x1b1a>
    80052c04:	ede5                	bnez	a1,80052cfc <ali1_data.1513+0x1cfc>
    80052c06:	e83c                	sd	a5,80(s0)
    80052c08:	ecdd1527          	0xecdd1527
    80052c0c:	d7f4                	sw	a3,108(a5)
    80052c0e:	000c                	0xc
    80052c10:	0fce                	slli	t6,t6,0x13
    80052c12:	2802                	fld	fa6,0(sp)
    80052c14:	ea02                	sd	zero,272(sp)
    80052c16:	e206f3fb          	0xe206f3fb
    80052c1a:	f319                	bnez	a4,80052b20 <ali1_data.1513+0x1b20>
    80052c1c:	fb08                	sd	a0,48(a4)
    80052c1e:	1de2                	slli	s11,s11,0x38
    80052c20:	0adc                	addi	a5,sp,340
    80052c22:	0816                	slli	a6,a6,0x5
    80052c24:	fdf0                	sd	a2,248(a1)
    80052c26:	ddda                	sw	s6,248(sp)
    80052c28:	0df2                	slli	s11,s11,0x1c
    80052c2a:	22fa                	fld	ft5,408(sp)
    80052c2c:	0505                	addi	a0,a0,1
    80052c2e:	1506                	slli	a0,a0,0x21
    80052c30:	22deedf3          	csrrsi	s11,0x22d,29
    80052c34:	20dd                	addiw	ra,ra,23
    80052c36:	0519                	addi	a0,a0,6
    80052c38:	f1ff                	0xf1ff
    80052c3a:	03dbee0f          	0x3dbee0f
    80052c3e:	05e1                	addi	a1,a1,24
    80052c40:	f8fe                	sd	t6,112(sp)
    80052c42:	17d6f7d7          	0x17d6f7d7
    80052c46:	e8e4f403          	0xe8e4f403
    80052c4a:	0de8                	addi	a0,sp,732
    80052c4c:	040d                	addi	s0,s0,3
    80052c4e:	f0d9                	bnez	s1,80052bd4 <ali1_data.1513+0x1bd4>
    80052c50:	17f9                	addi	a5,a5,-2
    80052c52:	21d0                	fld	fa2,128(a1)
    80052c54:	efe1                	bnez	a5,80052d2c <ali1_data.1513+0x1d2c>
    80052c56:	151a                	slli	a0,a0,0x26
    80052c58:	2a10                	fld	fa2,16(a2)
    80052c5a:	e7fddd03          	lhu	s10,-385(s11) # ffffffffeb07de7f <ali3_data.1513+0xffffffff6b026b7f>
    80052c5e:	1b0a                	slli	s6,s6,0x22
    80052c60:	fde4fe1b          	0xfde4fe1b
    80052c64:	2bdf efe9 f3e0      	0xf3e0efe92bdf
    80052c6a:	d9ee                	sw	s11,240(sp)
    80052c6c:	f7f5                	bnez	a5,80052c58 <ali1_data.1513+0x1c58>
    80052c6e:	23f8                	fld	fa4,192(a5)
    80052c70:	11e909eb          	0x11e909eb
    80052c74:	27e7e4c3          	fmadd.q	fs1,fa5,ft10,ft4,unknown
    80052c78:	ed05                	bnez	a0,80052cb0 <ali1_data.1513+0x1cb0>
    80052c7a:	0cde                	slli	s9,s9,0x17
    80052c7c:	fae8                	sd	a0,240(a3)
    80052c7e:	17f9                	addi	a5,a5,-2
    80052c80:	e9fc                	sd	a5,208(a1)
    80052c82:	e427e2d3          	0xe427e2d3
    80052c86:	040c1607          	0x40c1607
    80052c8a:	df11                	beqz	a4,80052ba6 <ali1_data.1513+0x1ba6>
    80052c8c:	fcf5                	bnez	s1,80052c88 <ali1_data.1513+0x1c88>
    80052c8e:	f7e5                	bnez	a5,80052c76 <ali1_data.1513+0x1c76>
    80052c90:	faed                	bnez	a3,80052c82 <ali1_data.1513+0x1c82>
    80052c92:	fcfd                	bnez	s1,80052c90 <ali1_data.1513+0x1c90>
    80052c94:	23fcfae7          	0x23fcfae7
    80052c98:	0dfa                	slli	s11,s11,0x1e
    80052c9a:	eeed                	bnez	a3,80052d94 <ali1_data.1513+0x1d94>
    80052c9c:	12f8                	addi	a4,sp,364
    80052c9e:	fadd1903          	lh	s2,-83(s10)
    80052ca2:	dcf1                	beqz	s1,80052c7e <ali1_data.1513+0x1c7e>
    80052ca4:	f20e                	sd	gp,288(sp)
    80052ca6:	f0e6                	sd	s9,96(sp)
    80052ca8:	fffaf0f3          	csrrci	ra,0xfff,21
    80052cac:	17d02623          	sw	t4,364(zero) # 16c <__stack_align+0x15c>
    80052cb0:	02dc                	addi	a5,sp,324
    80052cb2:	0be2                	slli	s7,s7,0x18
    80052cb4:	d609                	beqz	a2,80052bbe <ali1_data.1513+0x1bbe>
    80052cb6:	2af1                	addiw	s5,s5,28
    80052cb8:	0fdf 0bec 00cb      	0xcb0bec0fdf
    80052cbe:	e20a1bef          	jal	s7,7fff42de <__stack_size+0x7ffec2de>
    80052cc2:	ebfde1f7          	0xebfde1f7
    80052cc6:	08fc                	addi	a5,sp,92
    80052cc8:	f404                	sd	s1,40(s0)
    80052cca:	06f9                	addi	a3,a3,30
    80052ccc:	f10eec43          	fmadd.s	fs8,ft9,fa6,ft10,unknown
    80052cd0:	e206                	sd	ra,256(sp)
    80052cd2:	e6ff                	0xe6ff
    80052cd4:	dffd                	beqz	a5,80052cd2 <ali1_data.1513+0x1cd2>
    80052cd6:	13f4                	addi	a3,sp,492
    80052cd8:	fcfbf5f7          	0xfcfbf5f7
    80052cdc:	38fbe52f          	0x38fbe52f
    80052ce0:	112c0c13          	addi	s8,s8,274
    80052ce4:	17cce90f          	0x17cce90f
    80052ce8:	fdf4e4eb          	0xfdf4e4eb
    80052cec:	dee0                	sw	s0,124(a3)
    80052cee:	edf1                	bnez	a1,80052dca <ali1_data.1513+0x1dca>
    80052cf0:	ebdf 131b e0ca      	0xe0ca131bebdf
    80052cf6:	e5f91633          	0xe5f91633
    80052cfa:	e4f1                	bnez	s1,80052dc6 <ali1_data.1513+0x1dc6>
    80052cfc:	35ed1607          	0x35ed1607
    80052d00:	0532                	slli	a0,a0,0xc
    80052d02:	f011                	bnez	s0,80052c06 <ali1_data.1513+0x1c06>
    80052d04:	02e1                	addi	t0,t0,24
    80052d06:	09fa                	slli	s3,s3,0x1e
    80052d08:	de02ee03          	lwu	t3,-544(t0)
    80052d0c:	1fe7e2f3          	csrrsi	t0,0x1fe,15
    80052d10:	fee01ce3          	bne	zero,a4,80052d08 <ali1_data.1513+0x1d08>
    80052d14:	eccd                	bnez	s1,80052dce <ali1_data.1513+0x1dce>
    80052d16:	133e                	slli	t1,t1,0x2f
    80052d18:	f10e                	sd	gp,160(sp)
    80052d1a:	feed                	bnez	a3,80052d14 <ali1_data.1513+0x1d14>
    80052d1c:	f9e0                	sd	s0,240(a1)
    80052d1e:	22f5                	addiw	t0,t0,29
    80052d20:	ca18                	sw	a4,16(a2)
    80052d22:	e5ed                	bnez	a1,80052e0c <ali1_data.1513+0x1e0c>
    80052d24:	2212                	fld	ft4,256(sp)
    80052d26:	fd05                	bnez	a0,80052c5e <ali1_data.1513+0x1c5e>
    80052d28:	0ff6                	slli	t6,t6,0x1d
    80052d2a:	1109                	addi	sp,sp,-30
    80052d2c:	ff0a                	sd	sp,440(sp)
    80052d2e:	ddd7faef          	jal	s5,7ffd2b0a <__stack_size+0x7ffcab0a>
    80052d32:	e7eff6e3          	bgeu	t6,t5,80052b9e <ali1_data.1513+0x1b9e>
    80052d36:	1721                	addi	a4,a4,-24
    80052d38:	e0f9                	bnez	s1,80052dfe <ali1_data.1513+0x1dfe>
    80052d3a:	f20d                	bnez	a2,80052c5c <ali1_data.1513+0x1c5c>
    80052d3c:	0bff                	0xbff
    80052d3e:	29f0                	fld	fa2,208(a1)
    80052d40:	dec8                	sw	a0,60(a3)
    80052d42:	dc15                	beqz	s0,80052c7e <ali1_data.1513+0x1c7e>
    80052d44:	16f5                	addi	a3,a3,-3
    80052d46:	2000                	fld	fs0,0(s0)
    80052d48:	e4f9                	bnez	s1,80052e16 <ali1_data.1513+0x1e16>
    80052d4a:	0601                	addi	a2,a2,0
    80052d4c:	1a23d207          	0x1a23d207
    80052d50:	facc                	sd	a1,176(a3)
    80052d52:	d9de                	sw	s7,240(sp)
    80052d54:	17fa                	slli	a5,a5,0x3e
    80052d56:	eeec0113          	addi	sp,s8,-274
    80052d5a:	d3d8                	sw	a4,36(a5)
    80052d5c:	07fc                	addi	a5,sp,972
    80052d5e:	edfe                	sd	t6,216(sp)
    80052d60:	1c1b07fb          	0x1c1b07fb
    80052d64:	2f25070f          	0x2f25070f
    80052d68:	1428                	addi	a0,sp,552
    80052d6a:	1e43f7eb          	0x1e43f7eb
    80052d6e:	d70c                	sw	a1,40(a4)
    80052d70:	02da                	slli	t0,t0,0x16
    80052d72:	1bdcfde3          	bgeu	s9,t4,8005372c <ali1_data.1513+0x272c>
    80052d76:	1631                	addi	a2,a2,-20
    80052d78:	daf6                	sw	t4,116(sp)
    80052d7a:	0a05                	addi	s4,s4,1
    80052d7c:	faf8                	sd	a4,240(a3)
    80052d7e:	320e080b          	0x320e080b
    80052d82:	1d2c                	addi	a1,sp,696
    80052d84:	ec16                	sd	t0,24(sp)
    80052d86:	32e8                	fld	fa0,224(a3)
    80052d88:	f9df d7e4 10e5      	0x10e5d7e4f9df
    80052d8e:	f3f2                	sd	t3,480(sp)
    80052d90:	1edf 05ff eef2      	0xeef205ff1edf
    80052d96:	2806                	fld	fa6,64(sp)
    80052d98:	d9f4                	sw	a3,116(a1)
    80052d9a:	100e                	c.slli	zero,0x23
    80052d9c:	0921                	addi	s2,s2,8
    80052d9e:	2d02                	fld	fs10,0(sp)
    80052da0:	e1e7d427          	0xe1e7d427
    80052da4:	0ed9                	addi	t4,t4,22
    80052da6:	f604                	sd	s1,40(a2)
    80052da8:	000e07f7          	0xe07f7
    80052dac:	0002                	c.slli64	zero
    80052dae:	370e                	fld	fa4,224(sp)
    80052db0:	0a0f050f          	0xa0f050f
    80052db4:	fcdf 0d17 ddea      	0xddea0d17fcdf
    80052dba:	32fe                	fld	ft5,504(sp)
    80052dbc:	08ded90b          	0x8ded90b
    80052dc0:	e6e4e6d3          	0xe6e4e6d3
    80052dc4:	e50c                	sd	a1,8(a0)
    80052dc6:	0ff5                	addi	t6,t6,29
    80052dc8:	16e51707          	0x16e51707
    80052dcc:	0b0f060b          	0xb0f060b
    80052dd0:	ceec                	sw	a1,92(a3)
    80052dd2:	e4ce                	sd	s3,72(sp)
    80052dd4:	0916                	slli	s2,s2,0x5
    80052dd6:	0ffefaeb          	0xffefaeb
    80052dda:	fbf8                	sd	a4,240(a5)
    80052ddc:	081300f7          	0x81300f7
    80052de0:	15ec0bf3          	0x15ec0bf3
    80052de4:	e2d8                	sd	a4,128(a3)
    80052de6:	1011                	c.nop	-28
    80052de8:	0e09                	addi	t3,t3,2
    80052dea:	1af0                	addi	a2,sp,380
    80052dec:	e50e                	sd	gp,136(sp)
    80052dee:	37de                	fld	fa5,496(sp)
    80052df0:	ffda01f7          	0xffda01f7
    80052df4:	04fe                	slli	s1,s1,0x1f
    80052df6:	ff0a                	sd	sp,440(sp)
    80052df8:	f1e2                	sd	s8,224(sp)
    80052dfa:	1aec                	addi	a1,sp,380
    80052dfc:	f5cf17db          	0xf5cf17db
    80052e00:	fdff                	0xfdff
    80052e02:	eee928db          	0xeee928db
    80052e06:	f728                	sd	a0,104(a4)
    80052e08:	ed04                	sd	s1,24(a0)
    80052e0a:	10ec                	addi	a1,sp,108
    80052e0c:	f739                	bnez	a4,80052d5a <ali1_data.1513+0x1d5a>
    80052e0e:	ddea                	sw	s10,248(sp)
    80052e10:	dfdc                	sw	a5,60(a5)
    80052e12:	03f6                	slli	t2,t2,0x1d
    80052e14:	f2dd                	bnez	a3,80052dba <ali1_data.1513+0x1dba>
    80052e16:	1a1a                	slli	s4,s4,0x26
    80052e18:	eef1                	bnez	a3,80052ef4 <ali1_data.1513+0x1ef4>
    80052e1a:	0de4                	addi	s1,sp,732
    80052e1c:	f3fe                	sd	t6,480(sp)
    80052e1e:	f9df010f          	0xf9df010f
    80052e22:	0304                	addi	s1,sp,384
    80052e24:	e708                	sd	a0,8(a4)
    80052e26:	0c24                	addi	s1,sp,536
    80052e28:	f6e4                	sd	s1,232(a3)
    80052e2a:	24f4                	fld	fa3,200(s1)
    80052e2c:	f4ed                	bnez	s1,80052e16 <ali1_data.1513+0x1e16>
    80052e2e:	ea0a                	sd	sp,272(sp)
    80052e30:	0b14                	addi	a3,sp,400
    80052e32:	0af4                	addi	a3,sp,348
    80052e34:	ece1f403          	0xece1f403
    80052e38:	08e5                	addi	a7,a7,25
    80052e3a:	08ec                	addi	a1,sp,92
    80052e3c:	1615                	addi	a2,a2,-27
    80052e3e:	f01f c326 d925      	0xd925c326f01f
    80052e44:	ff18                	sd	a4,56(a4)
    80052e46:	3afe                	fld	fs5,504(sp)
    80052e48:	1b05f317          	auipc	t1,0x1b05f
    80052e4c:	eef109d7          	0xeef109d7
    80052e50:	fae9                	bnez	a3,80052e22 <ali1_data.1513+0x1e22>
    80052e52:	e8d1                	bnez	s1,80052ee6 <ali1_data.1513+0x1ee6>
    80052e54:	dbe8                	sw	a0,116(a5)
    80052e56:	11d71f13          	0x11d71f13
    80052e5a:	3ef0                	fld	fa2,248(a3)
    80052e5c:	e4e6                	sd	s9,72(sp)
    80052e5e:	0dfe                	slli	s11,s11,0x1f
    80052e60:	e70cdad3          	0xe70cdad3
    80052e64:	0b09                	addi	s6,s6,2
    80052e66:	14e5                	addi	s1,s1,-7
    80052e68:	e2d4                	sd	a3,128(a3)
    80052e6a:	0310                	addi	a2,sp,384
    80052e6c:	1404                	addi	s1,sp,544
    80052e6e:	e5f0                	sd	a2,200(a1)
    80052e70:	ccdf 0202 f1f9      	0xf1f90202ccdf
    80052e76:	0ceef903          	0xceef903
    80052e7a:	30e1                	addiw	ra,ra,-8
    80052e7c:	03e9                	addi	t2,t2,26
    80052e7e:	e2e1                	bnez	a3,80052f3e <ali1_data.1513+0x1f3e>
    80052e80:	06d6                	slli	a3,a3,0x15
    80052e82:	1e15                	addi	t3,t3,-27
    80052e84:	e018                	sd	a4,0(s0)
    80052e86:	34ec                	fld	fa1,232(s1)
    80052e88:	f802                	sd	zero,48(sp)
    80052e8a:	161d                	addi	a2,a2,-25
    80052e8c:	16e2                	slli	a3,a3,0x38
    80052e8e:	f2f8f2f3          	csrrci	t0,0xf2f,17
    80052e92:	1af0                	addi	a2,sp,380
    80052e94:	04e8                	addi	a0,sp,588
    80052e96:	fcfe                	sd	t6,120(sp)
    80052e98:	0011                	c.nop	4
    80052e9a:	de1827db          	0xde1827db
    80052e9e:	0fd6                	slli	t6,t6,0x15
    80052ea0:	f6e9                	bnez	a3,80052e6a <ali1_data.1513+0x1e6a>
    80052ea2:	fa1e                	sd	t2,304(sp)
    80052ea4:	17ed                	addi	a5,a5,-5
    80052ea6:	1124                	addi	s1,sp,168
    80052ea8:	f031                	bnez	s0,80052dec <ali1_data.1513+0x1dec>
    80052eaa:	1ffb2033          	0x1ffb2033
    80052eae:	e00e                	sd	gp,0(sp)
    80052eb0:	f7ee                	sd	s11,488(sp)
    80052eb2:	06fd00f7          	0x6fd00f7
    80052eb6:	fbe0                	sd	s0,240(a5)
    80052eb8:	e900                	sd	s0,16(a0)
    80052eba:	1510                	addi	a2,sp,672
    80052ebc:	fbd2                	sd	s4,496(sp)
    80052ebe:	fbf2                	sd	t3,496(sp)
    80052ec0:	0e08                	addi	a0,sp,784
    80052ec2:	e9ff                	0xe9ff
    80052ec4:	effc                	sd	a5,216(a5)
    80052ec6:	e81e                	sd	t2,16(sp)
    80052ec8:	df10                	sw	a2,56(a4)
    80052eca:	16f0                	addi	a2,sp,876
    80052ecc:	13e8                	addi	a0,sp,492
    80052ece:	2108                	fld	fa0,0(a0)
    80052ed0:	f0dae3e7          	0xf0dae3e7
    80052ed4:	f50e                	sd	gp,168(sp)
    80052ed6:	010d                	addi	sp,sp,3
    80052ed8:	15e2                	slli	a1,a1,0x38
    80052eda:	1f11                	addi	t5,t5,-28
    80052edc:	dc2001f3          	0xdc2001f3
    80052ee0:	1506d00f          	0x1506d00f
    80052ee4:	f7e2                	sd	s8,488(sp)
    80052ee6:	06f6                	slli	a3,a3,0x1d
    80052ee8:	00f5                	addi	ra,ra,29
    80052eea:	0415e0f7          	0x415e0f7
    80052eee:	0f0e                	slli	t5,t5,0x3
    80052ef0:	f710                	sd	a2,40(a4)
    80052ef2:	1702dbeb          	0x1702dbeb
    80052ef6:	0c00                	addi	s0,sp,528
    80052ef8:	09e5291b          	0x9e5291b
    80052efc:	dedbf017          	auipc	zero,0xdedbf
    80052f00:	1ef90dcb          	fnmsub.q	fs11,fs2,fa5,ft3,rne
    80052f04:	fce6                	sd	s9,120(sp)
    80052f06:	0310e60b          	0x310e60b
    80052f0a:	1608                	addi	a0,sp,800
    80052f0c:	0514                	addi	a3,sp,640
    80052f0e:	11fd                	addi	gp,gp,-1
    80052f10:	d0f4                	sw	a3,100(s1)
    80052f12:	ff05                	bnez	a4,80052e4a <ali1_data.1513+0x1e4a>
    80052f14:	f405                	bnez	s0,80052e3c <ali1_data.1513+0x1e3c>
    80052f16:	2005                	0x2005
    80052f18:	07db01e3          	beq	s6,t4,8005377a <ali1_data.1513+0x277a>
    80052f1c:	0ce70aeb          	0xce70aeb
    80052f20:	f4e2                	sd	s8,104(sp)
    80052f22:	16fdefeb          	0x16fdefeb
    80052f26:	ee0e                	sd	gp,280(sp)
    80052f28:	e6e5                	bnez	a3,80053010 <ali1_data.1513+0x2010>
    80052f2a:	1bee                	slli	s7,s7,0x3b
    80052f2c:	f818                	sd	a4,48(s0)
    80052f2e:	1e14                	addi	a3,sp,816
    80052f30:	17d2                	slli	a5,a5,0x34
    80052f32:	de02                	sw	zero,60(sp)
    80052f34:	f7f9                	bnez	a5,80052f02 <ali1_data.1513+0x1f02>
    80052f36:	fee6                	sd	s9,376(sp)
    80052f38:	28e9                	addiw	a7,a7,26
    80052f3a:	140c                	addi	a1,sp,544
    80052f3c:	120cd913          	0x120cd913
    80052f40:	f11e                	sd	t2,160(sp)
    80052f42:	1ae2                	slli	s5,s5,0x38
    80052f44:	02e321eb          	0x2e321eb
    80052f48:	feec                	sd	a1,248(a3)
    80052f4a:	e402                	sd	zero,8(sp)
    80052f4c:	02f6                	slli	t0,t0,0x1d
    80052f4e:	f4040713          	addi	a4,s0,-192
    80052f52:	fa1d                	bnez	a2,80052e88 <ali1_data.1513+0x1e88>
    80052f54:	1cdf eddc 0d01      	0xd01eddc1cdf
    80052f5a:	220e0e07          	0x220e0e07
    80052f5e:	ed01082f          	0xed01082f
    80052f62:	ecf9                	bnez	s1,80053040 <ali1_data.1513+0x2040>
    80052f64:	e0d504f3          	0xe0d504f3
    80052f68:	cfda                	sw	s6,220(sp)
    80052f6a:	fa0d                	bnez	a2,80052e9c <ali1_data.1513+0x1e9c>
    80052f6c:	22f9                	addiw	t0,t0,30
    80052f6e:	e90d18eb          	0xe90d18eb
    80052f72:	0401                	addi	s0,s0,0
    80052f74:	26ee                	fld	fa3,216(sp)
    80052f76:	fce5                	bnez	s1,80052f6e <ali1_data.1513+0x1f6e>
    80052f78:	eafb13e3          	bne	s6,a5,80052e1e <ali1_data.1513+0x1e1e>
    80052f7c:	eef1                	bnez	a3,80053058 <ali1_data.1513+0x2058>
    80052f7e:	ede0                	sd	s0,216(a1)
    80052f80:	ee1c                	sd	a5,24(a2)
    80052f82:	1214                	addi	a3,sp,288
    80052f84:	0702                	c.slli64	a4
    80052f86:	0126                	slli	sp,sp,0x9
    80052f88:	ecdf f8e3 27e8      	0x27e8f8e3ecdf
    80052f8e:	0a1a                	slli	s4,s4,0x6
    80052f90:	eedc                	sd	a5,152(a3)
    80052f92:	f0e5                	bnez	s1,80052f72 <ali1_data.1513+0x1f72>
    80052f94:	f4da                	sd	s6,104(sp)
    80052f96:	0804                	addi	s1,sp,16
    80052f98:	f1fa                	sd	t5,224(sp)
    80052f9a:	231c                	fld	fa5,0(a4)
    80052f9c:	0f2910bf 1ae1ff20 	0x1ae1ff200f2910bf
    80052fa4:	f9ea                	sd	s10,240(sp)
    80052fa6:	0dd9                	addi	s11,s11,22
    80052fa8:	f60e                	sd	gp,296(sp)
    80052faa:	11e5                	addi	gp,gp,-7
    80052fac:	26df f501 0101      	0x101f50126df
    80052fb2:	f914                	sd	a3,48(a0)
    80052fb4:	11f421e7          	0x11f421e7
    80052fb8:	0fe5                	addi	t6,t6,25
    80052fba:	14fe0ae7          	jalr	s5,335(t3)
    80052fbe:	f5f6                	sd	t4,232(sp)
    80052fc0:	f7f2                	sd	t3,488(sp)
    80052fc2:	1e00                	addi	s0,sp,816
    80052fc4:	1ffd                	addi	t6,t6,-1
    80052fc6:	e21c                	sd	a5,0(a2)
    80052fc8:	0fec                	addi	a1,sp,988
    80052fca:	2102                	fld	ft2,0(sp)
    80052fcc:	d445170b          	0xd445170b
    80052fd0:	050e                	slli	a0,a0,0x3
    80052fd2:	fbe5e9eb          	0xfbe5e9eb
    80052fd6:	d80d                	beqz	s0,80052f08 <ali1_data.1513+0x1f08>
    80052fd8:	fcf51433          	0xfcf51433
    80052fdc:	0dcd                	addi	s11,s11,19
    80052fde:	07f1                	addi	a5,a5,28
    80052fe0:	09f8                	addi	a4,sp,220
    80052fe2:	22f9                	addiw	t0,t0,30
    80052fe4:	f6e8                	sd	a0,232(a3)
    80052fe6:	010e                	slli	sp,sp,0x3
    80052fe8:	21f6                	fld	ft3,344(sp)
    80052fea:	f212                	sd	tp,288(sp)
    80052fec:	efeefbeb          	0xefeefbeb
    80052ff0:	1c1d                	addi	s8,s8,-25
    80052ff2:	18f2                	slli	a7,a7,0x3c
    80052ff4:	f437f607          	0xf437f607
    80052ff8:	f3ed                	bnez	a5,80052fda <ali1_data.1513+0x1fda>
    80052ffa:	05d926eb          	0x5d926eb
    80052ffe:	ec0322f3          	csrrs	t0,0xec0,t1
    80053002:	f6f4                	sd	a3,232(a3)
    80053004:	e428                	sd	a0,72(s0)
    80053006:	0f14                	addi	a3,sp,912
    80053008:	f7e8                	sd	a0,232(a5)
    8005300a:	130c                	addi	a1,sp,416
    8005300c:	eb25                	bnez	a4,8005307c <ali1_data.1513+0x207c>
    8005300e:	0644                	addi	s1,sp,772
    80053010:	e4ea                	sd	s10,72(sp)
    80053012:	e30e17e7          	0xe30e17e7
    80053016:	efe8                	sd	a0,216(a5)
    80053018:	f805                	bnez	s0,80052f48 <ali1_data.1513+0x1f48>
    8005301a:	fbec                	sd	a1,240(a5)
    8005301c:	f4f0                	sd	a2,232(s1)
    8005301e:	f302                	sd	zero,416(sp)
    80053020:	190d                	addi	s2,s2,-29
    80053022:	1108                	addi	a0,sp,160
    80053024:	f728                	sd	a0,104(a4)
    80053026:	00efff23          	0xefff23
    8005302a:	152006f7          	0x152006f7
    8005302e:	1c071723          	sh	zero,462(a4) # 86064c68 <ali3_data.1513+0x600d968>
    80053032:	0931e9f3          	csrrsi	s3,0x93,3
    80053036:	0d22                	slli	s10,s10,0x8
    80053038:	fee9                	bnez	a3,80053012 <ali1_data.1513+0x2012>
    8005303a:	1b1f 14fa eaf1      	0xeaf114fa1b1f
    80053040:	dddd                	beqz	a1,80052ffe <ali1_data.1513+0x1ffe>
    80053042:	e108                	sd	a0,0(a0)
    80053044:	f8201d07          	0xf8201d07
    80053048:	f1f8                	sd	a4,224(a1)
    8005304a:	fb02                	sd	zero,432(sp)
    8005304c:	0132e10f          	0x132e10f
    80053050:	e4ea0a23          	sb	a4,-428(s4) # 4d0b4588 <__stack_size+0x4d0ac588>
    80053054:	05f31a07          	0x5f31a07
    80053058:	12ed                	addi	t0,t0,-5
    8005305a:	f4f9                	bnez	s1,80053028 <ali1_data.1513+0x2028>
    8005305c:	04ed                	addi	s1,s1,27
    8005305e:	fe18                	sd	a4,56(a2)
    80053060:	e4e0                	sd	s0,200(s1)
    80053062:	fb1c                	sd	a5,48(a4)
    80053064:	e4261b1b          	0xe4261b1b
    80053068:	26130bf7          	0x26130bf7
    8005306c:	21f8                	fld	fa4,192(a1)
    8005306e:	eee4                	sd	s1,216(a3)
    80053070:	1513d9e3          	bge	t2,a7,800539c2 <ali1_data.1513+0x29c2>
    80053074:	fe19                	bnez	a2,80052f92 <ali1_data.1513+0x1f92>
    80053076:	e4f0                	sd	a2,200(s1)
    80053078:	0622                	slli	a2,a2,0x8
    8005307a:	0c20                	addi	s0,sp,536
    8005307c:	ecff                	0xecff
    8005307e:	e029                	bnez	s0,800530c0 <ali1_data.1513+0x20c0>
    80053080:	d90fdf1b          	0xd90fdf1b
    80053084:	2314                	fld	fa3,0(a4)
    80053086:	0dce                	slli	s11,s11,0x13
    80053088:	0125                	addi	sp,sp,9
    8005308a:	d5f2                	sw	t3,232(sp)
    8005308c:	e408                	sd	a0,8(s0)
    8005308e:	f7f6e7cb          	fnmsub.q	fa5,fa3,ft11,ft10,unknown
    80053092:	0bd90ce7          	jalr	s9,189(s2)
    80053096:	0a0e0517          	auipc	a0,0xa0e0
    8005309a:	fc0908fb          	0xfc0908fb
    8005309e:	081f 140f f907      	0xf907140f081f
    800530a4:	1d0feafb          	0x1d0feafb
    800530a8:	d9fc                	sw	a5,116(a1)
    800530aa:	1b1d                	addi	s6,s6,-25
    800530ac:	1d08fe0f          	0x1d08fe0f
    800530b0:	e6f4                	sd	a3,200(a3)
    800530b2:	e014                	sd	a3,0(s0)
    800530b4:	1c0d                	addi	s8,s8,-29
    800530b6:	ea30                	sd	a2,80(a2)
    800530b8:	f700                	sd	s0,40(a4)
    800530ba:	121e                	slli	tp,tp,0x27
    800530bc:	18ff0c17          	auipc	s8,0x18ff0
    800530c0:	dae6                	sw	s9,116(sp)
    800530c2:	deee                	sw	s11,124(sp)
    800530c4:	2ccfeb03          	lwu	s6,716(t6)
    800530c8:	d511                	beqz	a0,80052fd4 <ali1_data.1513+0x1fd4>
    800530ca:	e8d2                	sd	s4,80(sp)
    800530cc:	1decd32b          	0x1decd32b
    800530d0:	12d5d5e3          	bge	a1,a3,800539fa <ali1_data.1513+0x29fa>
    800530d4:	f010                	sd	a2,32(s0)
    800530d6:	eb24                	sd	s1,80(a4)
    800530d8:	eff7eef3          	csrrsi	t4,0xeff,15
    800530dc:	15dc                	addi	a5,sp,740
    800530de:	eb30                	sd	a2,80(a4)
    800530e0:	0ee0                	addi	s0,sp,860
    800530e2:	231c                	fld	fa5,0(a4)
    800530e4:	01ee                	slli	gp,gp,0x1b
    800530e6:	0005                	c.nop	1
    800530e8:	f5ec                	sd	a1,232(a1)
    800530ea:	dde1                	beqz	a1,800530c2 <ali1_data.1513+0x20c2>
    800530ec:	0bf6                	slli	s7,s7,0x1d
    800530ee:	dcf0fc03          	0xdcf0fc03
    800530f2:	1d0c                	addi	a1,sp,688
    800530f4:	fa58                	sd	a4,176(a2)
    800530f6:	ea28                	sd	a0,80(a2)
    800530f8:	1b01dc13          	0x1b01dc13
    800530fc:	16f6                	slli	a3,a3,0x3d
    800530fe:	05f9                	addi	a1,a1,30
    80053100:	05da                	slli	a1,a1,0x16
    80053102:	10f1                	addi	ra,ra,-4
    80053104:	1fe4030f          	0x1fe4030f
    80053108:	e700                	sd	s0,8(a4)
    8005310a:	022a                	slli	tp,tp,0xa
    8005310c:	380cdd73          	csrrwi	s10,mbase,25
    80053110:	e5e8                	sd	a0,200(a1)
    80053112:	12e1                	addi	t0,t0,-8
    80053114:	effa                	sd	t5,472(sp)
    80053116:	e210                	sd	a2,0(a2)
    80053118:	f708                	sd	a0,40(a4)
    8005311a:	0fdaf6f3          	csrrci	a3,0xfd,21
    8005311e:	d105                	beqz	a0,8005303e <ali1_data.1513+0x203e>
    80053120:	0af0                	addi	a2,sp,348
    80053122:	12f323e3          	0x12f323e3
    80053126:	f7ebfb03          	0xf7ebfb03
    8005312a:	def9                	beqz	a3,80053108 <ali1_data.1513+0x2108>
    8005312c:	11d5                	addi	gp,gp,-11
    8005312e:	d1080bf3          	0xd1080bf3
    80053132:	0435                	addi	s0,s0,13
    80053134:	e33e                	sd	a5,384(sp)
    80053136:	f909                	bnez	a0,80053048 <ali1_data.1513+0x2048>
    80053138:	1c10                	addi	a2,sp,560
    8005313a:	eb08                	sd	a0,16(a4)
    8005313c:	e221                	bnez	a2,8005317c <ali1_data.1513+0x217c>
    8005313e:	fde0eee7          	0xfde0eee7
    80053142:	eeff                	0xeeff
    80053144:	2610                	fld	fa2,8(a2)
    80053146:	ff00                	sd	s0,56(a4)
    80053148:	bfdc                	fsd	fa5,184(a5)
    8005314a:	f142f213          	andi	tp,t0,-236
    8005314e:	2c46                	fld	fs8,80(sp)
    80053150:	f9f4                	sd	a3,240(a1)
    80053152:	3002                	fld	ft0,32(sp)
    80053154:	0f05                	addi	t5,t5,1
    80053156:	1d2bfd4b          	0x1d2bfd4b
    8005315a:	f0f2                	sd	t3,96(sp)
    8005315c:	efda                	sd	s6,472(sp)
    8005315e:	e7e2                	sd	s8,456(sp)
    80053160:	e41ff0e7          	0xe41ff0e7
    80053164:	111c                	addi	a5,sp,160
    80053166:	11f1                	addi	gp,gp,-4
    80053168:	131a                	slli	t1,t1,0x26
    8005316a:	e8f1f907          	0xe8f1f907
    8005316e:	f009                	bnez	s0,80053070 <ali1_data.1513+0x2070>
    80053170:	fdfee303          	lwu	t1,-33(t4)
    80053174:	f1170433          	0xf1170433
    80053178:	e311f707          	0xe311f707
    8005317c:	170d                	addi	a4,a4,-29
    8005317e:	f911e60b          	0xf911e60b
    80053182:	f0ee                	sd	s11,96(sp)
    80053184:	1ffa                	slli	t6,t6,0x3e
    80053186:	fffe                	sd	t6,504(sp)
    80053188:	f9f4                	sd	a3,240(a1)
    8005318a:	0227e317          	auipc	t1,0x227e
    8005318e:	131c                	addi	a5,sp,416
    80053190:	e302                	sd	zero,384(sp)
    80053192:	0c18                	addi	a4,sp,528
    80053194:	f2d6                	sd	s5,352(sp)
    80053196:	ef25                	bnez	a4,8005320e <ali1_data.1513+0x220e>
    80053198:	f3070efb          	0xf3070efb
    8005319c:	0ef1                	addi	t4,t4,28
    8005319e:	f4ea                	sd	s10,104(sp)
    800531a0:	141e1ce7          	0x141e1ce7
    800531a4:	0400                	addi	s0,sp,512
    800531a6:	fe2121ef          	jal	gp,7ff65988 <__stack_size+0x7ff5d988>
    800531aa:	f709                	bnez	a4,800530b4 <ali1_data.1513+0x20b4>
    800531ac:	1ce4                	addi	s1,sp,636
    800531ae:	1716                	slli	a4,a4,0x25
    800531b0:	e701                	bnez	a4,800531b8 <ali1_data.1513+0x21b8>
    800531b2:	fb23151b          	0xfb23151b
    800531b6:	ed11f7db          	0xed11f7db
    800531ba:	f4e4                	sd	s1,232(s1)
    800531bc:	1c06                	slli	s8,s8,0x21
    800531be:	13f0                	addi	a2,sp,492
    800531c0:	f6d2                	sd	s4,360(sp)
    800531c2:	fa02                	sd	zero,304(sp)
    800531c4:	13e2                	slli	t2,t2,0x38
    800531c6:	0f10                	addi	a2,sp,912
    800531c8:	0111f3ef          	jal	t2,800729d8 <ali3_data.1513+0x1b6d8>
    800531cc:	1dd4                	addi	a3,sp,756
    800531ce:	05ec                	addi	a1,sp,716
    800531d0:	e6e6                	sd	s9,328(sp)
    800531d2:	0f00                	addi	s0,sp,912
    800531d4:	f8e00ad7          	0xf8e00ad7
    800531d8:	fef9                	bnez	a3,800531b6 <ali1_data.1513+0x21b6>
    800531da:	02f4                	addi	a3,sp,332
    800531dc:	f725                	bnez	a4,80053144 <ali1_data.1513+0x2144>
    800531de:	f2f0f417          	auipc	s0,0xf2f0f
    800531e2:	1808                	addi	a0,sp,48
    800531e4:	e7d5                	bnez	a5,80053290 <ali1_data.1513+0x2290>
    800531e6:	120a                	slli	tp,tp,0x22
    800531e8:	1d01eb0f          	0x1d01eb0f
    800531ec:	1109                	addi	sp,sp,-30
    800531ee:	2212                	fld	ft4,256(sp)
    800531f0:	0f04                	addi	s1,sp,912
    800531f2:	f122                	sd	s0,160(sp)
    800531f4:	de25                	beqz	a2,8005316c <ali1_data.1513+0x216c>
    800531f6:	2ec6                	fld	ft9,80(sp)
    800531f8:	f605                	bnez	a2,80053120 <ali1_data.1513+0x2120>
    800531fa:	0628                	addi	a0,sp,776
    800531fc:	21212ecf          	fnmadd.s	ft9,ft2,fs2,ft4,rdn
    80053200:	fd06                	sd	ra,184(sp)
    80053202:	3209                	addiw	tp,tp,-30
    80053204:	10f8                	addi	a4,sp,108
    80053206:	0808                	addi	a0,sp,16
    80053208:	ef050503          	lb	a0,-272(a0) # 8a132f86 <ali3_data.1513+0xa0dbc86>
    8005320c:	e409                	bnez	s0,80053216 <ali1_data.1513+0x2216>
    8005320e:	0cd9                	addi	s9,s9,22
    80053210:	e0f0                	sd	a2,192(s1)
    80053212:	00e8                	addi	a0,sp,76
    80053214:	101a                	c.slli	zero,0x26
    80053216:	0b16                	slli	s6,s6,0x5
    80053218:	e7dc                	sd	a5,136(a5)
    8005321a:	19170f23          	sb	a7,414(a4)
    8005321e:	0952                	slli	s2,s2,0x14
    80053220:	e209                	bnez	a2,80053222 <ali1_data.1513+0x2222>
    80053222:	0101                	addi	sp,sp,0
    80053224:	19ed                	addi	s3,s3,-5
    80053226:	fcfe                	sd	t6,120(sp)
    80053228:	1202                	slli	tp,tp,0x20
    8005322a:	efff                	0xefff
    8005322c:	fee8                	sd	a0,248(a3)
    8005322e:	df04e327          	0xdf04e327
    80053232:	f01bddfb          	0xf01bddfb
    80053236:	de003dd7          	0xde003dd7
    8005323a:	0c0e                	slli	s8,s8,0x3
    8005323c:	1914                	addi	a3,sp,176
    8005323e:	dbfef7ef          	jal	a5,80042ffc <__heap_end+0x1effc>
    80053242:	fc01eb13          	ori	s6,gp,-64
    80053246:	f12c                	sd	a1,96(a0)
    80053248:	f0dd07eb          	0xf0dd07eb
    8005324c:	0702                	c.slli64	a4
    8005324e:	3fd1                	addiw	t6,t6,-12
    80053250:	0b0c                	addi	a1,sp,400
    80053252:	f7f6                	sd	t4,488(sp)
    80053254:	f81c                	sd	a5,48(s0)
    80053256:	e3ea                	sd	s10,448(sp)
    80053258:	35f90d0b          	0x35f90d0b
    8005325c:	f4fc                	sd	a5,232(s1)
    8005325e:	d145                	beqz	a0,800531fe <ali1_data.1513+0x21fe>
    80053260:	1e0e                	slli	t3,t3,0x23
    80053262:	0ce4                	addi	s1,sp,604
    80053264:	fafa                	sd	t5,368(sp)
    80053266:	ecee                	sd	s11,88(sp)
    80053268:	06e0                	addi	s0,sp,844
    8005326a:	f8f6                	sd	t4,112(sp)
    8005326c:	e209                	bnez	a2,8005326e <ali1_data.1513+0x226e>
    8005326e:	e201                	bnez	a2,8005326e <ali1_data.1513+0x226e>
    80053270:	d900                	sw	s0,48(a0)
    80053272:	080e                	slli	a6,a6,0x3
    80053274:	23cc2f17          	auipc	t5,0x23cc2
    80053278:	311f eee8 f0ee      	0xf0eeeee8311f
    8005327e:	f7f2                	sd	t3,488(sp)
    80053280:	fd1d                	bnez	a0,800531be <ali1_data.1513+0x21be>
    80053282:	ed1a                	sd	t1,152(sp)
    80053284:	0a09                	addi	s4,s4,2
    80053286:	ed25                	bnez	a0,800532fe <ali1_data.1513+0x22fe>
    80053288:	f3fe                	sd	t6,480(sp)
    8005328a:	ddd9                	beqz	a1,80053228 <ali1_data.1513+0x2228>
    8005328c:	0301                	addi	t1,t1,0
    8005328e:	0edc                	addi	a5,sp,852
    80053290:	0c19                	addi	s8,s8,6
    80053292:	e715                	bnez	a4,800532be <ali1_data.1513+0x22be>
    80053294:	d61f ff13 0a23      	0xa23ff13d61f
    8005329a:	1502f4fb          	0x1502f4fb
    8005329e:	12e1f003          	0x12e1f003
    800532a2:	fd06                	sd	ra,184(sp)
    800532a4:	05f6                	slli	a1,a1,0x1d
    800532a6:	04ee                	slli	s1,s1,0x1b
    800532a8:	f20bed23          	0xf20bed23
    800532ac:	fff018f3          	csrrw	a7,0xfff,zero
    800532b0:	dc12                	sw	tp,56(sp)
    800532b2:	05c90807          	0x5c90807
    800532b6:	ed0c                	sd	a1,24(a0)
    800532b8:	e202                	sd	zero,256(sp)
    800532ba:	1005                	c.nop	-31
    800532bc:	2b09                	addiw	s6,s6,2
    800532be:	fe08                	sd	a0,56(a2)
    800532c0:	d604                	sw	s1,40(a2)
    800532c2:	18f2                	slli	a7,a7,0x3c
    800532c4:	f51c                	sd	a5,40(a0)
    800532c6:	d12d                	beqz	a0,80053228 <ali1_data.1513+0x2228>
    800532c8:	f911                	bnez	a0,800531dc <ali1_data.1513+0x21dc>
    800532ca:	06e5                	addi	a3,a3,25
    800532cc:	23f40b1b          	addiw	s6,s0,575
    800532d0:	1cf6                	slli	s9,s9,0x3d
    800532d2:	2c19                	addiw	s8,s8,6
    800532d4:	fa2c                	sd	a1,112(a2)
    800532d6:	fd42                	sd	a6,184(sp)
    800532d8:	1aff                	0x1aff
    800532da:	fbdc                	sd	a5,176(a5)
    800532dc:	0ade                	slli	s5,s5,0x17
    800532de:	f5e9                	bnez	a1,800532a8 <ali1_data.1513+0x22a8>
    800532e0:	1a04                	addi	s1,sp,304
    800532e2:	09f2                	slli	s3,s3,0x1c
    800532e4:	1af2f20f          	0x1af2f20f
    800532e8:	df0d                	beqz	a4,80053222 <ali1_data.1513+0x2222>
    800532ea:	f4ec                	sd	a1,232(s1)
    800532ec:	ea2c                	sd	a1,80(a2)
    800532ee:	fe09                	bnez	a2,80053208 <ali1_data.1513+0x2208>
    800532f0:	e615                	bnez	a2,8005331c <ali1_data.1513+0x231c>
    800532f2:	f5e8                	sd	a0,232(a1)
    800532f4:	14df 06f1 0214      	0x21406f114df
    800532fa:	1a1cf8f3          	csrrci	a7,0x1a1,25
    800532fe:	210d0503          	lb	a0,528(s10)
    80053302:	0be2                	slli	s7,s7,0x18
    80053304:	f81f da40 10e9      	0x10e9da40f81f
    8005330a:	f91817f7          	0xf91817f7
    8005330e:	fbf4e63b          	0xfbf4e63b
    80053312:	f512                	sd	tp,168(sp)
    80053314:	1aee                	slli	s5,s5,0x3b
    80053316:	f815                	bnez	s0,8005324a <ali1_data.1513+0x224a>
    80053318:	db04                	sw	s1,48(a4)
    8005331a:	0f12f5f3          	csrrci	a1,0xf1,5
    8005331e:	2008                	fld	fa0,0(s0)
    80053320:	ea06                	sd	ra,272(sp)
    80053322:	eb09                	bnez	a4,80053334 <ali1_data.1513+0x2334>
    80053324:	170e                	slli	a4,a4,0x23
    80053326:	e6fe                	sd	t6,328(sp)
    80053328:	e2f0                	sd	a2,192(a3)
    8005332a:	160d                	addi	a2,a2,-29
    8005332c:	fc0e                	sd	gp,56(sp)
    8005332e:	021f 060a 0912      	0x912060a021f
    80053334:	fbe006fb          	0xfbe006fb
    80053338:	e4e5                	bnez	s1,80053420 <ali1_data.1513+0x2420>
    8005333a:	0b16                	slli	s6,s6,0x5
    8005333c:	130d                	addi	t1,t1,-29
    8005333e:	0404111b          	0x404111b
    80053342:	0d0c                	addi	a1,sp,656
    80053344:	072c                	addi	a1,sp,904
    80053346:	f835                	bnez	s0,800532ba <ali1_data.1513+0x22ba>
    80053348:	01fd                	addi	gp,gp,31
    8005334a:	08fd2b0f          	0x8fd2b0f
    8005334e:	f102ec4f          	fnmadd.s	fs8,ft5,fa6,ft10,unknown
    80053352:	0914                	addi	a3,sp,144
    80053354:	e7ec1ff7          	0xe7ec1ff7
    80053358:	c615                	beqz	a2,80053384 <ali1_data.1513+0x2384>
    8005335a:	0914                	addi	a3,sp,144
    8005335c:	1228eb3f 08e10ef1 	0x8e10ef11228eb3f
    80053364:	e703ee0b          	0xe703ee0b
    80053368:	f1f8                	sd	a4,224(a1)
    8005336a:	1b12f10b          	0x1b12f10b
    8005336e:	0a1f e50a 1cfa      	0x1cfae50a0a1f
    80053374:	1adc                	addi	a5,sp,372
    80053376:	e9d9                	bnez	a1,8005340c <ali1_data.1513+0x240c>
    80053378:	0604                	addi	s1,sp,768
    8005337a:	f40e                	sd	gp,40(sp)
    8005337c:	f100                	sd	s0,32(a0)
    8005337e:	03efee27          	0x3efee27
    80053382:	1402                	slli	s0,s0,0x20
    80053384:	d62d                	beqz	a2,800532ee <ali1_data.1513+0x22ee>
    80053386:	df29                	beqz	a4,800532e0 <ali1_data.1513+0x22e0>
    80053388:	12e10023          	sb	a4,288(sp)
    8005338c:	13e9                	addi	t2,t2,-6
    8005338e:	1a11                	addi	s4,s4,-28
    80053390:	05ec                	addi	a1,sp,716
    80053392:	14e0                	addi	s0,sp,620
    80053394:	11de                	slli	gp,gp,0x37
    80053396:	1af9                	addi	s5,s5,-2
    80053398:	d3fe                	sw	t6,228(sp)
    8005339a:	ff05                	bnez	a4,800532d2 <ali1_data.1513+0x22d2>
    8005339c:	0e3e                	slli	t3,t3,0xf
    8005339e:	2758                	fld	fa4,136(a4)
    800533a0:	e421e5f7          	0xe421e5f7
    800533a4:	16f712ef          	jal	t0,800c4d12 <ali3_data.1513+0x6da12>
    800533a8:	dee2                	sw	s8,124(sp)
    800533aa:	0d19                	addi	s10,s10,6
    800533ac:	fc0d                	bnez	s0,800532e6 <ali1_data.1513+0x22e6>
    800533ae:	f8f8                	sd	a4,240(s1)
    800533b0:	1eedd90f          	0x1eedd90f
    800533b4:	f710                	sd	a2,40(a4)
    800533b6:	00e5                	addi	ra,ra,25
    800533b8:	3df9                	addiw	s11,s11,-2
    800533ba:	03f8f4e3          	bgeu	a7,t6,80053be2 <ali1_data.1513+0x2be2>
    800533be:	0915                	addi	s2,s2,5
    800533c0:	edec                	sd	a1,216(a1)
    800533c2:	071c                	addi	a5,sp,896
    800533c4:	eb29                	bnez	a4,80053416 <ali1_data.1513+0x2416>
    800533c6:	eb0a                	sd	sp,400(sp)
    800533c8:	e918                	sd	a4,16(a0)
    800533ca:	ef0e                	sd	gp,408(sp)
    800533cc:	0af2                	slli	s5,s5,0x1c
    800533ce:	171f 18f1 dbed      	0xdbed18f1171f
    800533d4:	ef00                	sd	s0,24(a4)
    800533d6:	0312                	slli	t1,t1,0x4
    800533d8:	0eea                	slli	t4,t4,0x1a
    800533da:	2828                	fld	fa0,80(s0)
    800533dc:	fd1a                	sd	t1,184(sp)
    800533de:	f764                	sd	s1,232(a4)
    800533e0:	1718                	addi	a4,sp,928
    800533e2:	11e6                	slli	gp,gp,0x39
    800533e4:	0e24                	addi	s1,sp,792
    800533e6:	1b00fae7          	0x1b00fae7
    800533ea:	d901                	beqz	a0,800532fa <ali1_data.1513+0x22fa>
    800533ec:	eff8                	sd	a4,216(a5)
    800533ee:	05ee                	slli	a1,a1,0x1b
    800533f0:	d508                	sw	a0,40(a0)
    800533f2:	e618                	sd	a4,8(a2)
    800533f4:	0c05                	addi	s8,s8,1
    800533f6:	1116                	slli	sp,sp,0x25
    800533f8:	0a2a                	slli	s4,s4,0xa
    800533fa:	e8fd                	bnez	s1,800534f0 <ali1_data.1513+0x24f0>
    800533fc:	2bee                	fld	fs7,216(sp)
    800533fe:	f8e2                	sd	s8,112(sp)
    80053400:	f6e5                	bnez	a3,800533e8 <ali1_data.1513+0x23e8>
    80053402:	eb1e                	sd	t2,400(sp)
    80053404:	fb30                	sd	a2,112(a4)
    80053406:	f824                	sd	s1,112(s0)
    80053408:	eaf0e1eb          	0xeaf0e1eb
    8005340c:	e4f0                	sd	a2,200(s1)
    8005340e:	eae0f9e7          	0xeae0f9e7
    80053412:	0505                	addi	a0,a0,1
    80053414:	f92a                	sd	a0,176(sp)
    80053416:	1bf1                	addi	s7,s7,-4
    80053418:	0611                	addi	a2,a2,4
    8005341a:	2504                	fld	fs1,8(a0)
    8005341c:	ea0c                	sd	a1,16(a2)
    8005341e:	d812                	sw	tp,48(sp)
    80053420:	14f5                	addi	s1,s1,-3
    80053422:	e316                	sd	t0,384(sp)
    80053424:	11ff                	0x11ff
    80053426:	e816100f          	0xe816100f
    8005342a:	d8fe                	sw	t6,112(sp)
    8005342c:	f0f2                	sd	t3,96(sp)
    8005342e:	22df 120b 0d1b      	0xd1b120b22df
    80053434:	defd                	beqz	a3,80053432 <ali1_data.1513+0x2432>
    80053436:	1224                	addi	s1,sp,296
    80053438:	ee24ef03          	lwu	t5,-286(s1)
    8005343c:	12f6                	slli	t0,t0,0x3d
    8005343e:	0411                	addi	s0,s0,4
    80053440:	0408                	addi	a0,sp,512
    80053442:	e8ea                	sd	s10,80(sp)
    80053444:	f935e823          	0xf935e823
    80053448:	04fa01f3          	0x4fa01f3
    8005344c:	e835                	bnez	s0,800534c0 <ali1_data.1513+0x24c0>
    8005344e:	1001                	c.nop	-32
    80053450:	f8fd                	bnez	s1,80053446 <ali1_data.1513+0x2446>
    80053452:	f601                	bnez	a2,8005335a <ali1_data.1513+0x235a>
    80053454:	0ef1                	addi	t4,t4,28
    80053456:	f9fd                	bnez	a1,8005344c <ali1_data.1513+0x244c>
    80053458:	ecf4                	sd	a3,216(s1)
    8005345a:	06e1                	addi	a3,a3,24
    8005345c:	1bcd                	addi	s7,s7,-13
    8005345e:	f5f00cef          	jal	s9,7ff543bc <__stack_size+0x7ff4c3bc>
    80053462:	fdf2                	sd	t3,248(sp)
    80053464:	01ee                	slli	gp,gp,0x1b
    80053466:	e910                	sd	a2,16(a0)
    80053468:	cef9                	beqz	a3,80053546 <ali1_data.1513+0x2546>
    8005346a:	f200                	sd	s0,32(a2)
    8005346c:	1318                	addi	a4,sp,416
    8005346e:	0ede                	slli	t4,t4,0x17
    80053470:	09f9d603          	lhu	a2,159(s3)
    80053474:	2efa                	fld	ft9,408(sp)
    80053476:	2811                	addiw	a6,a6,4
    80053478:	e4f1                	bnez	s1,80053544 <ali1_data.1513+0x2544>
    8005347a:	eb01                	bnez	a4,8005348a <ali1_data.1513+0x248a>
    8005347c:	27fc                	fld	fa5,200(a5)
    8005347e:	07eeeb1b          	0x7eeeb1b
    80053482:	e40c                	sd	a1,8(s0)
    80053484:	e518                	sd	a4,8(a0)
    80053486:	f3ff                	0xf3ff
    80053488:	03fc                	addi	a5,sp,460
    8005348a:	270e                	fld	fa4,192(sp)
    8005348c:	2a20                	fld	fs0,80(a2)
    8005348e:	291e                	fld	fs2,448(sp)
    80053490:	eae1                	bnez	a3,80053560 <ali1_data.1513+0x2560>
    80053492:	1ff9                	addi	t6,t6,-2
    80053494:	11f6                	slli	gp,gp,0x3d
    80053496:	e226                	sd	s1,256(sp)
    80053498:	c7f6                	sw	t4,204(sp)
    8005349a:	ddee                	sw	s11,248(sp)
    8005349c:	1808                	addi	a0,sp,48
    8005349e:	21d8                	fld	fa4,128(a1)
    800534a0:	00f8                	addi	a4,sp,76
    800534a2:	f501                	bnez	a0,800533aa <ali1_data.1513+0x23aa>
    800534a4:	0506                	slli	a0,a0,0x1
    800534a6:	0f01                	addi	t5,t5,0
    800534a8:	fdfe                	sd	t6,248(sp)
    800534aa:	1a16e4e3          	bltu	a3,ra,80053e52 <ali1_data.1513+0x2e52>
    800534ae:	0fec1717          	auipc	a4,0xfec1
    800534b2:	ff15                	bnez	a4,800533ee <ali1_data.1513+0x23ee>
    800534b4:	1cf0                	addi	a2,sp,636
    800534b6:	f106                	sd	ra,160(sp)
    800534b8:	01ea                	slli	gp,gp,0x1a
    800534ba:	13de02ef          	jal	t0,80133df6 <ali3_data.1513+0xdcaf6>
    800534be:	fd38                	sd	a4,120(a0)
    800534c0:	0cfe1207          	0xcfe1207
    800534c4:	0b1c                	addi	a5,sp,400
    800534c6:	210d                	addiw	sp,sp,3
    800534c8:	01f21cfb          	0x1f21cfb
    800534cc:	f3eff63f 22e41419 	0x22e41419f3eff63f
    800534d4:	031d                	addi	t1,t1,7
    800534d6:	040aef07          	0x40aef07
    800534da:	fa28e117          	auipc	sp,0xfa28e
    800534de:	10150a23          	sb	ra,276(a0)
    800534e2:	0216                	slli	tp,tp,0x5
    800534e4:	11de060f          	0x11de060f
    800534e8:	d0f4                	sw	a3,100(s1)
    800534ea:	f9e6                	sd	s9,240(sp)
    800534ec:	f739                	bnez	a4,8005343a <ali1_data.1513+0x243a>
    800534ee:	143d                	addi	s0,s0,-17
    800534f0:	10f5                	addi	ra,ra,-3
    800534f2:	17e9                	addi	a5,a5,-6
    800534f4:	1904                	addi	s1,sp,176
    800534f6:	fbe2                	sd	s8,496(sp)
    800534f8:	091a                	slli	s2,s2,0x6
    800534fa:	08171bf7          	0x8171bf7
    800534fe:	041a                	slli	s0,s0,0x6
    80053500:	f5f2                	sd	t3,232(sp)
    80053502:	ffe6                	sd	s9,504(sp)
    80053504:	00f9                	addi	ra,ra,30
    80053506:	f111                	bnez	a0,8005340a <ali1_data.1513+0x240a>
    80053508:	f618                	sd	a4,40(a2)
    8005350a:	11ea                	slli	gp,gp,0x3a
    8005350c:	fff4                	sd	a3,248(a5)
    8005350e:	14f0                	addi	a2,sp,620
    80053510:	100e                	c.slli	zero,0x23
    80053512:	03fa                	slli	t2,t2,0x1e
    80053514:	f9e5                	bnez	a1,80053504 <ali1_data.1513+0x2504>
    80053516:	eb06                	sd	ra,400(sp)
    80053518:	f8fe                	sd	t6,112(sp)
    8005351a:	161e                	slli	a2,a2,0x27
    8005351c:	161b1657          	0x161b1657
    80053520:	17f108f7          	0x17f108f7
    80053524:	1ef5efeb          	0x1ef5efeb
    80053528:	e920                	sd	s0,80(a0)
    8005352a:	0002                	c.slli64	zero
    8005352c:	0c042133          	0xc042133
    80053530:	f4f4                	sd	a3,232(s1)
    80053532:	02f8                	addi	a4,sp,332
    80053534:	dbff                	0xdbff
    80053536:	1512f803          	0x1512f803
    8005353a:	f9f0                	sd	a2,240(a1)
    8005353c:	f4ed                	bnez	s1,80053526 <ali1_data.1513+0x2526>
    8005353e:	e2dde513          	ori	a0,s11,-467
    80053542:	e6e4fa23          	0xe6e4fa23
    80053546:	db00160b          	0xdb00160b
    8005354a:	f5f9                	bnez	a1,80053518 <ali1_data.1513+0x2518>
    8005354c:	0e1a                	slli	t3,t3,0x6
    8005354e:	ed0321f7          	0xed0321f7
    80053552:	f9f6                	sd	t4,240(sp)
    80053554:	19e01023          	sh	t5,384(zero) # 180 <__stack_align+0x170>
    80053558:	d4e9                	beqz	s1,80053522 <ali1_data.1513+0x2522>
    8005355a:	1ff0                	addi	a2,sp,1020
    8005355c:	fd3a                	sd	a4,184(sp)
    8005355e:	1539                	addi	a0,a0,-18
    80053560:	13fd                	addi	t2,t2,-1
    80053562:	e709                	bnez	a4,8005356c <ali1_data.1513+0x256c>
    80053564:	1de2                	slli	s11,s11,0x38
    80053566:	e50d                	bnez	a0,80053590 <ali1_data.1513+0x2590>
    80053568:	1ffef62b          	0x1ffef62b
    8005356c:	0af9                	addi	s5,s5,30
    8005356e:	f60e                	sd	gp,296(sp)
    80053570:	fce4                	sd	s1,248(s1)
    80053572:	1eefe90f          	0x1eefe90f
    80053576:	1e02fbef          	jal	s7,80082756 <ali3_data.1513+0x2b456>
    8005357a:	12e6                	slli	t0,t0,0x39
    8005357c:	fee2                	sd	s8,376(sp)
    8005357e:	e404efef          	jal	t6,7ffa1bbe <__stack_size+0x7ff99bbe>
    80053582:	eaf3bae3          	0xeaf3bae3
    80053586:	eb081d03          	lh	s10,-336(a6)
    8005358a:	f9d1                	bnez	a1,8005351e <ali1_data.1513+0x251e>
    8005358c:	0eee051b          	addiw	a0,t3,238
    80053590:	0efd                	addi	t4,t4,31
    80053592:	e2ec                	sd	a1,192(a3)
    80053594:	fc00                	sd	s0,56(s0)
    80053596:	191f ede3 fe15      	0xfe15ede3191f
    8005359c:	f2dd                	bnez	a3,80053542 <ali1_data.1513+0x2542>
    8005359e:	dd1e                	sw	t2,184(sp)
    800535a0:	f304                	sd	s1,32(a4)
    800535a2:	fae2                	sd	s8,368(sp)
    800535a4:	f604                	sd	s1,40(a2)
    800535a6:	f3fe                	sd	t6,480(sp)
    800535a8:	03d1                	addi	t2,t2,20
    800535aa:	0aec                	addi	a1,sp,348
    800535ac:	02410fe7          	jalr	t6,36(sp) # 7a2e14fe <__stack_size+0x7a2d94fe>
    800535b0:	df18                	sw	a4,56(a4)
    800535b2:	1022                	c.slli	zero,0x28
    800535b4:	e3180407          	0xe3180407
    800535b8:	0a12                	slli	s4,s4,0x4
    800535ba:	e2dc                	sd	a5,128(a3)
    800535bc:	021315ef          	jal	a1,80084ddc <ali3_data.1513+0x2dadc>
    800535c0:	f108                	sd	a0,32(a0)
    800535c2:	d4d8                	sw	a4,44(s1)
    800535c4:	e724                	sd	s1,72(a4)
    800535c6:	24ecf9fb          	0x24ecf9fb
    800535ca:	2602                	fld	fa2,0(sp)
    800535cc:	f015                	bnez	s0,800534f0 <ali1_data.1513+0x24f0>
    800535ce:	ee2d                	bnez	a2,80053648 <ali1_data.1513+0x2648>
    800535d0:	ff05                	bnez	a4,80053508 <ali1_data.1513+0x2508>
    800535d2:	e91e                	sd	t2,144(sp)
    800535d4:	e8de                	sd	s7,80(sp)
    800535d6:	1013e823          	0x1013e823
    800535da:	22fd19f3          	csrrw	s3,0x22f,s10
    800535de:	f40cf8ef          	jal	a7,80022d1e <__global_pointer$+0x1f19e>
    800535e2:	fb22                	sd	s0,432(sp)
    800535e4:	dfe5                	beqz	a5,800535dc <ali1_data.1513+0x25dc>
    800535e6:	0416fdf7          	0x416fdf7
    800535ea:	25e6                	fld	fa1,88(sp)
    800535ec:	0f01                	addi	t5,t5,0
    800535ee:	fcf8                	sd	a4,248(s1)
    800535f0:	16f0                	addi	a2,sp,876
    800535f2:	2a09                	addiw	s4,s4,2
    800535f4:	f1dd                	bnez	a1,8005359a <ali1_data.1513+0x259a>
    800535f6:	f8e5                	bnez	s1,800535e6 <ali1_data.1513+0x25e6>
    800535f8:	e90a                	sd	sp,144(sp)
    800535fa:	ebea                	sd	s10,464(sp)
    800535fc:	1cf427eb          	0x1cf427eb
    80053600:	fbd6                	sd	s5,496(sp)
    80053602:	15f8e1d3          	0x15f8e1d3
    80053606:	051c1203          	lh	tp,81(s8) # 9904310d <ali3_data.1513+0x18febe0d>
    8005360a:	1006                	c.slli	zero,0x21
    8005360c:	eb24                	sd	s1,80(a4)
    8005360e:	233d                	addiw	t1,t1,15
    80053610:	0312                	slli	t1,t1,0x4
    80053612:	e50d19fb          	0xe50d19fb
    80053616:	f018                	sd	a4,32(s0)
    80053618:	0fe51423          	sh	t5,232(a0)
    8005361c:	37dd15e3          	bne	s10,t4,80054186 <ali1_data.1513+0x3186>
    80053620:	1f2202e7          	jalr	t0,498(tp) # 0 <__boot_hart>
    80053624:	0319                	addi	t1,t1,6
    80053626:	10f2                	slli	ra,ra,0x3c
    80053628:	f41700fb          	0xf41700fb
    8005362c:	fc11                	bnez	s0,80053548 <ali1_data.1513+0x2548>
    8005362e:	132713f7          	0x132713f7
    80053632:	17fd                	addi	a5,a5,-1
    80053634:	1126                	slli	sp,sp,0x29
    80053636:	f009                	bnez	s0,80053538 <ali1_data.1513+0x2538>
    80053638:	1620                	addi	s0,sp,808
    8005363a:	13fd                	addi	t2,t2,-1
    8005363c:	17ff                	0x17ff
    8005363e:	24ddfc03          	0x24ddfc03
    80053642:	e5fd                	bnez	a1,80053730 <ali1_data.1513+0x2730>
    80053644:	fd0e                	sd	gp,184(sp)
    80053646:	da16                	sw	t0,52(sp)
    80053648:	32e0                	fld	fs0,224(a3)
    8005364a:	1f52                	slli	t5,t5,0x34
    8005364c:	e434                	sd	a3,72(s0)
    8005364e:	f02e                	sd	a1,32(sp)
    80053650:	ee19                	bnez	a2,8005366e <ali1_data.1513+0x266e>
    80053652:	f328                	sd	a0,96(a4)
    80053654:	08e6                	slli	a7,a7,0x19
    80053656:	fb0c                	sd	a1,48(a4)
    80053658:	d6ff0723          	sb	a5,-658(t5) # a3d14fe2 <ali3_data.1513+0x23cbdce2>
    8005365c:	321b0bfb          	0x321b0bfb
    80053660:	04ff                	0x4ff
    80053662:	1bff                	0x1bff
    80053664:	1b2d                	addi	s6,s6,-21
    80053666:	1c2af607          	0x1c2af607
    8005366a:	d9fe                	sw	t6,240(sp)
    8005366c:	121d                	addi	tp,tp,-25
    8005366e:	19e72af3          	csrrs	s5,0x19e,a4
    80053672:	1df1                	addi	s11,s11,-4
    80053674:	1029                	c.nop	-22
    80053676:	28fe0217          	auipc	tp,0x28fe0
    8005367a:	12fc                	addi	a5,sp,364
    8005367c:	2b0d                	addiw	s6,s6,3
    8005367e:	0e1cf30b          	0xe1cf30b
    80053682:	cf00                	sw	s0,24(a4)
    80053684:	d905                	beqz	a0,800535b4 <ali1_data.1513+0x25b4>
    80053686:	f4ff                	0xf4ff
    80053688:	16d0                	addi	a2,sp,868
    8005368a:	2540                	fld	fs0,136(a0)
    8005368c:	e82c                	sd	a1,80(s0)
    8005368e:	1c1d                	addi	s8,s8,-25
    80053690:	2212                	fld	ft4,256(sp)
    80053692:	d21d                	beqz	a2,800535b8 <ali1_data.1513+0x25b8>
    80053694:	10ec                	addi	a1,sp,108
    80053696:	f6f0                	sd	a2,232(a3)
    80053698:	f00a                	sd	sp,32(sp)
    8005369a:	f2c5                	bnez	a3,8005363a <ali1_data.1513+0x263a>
    8005369c:	eeed                	bnez	a3,80053796 <ali1_data.1513+0x2796>
    8005369e:	17f92503          	lw	a0,383(s2)
    800536a2:	1f09                	addi	t5,t5,-30
    800536a4:	052d                	addi	a0,a0,11
    800536a6:	0715d7fb          	0x715d7fb
    800536aa:	f9da                	sd	s6,240(sp)
    800536ac:	0816                	slli	a6,a6,0x5
    800536ae:	0ff1                	addi	t6,t6,28
    800536b0:	f4dd0bd7          	0xf4dd0bd7
    800536b4:	e5ec                	sd	a1,200(a1)
    800536b6:	dd12                	sw	tp,184(sp)
    800536b8:	0fdff803          	0xfdff803
    800536bc:	1aea                	slli	s5,s5,0x3a
    800536be:	f634feeb          	0xf634feeb
    800536c2:	f806                	sd	ra,48(sp)
    800536c4:	03f2                	slli	t2,t2,0x1c
    800536c6:	19de                	slli	s3,s3,0x37
    800536c8:	1be4                	addi	s1,sp,508
    800536ca:	db0bacbb          	0xdb0bacbb
    800536ce:	f9e4                	sd	s1,240(a1)
    800536d0:	1bf8                	addi	a4,sp,508
    800536d2:	1de110e3          	bne	sp,t5,80054092 <ali1_data.1513+0x3092>
    800536d6:	f501eb27          	0xf501eb27
    800536da:	e902                	sd	zero,144(sp)
    800536dc:	ea19                	bnez	a2,800536f2 <ali1_data.1513+0x26f2>
    800536de:	101cd52b          	0x101cd52b
    800536e2:	0bfc                	addi	a5,sp,476
    800536e4:	f8f6                	sd	t4,112(sp)
    800536e6:	ebce240f          	0xebce240f
    800536ea:	f2ec                	sd	a1,224(a3)
    800536ec:	34e5                	addiw	s1,s1,-7
    800536ee:	18ccdf4b          	fnmsub.s	ft10,fs9,fa2,ft3,unknown
    800536f2:	eddc                	sd	a5,152(a1)
    800536f4:	d9061f27          	0xd9061f27
    800536f8:	d6e019eb          	0xd6e019eb
    800536fc:	f3e5                	bnez	a5,800536dc <ali1_data.1513+0x26dc>
    800536fe:	1529                	addi	a0,a0,-22
    80053700:	e7e3d323          	0xe7e3d323
    80053704:	0efcf0f7          	0xefcf0f7
    80053708:	cbcff10b          	0xcbcff10b
    8005370c:	e8e0c84f          	fnmadd.s	fa6,ft1,fa4,ft9,rmm
    80053710:	eeed                	bnez	a3,8005380a <ali1_data.1513+0x280a>
    80053712:	22ed                	addiw	t0,t0,27
    80053714:	fafe                	sd	t6,368(sp)
    80053716:	030c                	addi	a1,sp,384
    80053718:	180e                	slli	a6,a6,0x23
    8005371a:	1cfd                	addi	s9,s9,-1
    8005371c:	13d8                	addi	a4,sp,484
    8005371e:	ff02                	sd	zero,440(sp)
    80053720:	0d24                	addi	s1,sp,664
    80053722:	0315                	addi	t1,t1,5
    80053724:	0ff6                	slli	t6,t6,0x1d
    80053726:	291c                	fld	fa5,16(a0)
    80053728:	eff0                	sd	a2,216(a5)
    8005372a:	3e0b26ef          	jal	a3,80105b0a <ali3_data.1513+0xae80a>
    8005372e:	d720                	sw	s0,104(a4)
    80053730:	1cfc                	addi	a5,sp,636
    80053732:	09e1                	addi	s3,s3,24
    80053734:	f414                	sd	a3,40(s0)
    80053736:	fae0                	sd	s0,240(a3)
    80053738:	ee01                	bnez	a2,80053750 <ali1_data.1513+0x2750>
    8005373a:	2e06091b          	addiw	s2,a2,736
    8005373e:	e128f71b          	0xe128f71b
    80053742:	fcff                	0xfcff
    80053744:	10f4f3f3          	csrrci	t2,0x10f,9
    80053748:	15e0                	addi	s0,sp,748
    8005374a:	bb64e7eb          	0xbb64e7eb
    8005374e:	fb1e                	sd	t2,432(sp)
    80053750:	f0f8                	sd	a4,224(s1)
    80053752:	0af6                	slli	s5,s5,0x1d
    80053754:	04f1                	addi	s1,s1,28
    80053756:	de24                	sw	s1,120(a2)
    80053758:	0d06eaef          	jal	s5,800c1828 <ali3_data.1513+0x6a528>
    8005375c:	31032ac7          	fmsub.s	fs5,ft6,fa6,ft6,rdn
    80053760:	02fe                	slli	t0,t0,0x1f
    80053762:	0bee                	slli	s7,s7,0x1b
    80053764:	08fc                	addi	a5,sp,92
    80053766:	1fe5                	addi	t6,t6,-7
    80053768:	f1ea070f          	0xf1ea070f
    8005376c:	e4ee                	sd	s11,72(sp)
    8005376e:	00f1                	addi	ra,ra,28
    80053770:	03f2                	slli	t2,t2,0x1c
    80053772:	ecde                	sd	s7,88(sp)
    80053774:	0708                	addi	a0,sp,896
    80053776:	e204                	sd	s1,0(a2)
    80053778:	3020                	fld	fs0,96(s0)
    8005377a:	10ec                	addi	a1,sp,108
    8005377c:	3b01                	addiw	s6,s6,-32
    8005377e:	11140407          	0x11140407
    80053782:	1801                	addi	a6,a6,-32
    80053784:	04dc                	addi	a5,sp,580
    80053786:	05de                	slli	a1,a1,0x17
    80053788:	0ed5                	addi	t4,t4,21
    8005378a:	d6be                	sw	a5,108(sp)
    8005378c:	d348                	sw	a0,36(a4)
    8005378e:	f315                	bnez	a4,800536b2 <ali1_data.1513+0x26b2>
    80053790:	281ee8d7          	0x281ee8d7
    80053794:	dcfa                	sw	t5,120(sp)
    80053796:	2514                	fld	fa3,8(a0)
    80053798:	202e                	fld	ft0,200(sp)
    8005379a:	ee08                	sd	a0,24(a2)
    8005379c:	04fe                	slli	s1,s1,0x1f
    8005379e:	29de                	fld	fs3,464(sp)
    800537a0:	0701                	addi	a4,a4,0
    800537a2:	f7f2                	sd	t3,488(sp)
    800537a4:	16f5                	addi	a3,a3,-3
    800537a6:	251a22ef          	jal	t0,800f61f6 <ali3_data.1513+0x9eef6>
    800537aa:	f8fc                	sd	a5,240(s1)
    800537ac:	1003190f          	0x1003190f
    800537b0:	f208                	sd	a0,32(a2)
    800537b2:	c9d6                	sw	s5,208(sp)
    800537b4:	d704                	sw	s1,40(a4)
    800537b6:	05040907          	0x5040907
    800537ba:	05e9                	addi	a1,a1,26
    800537bc:	15f0                	addi	a2,sp,748
    800537be:	e504e61b          	0xe504e61b
    800537c2:	eb080d03          	lb	s10,-336(a6)
    800537c6:	1618eefb          	0x1618eefb
    800537ca:	cf08                	sw	a0,24(a4)
    800537cc:	ef0de90b          	0xef0de90b
    800537d0:	f109                	bnez	a0,800536d2 <ali1_data.1513+0x26d2>
    800537d2:	1415                	addi	s0,s0,-27
    800537d4:	dced                	beqz	s1,800537ce <ali1_data.1513+0x27ce>
    800537d6:	15071f03          	lh	t5,336(a4) # 8ff145fe <ali3_data.1513+0xfebd2fe>
    800537da:	cdd8                	sw	a4,28(a1)
    800537dc:	04f2                	slli	s1,s1,0x1c
    800537de:	061d                	addi	a2,a2,7
    800537e0:	1cec                	addi	a1,sp,636
    800537e2:	1606                	slli	a2,a2,0x21
    800537e4:	26fc                	fld	fa5,200(a3)
    800537e6:	ecfe                	sd	t6,88(sp)
    800537e8:	eced                	bnez	s1,800538e2 <ali1_data.1513+0x28e2>
    800537ea:	20eaf9fb          	0x20eaf9fb
    800537ee:	ed25                	bnez	a0,80053866 <ali1_data.1513+0x2866>
    800537f0:	0afd                	addi	s5,s5,31
    800537f2:	07e5                	addi	a5,a5,25
    800537f4:	ffea                	sd	s10,504(sp)
    800537f6:	cef6                	sw	t4,92(sp)
    800537f8:	f21c                	sd	a5,32(a2)
    800537fa:	e105                	bnez	a0,8005381a <ali1_data.1513+0x281a>
    800537fc:	1de8                	addi	a0,sp,764
    800537fe:	17e5                	addi	a5,a5,-7
    80053800:	203d020b          	0x203d020b
    80053804:	d40e                	sw	gp,40(sp)
    80053806:	1e1f 021f d337      	0xd337021f1e1f
    8005380c:	c2cc                	sw	a1,4(a3)
    8005380e:	27d2                	fld	fa5,272(sp)
    80053810:	f3ddfe03          	0xf3ddfe03
    80053814:	1b18                	addi	a4,sp,432
    80053816:	e1fc                	sd	a5,192(a1)
    80053818:	d5dd                	beqz	a1,800537c6 <ali1_data.1513+0x27c6>
    8005381a:	c7f2                	sw	t3,204(sp)
    8005381c:	f0fc                	sd	a5,224(s1)
    8005381e:	d90aed23          	0xd90aed23
    80053822:	e624                	sd	s1,72(a2)
    80053824:	14d9                	addi	s1,s1,-10
    80053826:	eaf0                	sd	a2,208(a3)
    80053828:	e9d9                	bnez	a1,800538be <ali1_data.1513+0x28be>
    8005382a:	06e1                	addi	a3,a3,24
    8005382c:	f0242203          	lw	tp,-254(s0) # 72f620e0 <__stack_size+0x72f5a0e0>
    80053830:	cce10a0b          	0xcce10a0b
    80053834:	eef9                	bnez	a3,80053912 <ali1_data.1513+0x2912>
    80053836:	25be                	fld	fa1,456(sp)
    80053838:	e3f8                	sd	a4,192(a5)
    8005383a:	ec10                	sd	a2,24(s0)
    8005383c:	11500e0f          	0x11500e0f
    80053840:	f932                	sd	a2,176(sp)
    80053842:	3640                	fld	fs0,168(a2)
    80053844:	fcf4                	sd	a3,248(s1)
    80053846:	02fa                	slli	t0,t0,0x1e
    80053848:	e200ea33          	0xe200ea33
    8005384c:	d4d4                	sw	a3,44(s1)
    8005384e:	5ede                	lw	t4,244(sp)
    80053850:	17da                	slli	a5,a5,0x36
    80053852:	00f0                	addi	a2,sp,76
    80053854:	fbf4                	sd	a3,240(a5)
    80053856:	e0fa                	sd	t5,64(sp)
    80053858:	e6e4                	sd	s1,200(a3)
    8005385a:	18e1                	addi	a7,a7,-8
    8005385c:	f740e8eb          	0xf740e8eb
    80053860:	fe12                	sd	tp,312(sp)
    80053862:	f701                	bnez	a4,8005376a <ali1_data.1513+0x276a>
    80053864:	f610                	sd	a2,40(a2)
    80053866:	ed1c                	sd	a5,24(a0)
    80053868:	0c06                	slli	s8,s8,0x1
    8005386a:	fefe                	sd	t6,376(sp)
    8005386c:	24f4                	fld	fa3,200(s1)
    8005386e:	ed16                	sd	t0,152(sp)
    80053870:	bfc1dc27          	0xbfc1dc27
    80053874:	da25                	beqz	a2,800537e4 <ali1_data.1513+0x27e4>
    80053876:	fcd2                	sd	s4,120(sp)
    80053878:	f1fa                	sd	t5,224(sp)
    8005387a:	67d60ce7          	jalr	s9,1661(a2) # 910241ef <ali3_data.1513+0x10fcceef>
    8005387e:	e61f f508 3b57      	0x3b57f508e61f
    80053884:	f9f5                	bnez	a1,80053878 <ali1_data.1513+0x2878>
    80053886:	eb3ef513          	andi	a0,t4,-333
    8005388a:	baf0                	fsd	fa2,240(a3)
    8005388c:	3ae0f4e7          	0x3ae0f4e7
    80053890:	0606                	slli	a2,a2,0x1
    80053892:	be06                	fsd	ft1,312(sp)
    80053894:	dc08e51b          	0xdc08e51b
    80053898:	012ee0d3          	fadd.s	ft1,ft9,fs2,unknown
    8005389c:	fede                	sd	s7,376(sp)
    8005389e:	e131                	bnez	a0,800538e2 <ali1_data.1513+0x28e2>
    800538a0:	13e1                	addi	t2,t2,-8
    800538a2:	1efe                	slli	t4,t4,0x3f
    800538a4:	fe04                	sd	s1,56(a2)
    800538a6:	e6e0                	sd	s0,200(a3)
    800538a8:	14d50803          	lb	a6,333(a0)
    800538ac:	da05                	beqz	a2,800537dc <ali1_data.1513+0x27dc>
    800538ae:	ef04                	sd	s1,24(a4)
    800538b0:	eefff92f          	0xeefff92f
    800538b4:	15f9eff7          	0x15f9eff7
    800538b8:	0b1f c2e4 d1e7      	0xd1e7c2e40b1f
    800538be:	2805                	addiw	a6,a6,1
    800538c0:	3b4cf603          	0x3b4cf603
    800538c4:	25f6                	fld	fa1,344(sp)
    800538c6:	eadd2507          	flw	fa0,-339(s10)
    800538ca:	e6e6                	sd	s9,328(sp)
    800538cc:	fdf5edef          	jal	s11,7ffb28aa <__stack_size+0x7ffaa8aa>
    800538d0:	eff8                	sd	a4,216(a5)
    800538d2:	0add                	addi	s5,s5,23
    800538d4:	f91f f312 0717      	0x717f312f91f
    800538da:	064a                	slli	a2,a2,0x12
    800538dc:	0fe0                	addi	s0,sp,988
    800538de:	1cea                	slli	s9,s9,0x3a
    800538e0:	dd18e127          	0xdd18e127
    800538e4:	10e4                	addi	s1,sp,108
    800538e6:	e7fa                	sd	t5,456(sp)
    800538e8:	f5d6f9fb          	0xf5d6f9fb
    800538ec:	f710                	sd	a2,40(a4)
    800538ee:	fbfe                	sd	t6,496(sp)
    800538f0:	ea18                	sd	a4,16(a2)
    800538f2:	ec06                	sd	ra,24(sp)
    800538f4:	15181ceb          	0x15181ceb
    800538f8:	ffff                	0xffff
    800538fa:	e4e6                	sd	s9,72(sp)
    800538fc:	fefa                	sd	t5,376(sp)
    800538fe:	0904                	addi	s1,sp,144
    80053900:	1000                	addi	s0,sp,32
    80053902:	1234                	addi	a3,sp,296
    80053904:	f4f1                	bnez	s1,800538d0 <ali1_data.1513+0x28d0>
    80053906:	1af2                	slli	s5,s5,0x3c
    80053908:	e7fd                	bnez	a5,800539f6 <ali1_data.1513+0x29f6>
    8005390a:	fd14                	sd	a3,56(a0)
    8005390c:	f60a                	sd	sp,296(sp)
    8005390e:	11df1b13          	0x11df1b13
    80053912:	11e9                	addi	gp,gp,-6
    80053914:	d814                	sw	a3,48(s0)
    80053916:	e608                	sd	a0,8(a2)
    80053918:	dcf31807          	0xdcf31807
    8005391c:	fadc                	sd	a5,176(a3)
    8005391e:	3901                	addiw	s2,s2,-32
    80053920:	ffee                	sd	s11,504(sp)
    80053922:	e2e9                	bnez	a3,800539e4 <ali1_data.1513+0x29e4>
    80053924:	faf63417          	auipc	s0,0xfaf63
    80053928:	15ea12e7          	0x15ea12e7
    8005392c:	200d                	0x200d
    8005392e:	e20bec0b          	0xe20bec0b
    80053932:	fbff                	0xfbff
    80053934:	0c14                	addi	a3,sp,528
    80053936:	0df2                	slli	s11,s11,0x1c
    80053938:	1a24                	addi	s1,sp,312
    8005393a:	13dc                	addi	a5,sp,484
    8005393c:	0c00                	addi	s0,sp,528
    8005393e:	31ff                	0x31ff
    80053940:	1e00                	addi	s0,sp,816
    80053942:	0836                	slli	a6,a6,0xd
    80053944:	1026                	c.slli	zero,0x29
    80053946:	0b21                	addi	s6,s6,8
    80053948:	f815                	bnez	s0,8005387c <ali1_data.1513+0x287c>
    8005394a:	311a                	fld	ft2,416(sp)
    8005394c:	d71c                	sw	a5,40(a4)
    8005394e:	f0de08fb          	0xf0de08fb
    80053952:	f802                	sd	zero,48(sp)
    80053954:	02040103          	lb	sp,32(s0) # 7afb6944 <__stack_size+0x7afae944>
    80053958:	cbc9ded7          	0xcbc9ded7
    8005395c:	eb1f e3fb 0910      	0x910e3fbeb1f
    80053962:	1124                	addi	s1,sp,168
    80053964:	16f229eb          	0x16f229eb
    80053968:	eaf5                	bnez	a3,80053a5c <ali1_data.1513+0x2a5c>
    8005396a:	0c00                	addi	s0,sp,528
    8005396c:	1219                	addi	tp,tp,-26
    8005396e:	dd2d                	beqz	a0,800538e8 <ali1_data.1513+0x28e8>
    80053970:	f609                	bnez	a2,8005387a <ali1_data.1513+0x287a>
    80053972:	0909                	addi	s2,s2,2
    80053974:	cb12                	sw	tp,148(sp)
    80053976:	0ed8                	addi	a4,sp,852
    80053978:	ffd9                	bnez	a5,80053916 <ali1_data.1513+0x2916>
    8005397a:	2d121efb          	0x2d121efb
    8005397e:	e43e                	sd	a5,8(sp)
    80053980:	3fe4                	fld	fs1,248(a5)
    80053982:	1212                	slli	tp,tp,0x24
    80053984:	fb40                	sd	s0,176(a4)
    80053986:	d71c                	sw	a5,40(a4)
    80053988:	041e                	slli	s0,s0,0x7
    8005398a:	3b1f 0724 41fc      	0x41fc07243b1f
    80053990:	0707110f          	0x707110f
    80053994:	f2e2                	sd	s8,352(sp)
    80053996:	ebe5                	bnez	a5,80053a86 <ali1_data.1513+0x2a86>
    80053998:	09eb14eb          	0x9eb14eb
    8005399c:	ea13db0f          	0xea13db0f
    800539a0:	22ea                	fld	ft5,152(sp)
    800539a2:	e9fa                	sd	t5,208(sp)
    800539a4:	f9f0                	sd	a2,240(a1)
    800539a6:	03ee                	slli	t2,t2,0x1b
    800539a8:	1de8                	addi	a0,sp,764
    800539aa:	2b11                	addiw	s6,s6,4
    800539ac:	09f9                	addi	s3,s3,30
    800539ae:	db35                	beqz	a4,80053922 <ali1_data.1513+0x2922>
    800539b0:	1b02                	slli	s6,s6,0x20
    800539b2:	0c0d                	addi	s8,s8,3
    800539b4:	f810                	sd	a2,48(s0)
    800539b6:	0c12                	slli	s8,s8,0x4
    800539b8:	1309                	addi	t1,t1,-30
    800539ba:	0ad704db          	0xad704db
    800539be:	ec1a                	sd	t1,24(sp)
    800539c0:	2b00                	fld	fs0,16(a4)
    800539c2:	ec1eee2b          	0xec1eee2b
    800539c6:	0804                	addi	s1,sp,16
    800539c8:	2b05                	addiw	s6,s6,1
    800539ca:	1f41                	addi	t5,t5,-16
    800539cc:	f5f2                	sd	t3,232(sp)
    800539ce:	4df5                	li	s11,29
    800539d0:	e3eef1e7          	0xe3eef1e7
    800539d4:	f10e                	sd	gp,160(sp)
    800539d6:	2910                	fld	fa2,16(a0)
    800539d8:	f9cc                	sd	a1,176(a1)
    800539da:	270a                	fld	fa4,128(sp)
    800539dc:	ca21                	beqz	a2,80053a2c <ali1_data.1513+0x2a2c>
    800539de:	d902                	sw	zero,176(sp)
    800539e0:	f0d9ee13          	ori	t3,s3,-243
    800539e4:	fe18                	sd	a4,56(a2)
    800539e6:	08ee                	slli	a7,a7,0x1b
    800539e8:	f3ed                	bnez	a5,800539ca <ali1_data.1513+0x29ca>
    800539ea:	161a                	slli	a2,a2,0x26
    800539ec:	f104                	sd	s1,32(a0)
    800539ee:	05e5                	addi	a1,a1,25
    800539f0:	e9f6                	sd	t4,208(sp)
    800539f2:	f92d                	bnez	a0,80053964 <ali1_data.1513+0x2964>
    800539f4:	2dfc                	fld	fa5,216(a1)
    800539f6:	1916                	slli	s2,s2,0x25
    800539f8:	2515                	addiw	a0,a0,5
    800539fa:	efe6                	sd	s9,472(sp)
    800539fc:	e5d8                	sd	a4,136(a1)
    800539fe:	30fc                	fld	fa5,224(s1)
    80053a00:	ec19ef0f          	0xec19ef0f
    80053a04:	fc07d50b          	0xfc07d50b
    80053a08:	ecf9040b          	0xecf9040b
    80053a0c:	05ea                	slli	a1,a1,0x1a
    80053a0e:	3a08                	fld	fa0,48(a2)
    80053a10:	eee2                	sd	s8,344(sp)
    80053a12:	0af6                	slli	s5,s5,0x1d
    80053a14:	cbf0                	sw	a2,84(a5)
    80053a16:	2f0d                	addiw	t5,t5,3
    80053a18:	22ed                	addiw	t0,t0,27
    80053a1a:	1308                	addi	a0,sp,416
    80053a1c:	e80d                	bnez	s0,80053a4e <ali1_data.1513+0x2a4e>
    80053a1e:	2415                	addiw	s0,s0,5
    80053a20:	fdf1                	bnez	a1,800539fc <ali1_data.1513+0x29fc>
    80053a22:	02fd                	addi	t0,t0,31
    80053a24:	00040427          	0x40427
    80053a28:	05fd                	addi	a1,a1,31
    80053a2a:	eae0fb03          	0xeae0fb03
    80053a2e:	18fa29db          	0x18fa29db
    80053a32:	2512                	fld	fa0,256(sp)
    80053a34:	162a                	slli	a2,a2,0x2a
    80053a36:	ed29                	bnez	a0,80053a90 <ali1_data.1513+0x2a90>
    80053a38:	24e4                	fld	fs1,200(s1)
    80053a3a:	fee8                	sd	a0,248(a3)
    80053a3c:	03ed                	addi	t2,t2,27
    80053a3e:	0b1f 1700 e0fd      	0xe0fd17000b1f
    80053a44:	03f7e103          	lwu	sp,63(a5)
    80053a48:	d6ee                	sw	s11,108(sp)
    80053a4a:	10ed                	addi	ra,ra,-5
    80053a4c:	e1e4                	sd	s1,192(a1)
    80053a4e:	f60e                	sd	gp,296(sp)
    80053a50:	ec051aeb          	0xec051aeb
    80053a54:	0eea                	slli	t4,t4,0x1a
    80053a56:	def0                	sw	a2,124(a3)
    80053a58:	fe09                	bnez	a2,80053972 <ali1_data.1513+0x2972>
    80053a5a:	d7110d07          	0xd7110d07
    80053a5e:	fa0a35d3          	0xfa0a35d3
    80053a62:	16f0d0db          	0x16f0d0db
    80053a66:	e72cfd07          	0xe72cfd07
    80053a6a:	eeff                	0xeeff
    80053a6c:	d4f0                	sw	a2,108(s1)
    80053a6e:	280a                	fld	fa6,128(sp)
    80053a70:	131c                	addi	a5,sp,416
    80053a72:	ffe5                	bnez	a5,80053a6a <ali1_data.1513+0x2a6a>
    80053a74:	0f1d                	addi	t5,t5,7
    80053a76:	1312                	slli	t1,t1,0x24
    80053a78:	eb1c                	sd	a5,16(a4)
    80053a7a:	08dd                	addi	a7,a7,23
    80053a7c:	f7fe                	sd	t6,488(sp)
    80053a7e:	02d9141b          	0x2d9141b
    80053a82:	ffffd0f7          	0xffffd0f7
    80053a86:	1a0a                	slli	s4,s4,0x22
    80053a88:	0efe                	slli	t4,t4,0x1f
    80053a8a:	00170ce7          	jalr	s9,1(a4)
    80053a8e:	0204                	addi	s1,sp,256
    80053a90:	1d11f307          	0x1d11f307
    80053a94:	041e                	slli	s0,s0,0x7
    80053a96:	e7f7e91b          	0xe7f7e91b
    80053a9a:	e0fc                	sd	a5,192(s1)
    80053a9c:	ded6                	sw	s5,124(sp)
    80053a9e:	fb05                	bnez	a4,800539ce <ali1_data.1513+0x29ce>
    80053aa0:	fbfd                	bnez	a5,80053a96 <ali1_data.1513+0x2a96>
    80053aa2:	01ee                	slli	gp,gp,0x1b
    80053aa4:	210a                	fld	ft2,128(sp)
    80053aa6:	e3df 1f06 e4dd      	0xe4dd1f06e3df
    80053aac:	ecf4                	sd	a3,216(s1)
    80053aae:	12f2                	slli	t0,t0,0x3c
    80053ab0:	dffb000f          	0xdffb000f
    80053ab4:	e915                	bnez	a0,80053ae8 <ali1_data.1513+0x2ae8>
    80053ab6:	f420                	sd	s0,104(s0)
    80053ab8:	fa00                	sd	s0,48(a2)
    80053aba:	e502                	sd	zero,136(sp)
    80053abc:	12e2                	slli	t0,t0,0x38
    80053abe:	ff14                	sd	a3,56(a4)
    80053ac0:	f7f1                	bnez	a5,80053a8c <ali1_data.1513+0x2a8c>
    80053ac2:	e21ec8d3          	0xe21ec8d3
    80053ac6:	1b01                	addi	s6,s6,-32
    80053ac8:	fd06                	sd	ra,184(sp)
    80053aca:	fefd                	bnez	a3,80053ac8 <ali1_data.1513+0x2ac8>
    80053acc:	e72d                	bnez	a4,80053b36 <ali1_data.1513+0x2b36>
    80053ace:	1911                	addi	s2,s2,-28
    80053ad0:	190d                	addi	s2,s2,-29
    80053ad2:	04ed1ff3          	csrrw	t6,0x4e,s10
    80053ad6:	20f0                	fld	fa2,192(s1)
    80053ad8:	baeef703          	0xbaeef703
    80053adc:	e2f5                	bnez	a3,80053bc0 <ali1_data.1513+0x2bc0>
    80053ade:	1fde                	slli	t6,t6,0x37
    80053ae0:	fef1                	bnez	a3,80053abc <ali1_data.1513+0x2abc>
    80053ae2:	100ee4eb          	0x100ee4eb
    80053ae6:	08cf0303          	lb	t1,140(t5)
    80053aea:	0bd4                	addi	a3,sp,468
    80053aec:	dd2d                	beqz	a0,80053a66 <ali1_data.1513+0x2a66>
    80053aee:	dc12                	sw	tp,56(sp)
    80053af0:	29ef06e7          	jalr	a3,670(t5)
    80053af4:	0de6                	slli	s11,s11,0x19
    80053af6:	1808                	addi	a0,sp,48
    80053af8:	32ea02db          	0x32ea02db
    80053afc:	fafd                	bnez	a3,80053af2 <ali1_data.1513+0x2af2>
    80053afe:	060a                	slli	a2,a2,0x2
    80053b00:	feff                	0xfeff
    80053b02:	ddfa                	sw	t5,248(sp)
    80053b04:	0dfbe62f          	0xdfbe62f
    80053b08:	f3011803          	lh	a6,-208(sp)
    80053b0c:	fa22                	sd	s0,304(sp)
    80053b0e:	19e9                	addi	s3,s3,-6
    80053b10:	1515                	addi	a0,a0,-27
    80053b12:	19fa                	slli	s3,s3,0x3e
    80053b14:	e909                	bnez	a0,80053b26 <ali1_data.1513+0x2b26>
    80053b16:	25f5                	addiw	a1,a1,29
    80053b18:	1b01                	addi	s6,s6,-32
    80053b1a:	cbd9                	beqz	a5,80053bb0 <ali1_data.1513+0x2bb0>
    80053b1c:	ce1d                	beqz	a2,80053b5a <ali1_data.1513+0x2b5a>
    80053b1e:	10d6                	slli	ra,ra,0x35
    80053b20:	042a                	slli	s0,s0,0xa
    80053b22:	e3ff                	0xe3ff
    80053b24:	f314                	sd	a3,32(a4)
    80053b26:	1fda                	slli	t6,t6,0x36
    80053b28:	10c8                	addi	a0,sp,100
    80053b2a:	c4400e0b          	0xc4400e0b
    80053b2e:	ec18090b          	0xec18090b
    80053b32:	faf0                	sd	a2,240(a3)
    80053b34:	e9d6                	sd	s5,208(sp)
    80053b36:	2304                	fld	fs1,0(a4)
    80053b38:	25e4                	fld	fs1,200(a1)
    80053b3a:	1202                	slli	tp,tp,0x20
    80053b3c:	e0e9                	bnez	s1,80053bfe <ali1_data.1513+0x2bfe>
    80053b3e:	0c25                	addi	s8,s8,9
    80053b40:	e9e0                	sd	s0,208(a1)
    80053b42:	e5df d21d fbf0      	0xfbf0d21de5df
    80053b48:	030f0fef          	jal	t6,80143b78 <ali3_data.1513+0xec878>
    80053b4c:	f601                	bnez	a2,80053a54 <ali1_data.1513+0x2a54>
    80053b4e:	ed0a1ff7          	0xed0a1ff7
    80053b52:	d116fa07          	0xd116fa07
    80053b56:	fe04                	sd	s1,56(a2)
    80053b58:	e9c1ffeb          	0xe9c1ffeb
    80053b5c:	f408                	sd	a0,40(s0)
    80053b5e:	00ed                	addi	ra,ra,27
    80053b60:	f1ecf823          	0xf1ecf823
    80053b64:	031a                	slli	t1,t1,0x6
    80053b66:	0118                	addi	a4,sp,128
    80053b68:	03ec                	addi	a1,sp,460
    80053b6a:	f6ec                	sd	a1,232(a3)
    80053b6c:	d901                	beqz	a0,80053a7c <ali1_data.1513+0x2a7c>
    80053b6e:	ffff                	0xffff
    80053b70:	0ae8                	addi	a0,sp,348
    80053b72:	f7d9                	bnez	a5,80053b00 <ali1_data.1513+0x2b00>
    80053b74:	e715                	bnez	a4,80053ba0 <ali1_data.1513+0x2ba0>
    80053b76:	03e8                	addi	a0,sp,460
    80053b78:	ed14                	sd	a3,24(a0)
    80053b7a:	f5ff                	0xf5ff
    80053b7c:	ff0e1b0b          	0xff0e1b0b
    80053b80:	1bf9                	addi	s7,s7,-2
    80053b82:	f9c4                	sd	s1,176(a1)
    80053b84:	e9ed                	bnez	a1,80053c76 <ali1_data.1513+0x2c76>
    80053b86:	d60f0aef          	jal	s5,800440e6 <__heap_end+0x200e6>
    80053b8a:	df00                	sw	s0,56(a4)
    80053b8c:	0200                	addi	s0,sp,256
    80053b8e:	eff50e0b          	0xeff50e0b
    80053b92:	e1eef0ef          	jal	ra,800431b0 <__heap_end+0x1f1b0>
    80053b96:	10e6                	slli	ra,ra,0x39
    80053b98:	dd08070b          	0xdd08070b
    80053b9c:	eef9                	bnez	a3,80053c7a <ali1_data.1513+0x2c7a>
    80053b9e:	17e4                	addi	s1,sp,1004
    80053ba0:	f2fe                	sd	t6,352(sp)
    80053ba2:	e902                	sd	zero,144(sp)
    80053ba4:	1910                	addi	a2,sp,176
    80053ba6:	1b00                	addi	s0,sp,432
    80053ba8:	f8e6                	sd	s9,112(sp)
    80053baa:	cad9                	beqz	a3,80053c40 <ali1_data.1513+0x2c40>
    80053bac:	ebf0                	sd	a2,208(a5)
    80053bae:	1b08                	addi	a0,sp,432
    80053bb0:	e5fc                	sd	a5,200(a1)
    80053bb2:	e5fa                	sd	t5,200(sp)
    80053bb4:	fe0f17e7          	0xfe0f17e7
    80053bb8:	e22d                	bnez	a2,80053c1a <ali1_data.1513+0x2c1a>
    80053bba:	fd11                	bnez	a0,80053ad6 <ali1_data.1513+0x2ad6>
    80053bbc:	00e9                	addi	ra,ra,26
    80053bbe:	080d                	addi	a6,a6,3
    80053bc0:	e5fc                	sd	a5,200(a1)
    80053bc2:	f712                	sd	tp,424(sp)
    80053bc4:	f6f8                	sd	a4,232(a3)
    80053bc6:	02e1eff7          	0x2e1eff7
    80053bca:	08f0                	addi	a2,sp,92
    80053bcc:	1214                	addi	a3,sp,288
    80053bce:	fc26                	sd	s1,56(sp)
    80053bd0:	efec                	sd	a1,216(a5)
    80053bd2:	00e522f3          	csrrs	t0,0xe,a0
    80053bd6:	fef5                	bnez	a3,80053bd2 <ali1_data.1513+0x2bd2>
    80053bd8:	fd1d                	bnez	a0,80053b16 <ali1_data.1513+0x2b16>
    80053bda:	2a05                	addiw	s4,s4,1
    80053bdc:	f5e807db          	0xf5e807db
    80053be0:	f9f4                	sd	a3,240(a1)
    80053be2:	f0da                	sd	s6,96(sp)
    80053be4:	19e4                	addi	s1,sp,252
    80053be6:	fdddfa17          	auipc	s4,0xfdddf
    80053bea:	e400                	sd	s0,8(s0)
    80053bec:	11e0                	addi	s0,sp,236
    80053bee:	eaf4fc03          	0xeaf4fc03
    80053bf2:	26ea                	fld	fa3,152(sp)
    80053bf4:	0108                	addi	a0,sp,128
    80053bf6:	18e4                	addi	s1,sp,124
    80053bf8:	fe28                	sd	a0,120(a2)
    80053bfa:	29f5                	addiw	s3,s3,29
    80053bfc:	e8fa                	sd	t5,80(sp)
    80053bfe:	0f2d                	addi	t5,t5,11
    80053c00:	14d1                	addi	s1,s1,-12
    80053c02:	dbd5                	beqz	a5,80053bb6 <ali1_data.1513+0x2bb6>
    80053c04:	0af71417          	auipc	s0,0xaf71
    80053c08:	f8fa                	sd	t5,112(sp)
    80053c0a:	0b1d                	addi	s6,s6,7
    80053c0c:	0cf1                	addi	s9,s9,28
    80053c0e:	27fa                	fld	fa5,408(sp)
    80053c10:	eae0                	sd	s0,208(a3)
    80053c12:	ecfd                	bnez	s1,80053d10 <ali1_data.1513+0x2d10>
    80053c14:	1dedda0b          	0x1dedda0b
    80053c18:	1bfa                	slli	s7,s7,0x3e
    80053c1a:	1600                	addi	s0,sp,800
    80053c1c:	f6ce                	sd	s3,360(sp)
    80053c1e:	0b05                	addi	s6,s6,1
    80053c20:	15fc                	addi	a5,sp,748
    80053c22:	df01                	beqz	a4,80053b3a <ali1_data.1513+0x2b3a>
    80053c24:	1e21                	addi	t3,t3,-24
    80053c26:	dff030eb          	0xdff030eb
    80053c2a:	01fa                	slli	gp,gp,0x1e
    80053c2c:	f8f6                	sd	t4,112(sp)
    80053c2e:	211d                	addiw	sp,sp,7
    80053c30:	26ee                	fld	fa3,216(sp)
    80053c32:	01f4                	addi	a3,sp,204
    80053c34:	120e                	slli	tp,tp,0x23
    80053c36:	e3ec                	sd	a1,192(a5)
    80053c38:	f108                	sd	a0,32(a0)
    80053c3a:	f301                	bnez	a4,80053b3a <ali1_data.1513+0x2b3a>
    80053c3c:	1002                	c.slli	zero,0x20
    80053c3e:	11fc                	addi	a5,sp,236
    80053c40:	ede9                	bnez	a1,80053d1a <ali1_data.1513+0x2d1a>
    80053c42:	1cf4                	addi	a3,sp,636
    80053c44:	2ae4faf7          	0x2ae4faf7
    80053c48:	07f1                	addi	a5,a5,28
    80053c4a:	2cf1                	addiw	s9,s9,28
    80053c4c:	f404                	sd	s1,40(s0)
    80053c4e:	1c30                	addi	a2,sp,568
    80053c50:	1fe4                	addi	s1,sp,1020
    80053c52:	1bea                	slli	s7,s7,0x3a
    80053c54:	f60a                	sd	sp,296(sp)
    80053c56:	f41a                	sd	t1,40(sp)
    80053c58:	2016                	fld	ft0,320(sp)
    80053c5a:	060c                	addi	a1,sp,768
    80053c5c:	e1fa                	sd	t5,192(sp)
    80053c5e:	f4f1                	bnez	s1,80053c2a <ali1_data.1513+0x2c2a>
    80053c60:	f4e6                	sd	s9,104(sp)
    80053c62:	0fe8                	addi	a0,sp,988
    80053c64:	0909                	addi	s2,s2,2
    80053c66:	e6c9                	bnez	a3,80053cf0 <ali1_data.1513+0x2cf0>
    80053c68:	060e                	slli	a2,a2,0x3
    80053c6a:	13fa                	slli	t2,t2,0x3e
    80053c6c:	1a15                	addi	s4,s4,-27
    80053c6e:	f7f1                	bnez	a5,80053c3a <ali1_data.1513+0x2c3a>
    80053c70:	f7f0                	sd	a2,232(a5)
    80053c72:	15ec                	addi	a1,sp,748
    80053c74:	1908                	addi	a0,sp,176
    80053c76:	dfe5                	beqz	a5,80053c6e <ali1_data.1513+0x2c6e>
    80053c78:	f9f8                	sd	a4,240(a1)
    80053c7a:	07d8                	addi	a4,sp,964
    80053c7c:	f7ea                	sd	s10,488(sp)
    80053c7e:	1200                	addi	s0,sp,288
    80053c80:	dadd                	beqz	a3,80053c36 <ali1_data.1513+0x2c36>
    80053c82:	ff1e                	sd	t2,440(sp)
    80053c84:	1102                	slli	sp,sp,0x20
    80053c86:	0818e6d3          	fsub.s	fa3,fa7,ft1,unknown
    80053c8a:	0c08dfef          	jal	t6,800e0d4a <ali3_data.1513+0x89a4a>
    80053c8e:	eceee613          	ori	a2,t4,-306
    80053c92:	ed1c                	sd	a5,24(a0)
    80053c94:	1d18                	addi	a4,sp,688
    80053c96:	05f4                	addi	a3,sp,716
    80053c98:	f9fc2feb          	0xf9fc2feb
    80053c9c:	08fc                	addi	a5,sp,92
    80053c9e:	0019                	c.nop	6
    80053ca0:	eee9                	bnez	a3,80053d7a <ali1_data.1513+0x2d7a>
    80053ca2:	2afe                	fld	fs5,472(sp)
    80053ca4:	f9ff                	0xf9ff
    80053ca6:	dfec                	sw	a1,124(a5)
    80053ca8:	1612                	slli	a2,a2,0x24
    80053caa:	f0f5                	bnez	s1,80053c8e <ali1_data.1513+0x2c8e>
    80053cac:	fa25                	bnez	a2,80053c1c <ali1_data.1513+0x2c1c>
    80053cae:	1224                	addi	s1,sp,296
    80053cb0:	eaeee1e3          	bltu	t4,a4,80053b52 <ali1_data.1513+0x2b52>
    80053cb4:	d7fe                	sw	t6,236(sp)
    80053cb6:	14fe1c1b          	0x14fe1c1b
    80053cba:	e2f5ea03          	lwu	s4,-465(a1)
    80053cbe:	dbe1                	beqz	a5,80053c8e <ali1_data.1513+0x2c8e>
    80053cc0:	f70a                	sd	sp,424(sp)
    80053cc2:	1404                	addi	s1,sp,544
    80053cc4:	fbf0                	sd	a2,240(a5)
    80053cc6:	15f1060f          	0x15f1060f
    80053cca:	10f4                	addi	a3,sp,108
    80053ccc:	eb0c                	sd	a1,16(a4)
    80053cce:	f6e5                	bnez	a3,80053cb6 <ali1_data.1513+0x2cb6>
    80053cd0:	141b02ef          	jal	t0,80104610 <ali3_data.1513+0xad310>
    80053cd4:	09e4                	addi	s1,sp,220
    80053cd6:	05fe                	slli	a1,a1,0x1f
    80053cd8:	fcf2f80f          	0xfcf2f80f
    80053cdc:	eddd                	bnez	a1,80053d9a <ali1_data.1513+0x2d9a>
    80053cde:	0821                	addi	a6,a6,8
    80053ce0:	f9e6                	sd	s9,240(sp)
    80053ce2:	04ea                	slli	s1,s1,0x1a
    80053ce4:	f6ee                	sd	s11,360(sp)
    80053ce6:	0501                	addi	a0,a0,0
    80053ce8:	0f1c                	addi	a5,sp,912
    80053cea:	0506                	slli	a0,a0,0x1
    80053cec:	e819                	bnez	s0,80053d02 <ali1_data.1513+0x2d02>
    80053cee:	efea                	sd	s10,472(sp)
    80053cf0:	1d14                	addi	a3,sp,688
    80053cf2:	e6fa                	sd	t5,328(sp)
    80053cf4:	f704                	sd	s1,40(a4)
    80053cf6:	e409                	bnez	s0,80053d00 <ali1_data.1513+0x2d00>
    80053cf8:	ed04                	sd	s1,24(a0)
    80053cfa:	efee                	sd	s11,472(sp)
    80053cfc:	19fa171b          	0x19fa171b
    80053d00:	0f18e307          	0xf18e307
    80053d04:	d210                	sw	a2,32(a2)
    80053d06:	1dfa                	slli	s11,s11,0x3e
    80053d08:	e7ff                	0xe7ff
    80053d0a:	240e1007          	0x240e1007
    80053d0e:	c3d4                	sw	a3,4(a5)
    80053d10:	13fc                	addi	a5,sp,492
    80053d12:	1de5                	addi	s11,s11,-7
    80053d14:	fbfa                	sd	t5,496(sp)
    80053d16:	f4f4d007          	0xf4f4d007
    80053d1a:	ec10                	sd	a2,24(s0)
    80053d1c:	10f81cdb          	0x10f81cdb
    80053d20:	2ff713db          	0x2ff713db
    80053d24:	28e0ca17          	auipc	s4,0x28e0c
    80053d28:	05ed                	addi	a1,a1,27
    80053d2a:	dada                	sw	s6,116(sp)
    80053d2c:	fe06                	sd	ra,312(sp)
    80053d2e:	12dffc13          	andi	s8,t6,301
    80053d32:	fff4                	sd	a3,248(a5)
    80053d34:	e939                	bnez	a0,80053d8a <ali1_data.1513+0x2d8a>
    80053d36:	e6f8                	sd	a4,200(a3)
    80053d38:	f9fc                	sd	a5,240(a1)
    80053d3a:	f404                	sd	s1,40(s0)
    80053d3c:	dffdff33          	0xdffdff33
    80053d40:	19e1                	addi	s3,s3,-8
    80053d42:	4cdc                	lw	a5,28(s1)
    80053d44:	f31f 00ef 1817      	0x181700eff31f
    80053d4a:	11f4                	addi	a3,sp,236
    80053d4c:	f849                	bnez	s0,80053cde <ali1_data.1513+0x2cde>
    80053d4e:	f7f4                	sd	a3,232(a5)
    80053d50:	0e0900eb          	0xe0900eb
    80053d54:	f9ec                	sd	a1,240(a1)
    80053d56:	11f51903          	lh	s2,287(a0)
    80053d5a:	eb31                	bnez	a4,80053dae <ali1_data.1513+0x2dae>
    80053d5c:	d016                	sw	t0,32(sp)
    80053d5e:	1212                	slli	tp,tp,0x24
    80053d60:	24c2                	fld	fs1,16(sp)
    80053d62:	f61421e7          	0xf61421e7
    80053d66:	fcf5                	bnez	s1,80053d62 <ali1_data.1513+0x2d62>
    80053d68:	12f2                	slli	t0,t0,0x3c
    80053d6a:	fa00                	sd	s0,48(a2)
    80053d6c:	4d16e81b          	0x4d16e81b
    80053d70:	03df fd14 f6e7      	0xf6e7fd1403df
    80053d76:	0cf9f5e7          	0xcf9f5e7
    80053d7a:	12190f13          	addi	t5,s2,289
    80053d7e:	e3e9                	bnez	a5,80053e40 <ali1_data.1513+0x2e40>
    80053d80:	f111                	bnez	a0,80053c84 <ali1_data.1513+0x2c84>
    80053d82:	0bf4                	addi	a3,sp,476
    80053d84:	e8f90dfb          	0xe8f90dfb
    80053d88:	14ff11e3          	bne	t5,a5,800546ca <ali1_data.1513+0x36ca>
    80053d8c:	1e01d40f          	0x1e01d40f
    80053d90:	2120                	fld	fs0,64(a0)
    80053d92:	d504                	sw	s1,40(a0)
    80053d94:	f4f8                	sd	a4,232(s1)
    80053d96:	07e9                	addi	a5,a5,26
    80053d98:	1700                	addi	s0,sp,928
    80053d9a:	e6eef9ef          	jal	s3,80043408 <__heap_end+0x1f408>
    80053d9e:	1816                	slli	a6,a6,0x25
    80053da0:	09eefef7          	0x9eefef7
    80053da4:	372b1afb          	0x372b1afb
    80053da8:	19e4                	addi	s1,sp,252
    80053daa:	faf1f417          	auipc	s0,0xfaf1f
    80053dae:	dce2                	sw	s8,120(sp)
    80053db0:	ed12                	sd	tp,152(sp)
    80053db2:	07f50117          	auipc	sp,0x7f50
    80053db6:	efe8                	sd	a0,216(a5)
    80053db8:	20f0                	fld	fa2,192(s1)
    80053dba:	1ffb3b17          	auipc	s6,0x1ffb3
    80053dbe:	fa09                	bnez	a2,80053cd0 <ali1_data.1513+0x2cd0>
    80053dc0:	0dc8                	addi	a0,sp,724
    80053dc2:	f8e0                	sd	s0,240(s1)
    80053dc4:	0505                	addi	a0,a0,1
    80053dc6:	50ec                	lw	a1,100(s1)
    80053dc8:	13ee                	slli	t2,t2,0x3b
    80053dca:	07e8                	addi	a0,sp,972
    80053dcc:	e8d41aef          	jal	s5,7ff95c58 <__stack_size+0x7ff8dc58>
    80053dd0:	00d5f91b          	0xd5f91b
    80053dd4:	f0f3f5f3          	csrrci	a1,0xf0f,7
    80053dd8:	e4e9                	bnez	s1,80053ea2 <ali1_data.1513+0x2ea2>
    80053dda:	1911                	addi	s2,s2,-28
    80053ddc:	014c                	addi	a1,sp,132
    80053dde:	0210                	addi	a2,sp,256
    80053de0:	2bd9                	addiw	s7,s7,22
    80053de2:	dcf9                	beqz	s1,80053dc0 <ali1_data.1513+0x2dc0>
    80053de4:	320422f3          	csrrs	t0,mucounteren,s0
    80053de8:	eefe                	sd	t6,344(sp)
    80053dea:	1215                	addi	tp,tp,-27
    80053dec:	fbf8                	sd	a4,240(a5)
    80053dee:	e300                	sd	s0,0(a4)
    80053df0:	e3dd                	bnez	a5,80053e96 <ali1_data.1513+0x2e96>
    80053df2:	eff0                	sd	a2,216(a5)
    80053df4:	0412                	slli	s0,s0,0x4
    80053df6:	02d12f03          	lw	t5,45(sp) # 87fa3ddf <ali3_data.1513+0x7f4cadf>
    80053dfa:	d91133db          	0xd91133db
    80053dfe:	25ef1017          	auipc	zero,0x25ef1
    80053e02:	f6db12e3          	bne	s6,a3,80053d66 <ali1_data.1513+0x2d66>
    80053e06:	fafc                	sd	a5,240(a3)
    80053e08:	f611                	bnez	a2,80053d14 <ali1_data.1513+0x2d14>
    80053e0a:	19ec                	addi	a1,sp,252
    80053e0c:	1b292f0b          	0x1b292f0b
    80053e10:	fae3eae7          	0xfae3eae7
    80053e14:	e226                	sd	s1,256(sp)
    80053e16:	2a1a                	fld	fs4,384(sp)
    80053e18:	23e0                	fld	fs0,192(a5)
    80053e1a:	fdd6                	sd	s5,248(sp)
    80053e1c:	15ea                	slli	a1,a1,0x3a
    80053e1e:	0bff                	0xbff
    80053e20:	fedf fee3 0d00      	0xd00fee3fedf
    80053e26:	13eb1af7          	0x13eb1af7
    80053e2a:	01e8                	addi	a0,sp,204
    80053e2c:	0e06                	slli	t3,t3,0x1
    80053e2e:	56fa                	lw	a3,188(sp)
    80053e30:	e610f4fb          	0xe610f4fb
    80053e34:	16edd007          	0x16edd007
    80053e38:	01101f0b          	0x1101f0b
    80053e3c:	e012                	sd	tp,0(sp)
    80053e3e:	03dde60f          	0x3dde60f
    80053e42:	dad5                	beqz	a3,80053df6 <ali1_data.1513+0x2df6>
    80053e44:	1f0e                	slli	t5,t5,0x23
    80053e46:	ebe0                	sd	s0,208(a5)
    80053e48:	10f8                	addi	a4,sp,108
    80053e4a:	120d                	addi	tp,tp,-29
    80053e4c:	e8cc                	sd	a1,144(s1)
    80053e4e:	1cf015d7          	0x1cf015d7
    80053e52:	e0f0                	sd	a2,192(s1)
    80053e54:	00e9                	addi	ra,ra,26
    80053e56:	f6f6                	sd	t4,360(sp)
    80053e58:	150500db          	0x150500db
    80053e5c:	0cfa                	slli	s9,s9,0x1e
    80053e5e:	0ad4                	addi	a3,sp,340
    80053e60:	e5f2dbfb          	0xe5f2dbfb
    80053e64:	15ec                	addi	a1,sp,748
    80053e66:	dc2d                	beqz	s0,80053de0 <ali1_data.1513+0x2de0>
    80053e68:	f3f6                	sd	t4,480(sp)
    80053e6a:	eaff                	0xeaff
    80053e6c:	dfe9                	beqz	a5,80053e46 <ali1_data.1513+0x2e46>
    80053e6e:	f3ede9d3          	0xf3ede9d3
    80053e72:	1cec09e7          	jalr	s3,462(s8)
    80053e76:	e6dc                	sd	a5,136(a3)
    80053e78:	e7ea                	sd	s10,456(sp)
    80053e7a:	0719                	addi	a4,a4,6
    80053e7c:	ee1d                	bnez	a2,80053eba <ali1_data.1513+0x2eba>
    80053e7e:	e422                	sd	s0,8(sp)
    80053e80:	02d5                	addi	t0,t0,21
    80053e82:	f7fd                	bnez	a5,80053e70 <ali1_data.1513+0x2e70>
    80053e84:	ec20e01b          	0xec20e01b
    80053e88:	f3efee03          	lwu	t3,-194(t6)
    80053e8c:	cf09eecf          	fnmadd.q	ft9,fs3,fa6,fs9,unknown
    80053e90:	e9fc                	sd	a5,208(a1)
    80053e92:	e5f5                	bnez	a1,80053f7e <ali1_data.1513+0x2f7e>
    80053e94:	09e4                	addi	s1,sp,220
    80053e96:	041e                	slli	s0,s0,0x7
    80053e98:	20151903          	lh	s2,513(a0)
    80053e9c:	0cf9                	addi	s9,s9,30
    80053e9e:	ff0a                	sd	sp,440(sp)
    80053ea0:	f0ea                	sd	s10,96(sp)
    80053ea2:	ecfa                	sd	t5,88(sp)
    80053ea4:	e808dae7          	0xe808dae7
    80053ea8:	ea01                	bnez	a2,80053eb8 <ali1_data.1513+0x2eb8>
    80053eaa:	14fd                	addi	s1,s1,-1
    80053eac:	0ee0                	addi	s0,sp,860
