
dc_1x1x8_1x1x8x1_int8_0.riscv:     file format elf64-littleriscv


Disassembly of section .config_addr:

0000000080050100 <ali1_data.1515>:
    80050100:	6100                	ld	s0,0(a0)
    80050102:	7594                	ld	a3,40(a1)
    80050104:	aa8efd3f 00000000 	0xaa8efd3f
	...
    80050130:	0005                	c.nop	1
	...
    8005013e:	0000                	unimp
    80050140:	0004                	0x4
    80050142:	0000                	unimp
    80050144:	0000                	unimp
    80050146:	0000                	unimp
    80050148:	0002                	c.slli64	zero
	...
    8005015e:	0000                	unimp
    80050160:	0002                	c.slli64	zero
    80050162:	0000                	unimp
    80050164:	0000                	unimp
    80050166:	0000                	unimp
    80050168:	0002                	c.slli64	zero
    8005016a:	0000                	unimp
    8005016c:	0000                	unimp
    8005016e:	0000                	unimp
    80050170:	0005                	c.nop	1
	...
    800501a6:	0000                	unimp
    800501a8:	00000003          	lb	zero,0(zero) # 0 <__boot_hart>
	...

Disassembly of section .config_addr1:

0000000080050200 <ali3_data.1515>:
    80050200:	0000006f          	j	80050200 <ali3_data.1515>
    80050204:	0000                	unimp
    80050206:	0010                	0x10
	...
    80050230:	0005                	c.nop	1
	...
    8005023e:	0000                	unimp
    80050240:	0004                	0x4
    80050242:	0000                	unimp
    80050244:	0000                	unimp
    80050246:	0000                	unimp
    80050248:	0002                	c.slli64	zero
	...
    8005025e:	0000                	unimp
    80050260:	0002                	c.slli64	zero
    80050262:	0000                	unimp
    80050264:	0000                	unimp
    80050266:	0000                	unimp
    80050268:	0002                	c.slli64	zero
    8005026a:	0000                	unimp
    8005026c:	0000                	unimp
    8005026e:	0000                	unimp
    80050270:	0005                	c.nop	1
	...
    800502a6:	0000                	unimp
    800502a8:	00000003          	lb	zero,0(zero) # 0 <__boot_hart>
	...

Disassembly of section .comment:

0000000000000000 <.comment>:
   0:	3a434347          	fmsub.d	ft6,ft6,ft4,ft7,rmm
   4:	2820                	fld	fs0,80(s0)
   6:	29554e47          	fmsub.s	ft8,fa0,fs5,ft5,rmm
   a:	3920                	fld	fs0,112(a0)
   c:	322e                	fld	ft4,232(sp)
   e:	302e                	fld	ft0,232(sp)
	...

Disassembly of section .riscv.attributes:

0000000000000000 <.riscv.attributes>:
   0:	3441                	addiw	s0,s0,-16
   2:	0000                	unimp
   4:	7200                	ld	s0,32(a2)
   6:	7369                	lui	t1,0xffffa
   8:	01007663          	bgeu	zero,a6,14 <__stack_align+0x4>
   c:	002a                	c.slli	zero,0xa
   e:	0000                	unimp
  10:	1004                	addi	s1,sp,32
  12:	7205                	lui	tp,0xfffe1
  14:	3676                	fld	fa2,376(sp)
  16:	6934                	ld	a3,80(a0)
  18:	7032                	0x7032
  1a:	5f30                	lw	a2,120(a4)
  1c:	326d                	addiw	tp,tp,-5
  1e:	3070                	fld	fa2,224(s0)
  20:	615f 7032 5f30      	0x5f307032615f
  26:	3266                	fld	ft4,120(sp)
  28:	3070                	fld	fa2,224(s0)
  2a:	645f 7032 5f30      	0x5f307032645f
  30:	30703263          	0x30703263
	...

Disassembly of section .text:

0000000080000000 <_start>:
    80000000:	4081                	li	ra,0
    80000002:	4101                	li	sp,0
    80000004:	4181                	li	gp,0
    80000006:	4201                	li	tp,0
    80000008:	4281                	li	t0,0
    8000000a:	4301                	li	t1,0
    8000000c:	4381                	li	t2,0
    8000000e:	4401                	li	s0,0
    80000010:	4481                	li	s1,0
    80000012:	4501                	li	a0,0
    80000014:	4581                	li	a1,0
    80000016:	4601                	li	a2,0
    80000018:	4681                	li	a3,0
    8000001a:	4701                	li	a4,0
    8000001c:	4781                	li	a5,0
    8000001e:	4801                	li	a6,0
    80000020:	4881                	li	a7,0
    80000022:	4901                	li	s2,0
    80000024:	4981                	li	s3,0
    80000026:	4a01                	li	s4,0
    80000028:	4a81                	li	s5,0
    8000002a:	4b01                	li	s6,0
    8000002c:	4b81                	li	s7,0
    8000002e:	4c01                	li	s8,0
    80000030:	4c81                	li	s9,0
    80000032:	4d01                	li	s10,0
    80000034:	4d81                	li	s11,0
    80000036:	4e01                	li	t3,0
    80000038:	4e81                	li	t4,0
    8000003a:	4f01                	li	t5,0
    8000003c:	4f81                	li	t6,0
    8000003e:	62f9                	lui	t0,0x1e
    80000040:	3002a073          	csrs	mstatus,t0
    80000044:	00000297          	auipc	t0,0x0
    80000048:	09028293          	addi	t0,t0,144 # 800000d4 <_start+0xd4>
    8000004c:	30529073          	csrw	mtvec,t0
    80000050:	00301073          	fscsr	zero
    80000054:	f0000053          	fmv.w.x	ft0,zero
    80000058:	f00000d3          	fmv.w.x	ft1,zero
    8000005c:	f0000153          	fmv.w.x	ft2,zero
    80000060:	f00001d3          	fmv.w.x	ft3,zero
    80000064:	f0000253          	fmv.w.x	ft4,zero
    80000068:	f00002d3          	fmv.w.x	ft5,zero
    8000006c:	f0000353          	fmv.w.x	ft6,zero
    80000070:	f00003d3          	fmv.w.x	ft7,zero
    80000074:	f0000453          	fmv.w.x	fs0,zero
    80000078:	f00004d3          	fmv.w.x	fs1,zero
    8000007c:	f0000553          	fmv.w.x	fa0,zero
    80000080:	f00005d3          	fmv.w.x	fa1,zero
    80000084:	f0000653          	fmv.w.x	fa2,zero
    80000088:	f00006d3          	fmv.w.x	fa3,zero
    8000008c:	f0000753          	fmv.w.x	fa4,zero
    80000090:	f00007d3          	fmv.w.x	fa5,zero
    80000094:	f0000853          	fmv.w.x	fa6,zero
    80000098:	f00008d3          	fmv.w.x	fa7,zero
    8000009c:	f0000953          	fmv.w.x	fs2,zero
    800000a0:	f00009d3          	fmv.w.x	fs3,zero
    800000a4:	f0000a53          	fmv.w.x	fs4,zero
    800000a8:	f0000ad3          	fmv.w.x	fs5,zero
    800000ac:	f0000b53          	fmv.w.x	fs6,zero
    800000b0:	f0000bd3          	fmv.w.x	fs7,zero
    800000b4:	f0000c53          	fmv.w.x	fs8,zero
    800000b8:	f0000cd3          	fmv.w.x	fs9,zero
    800000bc:	f0000d53          	fmv.w.x	fs10,zero
    800000c0:	f0000dd3          	fmv.w.x	fs11,zero
    800000c4:	f0000e53          	fmv.w.x	ft8,zero
    800000c8:	f0000ed3          	fmv.w.x	ft9,zero
    800000cc:	f0000f53          	fmv.w.x	ft10,zero
    800000d0:	f0000fd3          	fmv.w.x	ft11,zero
    800000d4:	00003197          	auipc	gp,0x3
    800000d8:	e2c18193          	addi	gp,gp,-468 # 80002f00 <__global_pointer$>
    800000dc:	f1402473          	csrr	s0,mhartid
    800000e0:	00f00293          	li	t0,15
    800000e4:	00023217          	auipc	tp,0x23
    800000e8:	f1c20213          	addi	tp,tp,-228 # 80023000 <__heap_end>
    800000ec:	005412b3          	sll	t0,s0,t0
    800000f0:	9216                	add	tp,tp,t0
    800000f2:	62a1                	lui	t0,0x8
    800000f4:	00028293          	mv	t0,t0
    800000f8:	00520133          	add	sp,tp,t0
    800000fc:	00000297          	auipc	t0,0x0
    80000100:	04428293          	addi	t0,t0,68 # 80000140 <trap_entry>
    80000104:	30529073          	csrw	mtvec,t0
    80000108:	74b010ef          	jal	ra,80002052 <__init_tls>
    8000010c:	00000293          	li	t0,0
    80000110:	00540463          	beq	s0,t0,80000118 <_start+0x118>
    80000114:	0fa0006f          	j	8000020e <_start_secondary>
    80000118:	82818293          	addi	t0,gp,-2008 # 80002728 <size_start.2569>
    8000011c:	a7418313          	addi	t1,gp,-1420 # 80002974 <__bss_end>
    80000120:	0062f763          	bgeu	t0,t1,8000012e <_start+0x12e>
    80000124:	0002b023          	sd	zero,0(t0)
    80000128:	02a1                	addi	t0,t0,8
    8000012a:	fe62ede3          	bltu	t0,t1,80000124 <_start+0x124>
    8000012e:	00002517          	auipc	a0,0x2
    80000132:	00850513          	addi	a0,a0,8 # 80002136 <__libc_fini_array>
    80000136:	7c1010ef          	jal	ra,800020f6 <atexit>
    8000013a:	034020ef          	jal	ra,8000216e <__libc_init_array>
    8000013e:	a845                	j	800001ee <_start_main>

0000000080000140 <trap_entry>:
    80000140:	34011073          	csrw	mscratch,sp
    80000144:	7111                	addi	sp,sp,-256
    80000146:	e406                	sd	ra,8(sp)
    80000148:	340020f3          	csrr	ra,mscratch
    8000014c:	e806                	sd	ra,16(sp)
    8000014e:	ec0e                	sd	gp,24(sp)
    80000150:	f012                	sd	tp,32(sp)
    80000152:	f416                	sd	t0,40(sp)
    80000154:	f81a                	sd	t1,48(sp)
    80000156:	fc1e                	sd	t2,56(sp)
    80000158:	e0a2                	sd	s0,64(sp)
    8000015a:	e4a6                	sd	s1,72(sp)
    8000015c:	e8aa                	sd	a0,80(sp)
    8000015e:	ecae                	sd	a1,88(sp)
    80000160:	f0b2                	sd	a2,96(sp)
    80000162:	f4b6                	sd	a3,104(sp)
    80000164:	f8ba                	sd	a4,112(sp)
    80000166:	fcbe                	sd	a5,120(sp)
    80000168:	e142                	sd	a6,128(sp)
    8000016a:	e546                	sd	a7,136(sp)
    8000016c:	e94a                	sd	s2,144(sp)
    8000016e:	ed4e                	sd	s3,152(sp)
    80000170:	f152                	sd	s4,160(sp)
    80000172:	f556                	sd	s5,168(sp)
    80000174:	f95a                	sd	s6,176(sp)
    80000176:	fd5e                	sd	s7,184(sp)
    80000178:	e1e2                	sd	s8,192(sp)
    8000017a:	e5e6                	sd	s9,200(sp)
    8000017c:	e9ea                	sd	s10,208(sp)
    8000017e:	edee                	sd	s11,216(sp)
    80000180:	f1f2                	sd	t3,224(sp)
    80000182:	f5f6                	sd	t4,232(sp)
    80000184:	f9fa                	sd	t5,240(sp)
    80000186:	fdfe                	sd	t6,248(sp)
    80000188:	34102573          	csrr	a0,mepc
    8000018c:	342025f3          	csrr	a1,mcause
    80000190:	34302673          	csrr	a2,mtval
    80000194:	868a                	mv	a3,sp
    80000196:	6a7010ef          	jal	ra,8000203c <handle_trap>
    8000019a:	34151073          	csrw	mepc,a0
    8000019e:	000022b7          	lui	t0,0x2
    800001a2:	8002829b          	addiw	t0,t0,-2048
    800001a6:	3002a073          	csrs	mstatus,t0
    800001aa:	60a2                	ld	ra,8(sp)
    800001ac:	61e2                	ld	gp,24(sp)
    800001ae:	7202                	ld	tp,32(sp)
    800001b0:	72a2                	ld	t0,40(sp)
    800001b2:	7342                	ld	t1,48(sp)
    800001b4:	73e2                	ld	t2,56(sp)
    800001b6:	6406                	ld	s0,64(sp)
    800001b8:	64a6                	ld	s1,72(sp)
    800001ba:	6546                	ld	a0,80(sp)
    800001bc:	65e6                	ld	a1,88(sp)
    800001be:	7606                	ld	a2,96(sp)
    800001c0:	76a6                	ld	a3,104(sp)
    800001c2:	7746                	ld	a4,112(sp)
    800001c4:	77e6                	ld	a5,120(sp)
    800001c6:	680a                	ld	a6,128(sp)
    800001c8:	68aa                	ld	a7,136(sp)
    800001ca:	694a                	ld	s2,144(sp)
    800001cc:	69ea                	ld	s3,152(sp)
    800001ce:	7a0a                	ld	s4,160(sp)
    800001d0:	7aaa                	ld	s5,168(sp)
    800001d2:	7b4a                	ld	s6,176(sp)
    800001d4:	7bea                	ld	s7,184(sp)
    800001d6:	6c0e                	ld	s8,192(sp)
    800001d8:	6cae                	ld	s9,200(sp)
    800001da:	6d4e                	ld	s10,208(sp)
    800001dc:	6dee                	ld	s11,216(sp)
    800001de:	7e0e                	ld	t3,224(sp)
    800001e0:	7eae                	ld	t4,232(sp)
    800001e2:	7f4e                	ld	t5,240(sp)
    800001e4:	7fee                	ld	t6,248(sp)
    800001e6:	6142                	ld	sp,16(sp)
    800001e8:	30200073          	mret
	...

00000000800001ee <_start_main>:
    800001ee:	52fd                	li	t0,-1
    800001f0:	0110000f          	fence	w,w
    800001f4:	9451a823          	sw	t0,-1712(gp) # 80002850 <__boot_sync>
    800001f8:	4505                	li	a0,1
    800001fa:	00002597          	auipc	a1,0x2
    800001fe:	3be58593          	addi	a1,a1,958 # 800025b8 <argv>
    80000202:	8101b603          	ld	a2,-2032(gp) # 80002710 <environ>
    80000206:	02a000ef          	jal	ra,80000230 <main>
    8000020a:	7010106f          	j	8000210a <exit>

000000008000020e <_start_secondary>:
    8000020e:	9501a283          	lw	t0,-1712(gp) # 80002850 <__boot_sync>
    80000212:	fe028ee3          	beqz	t0,8000020e <_start_secondary>
    80000216:	0220000f          	fence	r,r
    8000021a:	4505                	li	a0,1
    8000021c:	00002597          	auipc	a1,0x2
    80000220:	39c58593          	addi	a1,a1,924 # 800025b8 <argv>
    80000224:	8101b603          	ld	a2,-2032(gp) # 80002710 <environ>
    80000228:	65b010ef          	jal	ra,80002082 <__main>
    8000022c:	6df0106f          	j	8000210a <exit>

0000000080000230 <main>:
    80000230:	08005637          	lui	a2,0x8005
    80000234:	1101                	addi	sp,sp,-32
    80000236:	100407b7          	lui	a5,0x10040
    8000023a:	0612                	slli	a2,a2,0x4
    8000023c:	100405b7          	lui	a1,0x10040
    80000240:	00002517          	auipc	a0,0x2
    80000244:	21050513          	addi	a0,a0,528 # 80002450 <__tbss_end+0x138>
    80000248:	ec06                	sd	ra,24(sp)
    8000024a:	82f1bc23          	sd	a5,-1992(gp) # 80002738 <ape_ptr>
    8000024e:	e822                	sd	s0,16(sp)
    80000250:	e426                	sd	s1,8(sp)
    80000252:	82c1b823          	sd	a2,-2000(gp) # 80002730 <ram_ptr>
    80000256:	622000ef          	jal	ra,80000878 <iprintf>
    8000025a:	3e4000ef          	jal	ra,8000063e <ape_get_ali1>
    8000025e:	84aa                	mv	s1,a0
    80000260:	3e8000ef          	jal	ra,80000648 <ape_get_ali3>
    80000264:	842a                	mv	s0,a0
    80000266:	4589                	li	a1,2
    80000268:	10000513          	li	a0,256
    8000026c:	3e6000ef          	jal	ra,80000652 <dram_init.part.0>
    80000270:	c489                	beqz	s1,8000027a <main+0x4a>
    80000272:	4585                	li	a1,1
    80000274:	8526                	mv	a0,s1
    80000276:	406000ef          	jal	ra,8000067c <dram_copy.part.0>
    8000027a:	c409                	beqz	s0,80000284 <main+0x54>
    8000027c:	458d                	li	a1,3
    8000027e:	8522                	mv	a0,s0
    80000280:	3fc000ef          	jal	ra,8000067c <dram_copy.part.0>
    80000284:	10049737          	lui	a4,0x10049
    80000288:	00072223          	sw	zero,4(a4) # 10049004 <__stack_size+0x10041004>
    8000028c:	04072623          	sw	zero,76(a4)
    80000290:	0e072023          	sw	zero,224(a4)
    80000294:	0e072223          	sw	zero,228(a4)
    80000298:	46a1                	li	a3,8
    8000029a:	cb74                	sw	a3,84(a4)
    8000029c:	0e072823          	sw	zero,240(a4)
    800002a0:	0e072623          	sw	zero,236(a4)
    800002a4:	00072023          	sw	zero,0(a4)
    800002a8:	8eb597b7          	lui	a5,0x8eb59
    800002ac:	0e072a23          	sw	zero,244(a4)
    800002b0:	28878793          	addi	a5,a5,648 # ffffffff8eb59288 <ali3_data.1515+0xffffffff0eb09088>
    800002b4:	0af72023          	sw	a5,160(a4)
    800002b8:	4609                	li	a2,2
    800002ba:	67ad                	lui	a5,0xb
    800002bc:	08c72223          	sw	a2,132(a4)
    800002c0:	01678613          	addi	a2,a5,22 # b016 <__stack_size+0x3016>
    800002c4:	08c72823          	sw	a2,144(a4)
    800002c8:	03300613          	li	a2,51
    800002cc:	0ac72623          	sw	a2,172(a4)
    800002d0:	b7d78793          	addi	a5,a5,-1155
    800002d4:	d33c                	sw	a5,96(a4)
    800002d6:	0c072823          	sw	zero,208(a4)
    800002da:	6889                	lui	a7,0x2
    800002dc:	06b00793          	li	a5,107
    800002e0:	d77c                	sw	a5,108(a4)
    800002e2:	10188793          	addi	a5,a7,257 # 2101 <__stack_align+0x20f1>
    800002e6:	d37c                	sw	a5,100(a4)
    800002e8:	47e1                	li	a5,24
    800002ea:	0af72423          	sw	a5,168(a4)
    800002ee:	0c072c23          	sw	zero,216(a4)
    800002f2:	0a072e23          	sw	zero,188(a4)
    800002f6:	47ad                	li	a5,11
    800002f8:	cf3c                	sw	a5,88(a4)
    800002fa:	4213a7b7          	lui	a5,0x4213a
    800002fe:	b5578793          	addi	a5,a5,-1195 # 42139b55 <__stack_size+0x42131b55>
    80000302:	08f72623          	sw	a5,140(a4)
    80000306:	67a1                	lui	a5,0x8
    80000308:	e6778793          	addi	a5,a5,-409 # 7e67 <__stack_size_min+0x1e67>
    8000030c:	df7c                	sw	a5,124(a4)
    8000030e:	0c072a23          	sw	zero,212(a4)
    80000312:	02072e23          	sw	zero,60(a4)
    80000316:	df4ce7b7          	lui	a5,0xdf4ce
    8000031a:	0e072423          	sw	zero,232(a4)
    8000031e:	be078793          	addi	a5,a5,-1056 # ffffffffdf4cdbe0 <ali3_data.1515+0xffffffff5f47d9e0>
    80000322:	0af72c23          	sw	a5,184(a4)
    80000326:	02100613          	li	a2,33
    8000032a:	67a5                	lui	a5,0x9
    8000032c:	0cc72423          	sw	a2,200(a4)
    80000330:	7e078613          	addi	a2,a5,2016 # 97e0 <__stack_size+0x17e0>
    80000334:	08c72423          	sw	a2,136(a4)
    80000338:	03500613          	li	a2,53
    8000033c:	08c72a23          	sw	a2,148(a4)
    80000340:	4805                	li	a6,1
    80000342:	cb34                	sw	a3,80(a4)
    80000344:	abc446b7          	lui	a3,0xabc44
    80000348:	09072c23          	sw	a6,152(a4)
    8000034c:	3a968693          	addi	a3,a3,937 # ffffffffabc443a9 <ali3_data.1515+0xffffffff2bbf41a9>
    80000350:	08d72e23          	sw	a3,156(a4)
    80000354:	6685                	lui	a3,0x1
    80000356:	e0168693          	addi	a3,a3,-511 # e01 <__stack_align+0xdf1>
    8000035a:	cf74                	sw	a3,92(a4)
    8000035c:	3dc326b7          	lui	a3,0x3dc32
    80000360:	4eb68693          	addi	a3,a3,1259 # 3dc324eb <__stack_size+0x3dc2a4eb>
    80000364:	0cd72023          	sw	a3,192(a4)
    80000368:	66a9                	lui	a3,0xa
    8000036a:	0b072a23          	sw	a6,180(a4)
    8000036e:	43368693          	addi	a3,a3,1075 # a433 <__stack_size+0x2433>
    80000372:	0cd72223          	sw	a3,196(a4)
    80000376:	e0088693          	addi	a3,a7,-512
    8000037a:	db34                	sw	a3,112(a4)
    8000037c:	800506b7          	lui	a3,0x80050
    80000380:	c734                	sw	a3,72(a4)
    80000382:	09072023          	sw	a6,128(a4)
    80000386:	40100613          	li	a2,1025
    8000038a:	df30                	sw	a2,120(a4)
    8000038c:	04072223          	sw	zero,68(a4)
    80000390:	0e072c23          	sw	zero,248(a4)
    80000394:	6619                	lui	a2,0x6
    80000396:	0c072623          	sw	zero,204(a4)
    8000039a:	9c160613          	addi	a2,a2,-1599 # 59c1 <__stack_align+0x59b1>
    8000039e:	d730                	sw	a2,104(a4)
    800003a0:	461d                	li	a2,7
    800003a2:	0cc72e23          	sw	a2,220(a4)
    800003a6:	43078593          	addi	a1,a5,1072
    800003aa:	db6c                	sw	a1,116(a4)
    800003ac:	04072023          	sw	zero,64(a4)
    800003b0:	0b878793          	addi	a5,a5,184
    800003b4:	0af72223          	sw	a5,164(a4)
    800003b8:	45a5                	li	a1,9
    800003ba:	100437b7          	lui	a5,0x10043
    800003be:	0ab72823          	sw	a1,176(a4)
    800003c2:	0007a223          	sw	zero,4(a5) # 10043004 <__stack_size+0x1003b004>
    800003c6:	0b000593          	li	a1,176
    800003ca:	0ab7a223          	sw	a1,164(a5)
    800003ce:	0c07a223          	sw	zero,196(a5)
    800003d2:	658d                	lui	a1,0x3
    800003d4:	0c07a823          	sw	zero,208(a5)
    800003d8:	6e458593          	addi	a1,a1,1764 # 36e4 <__stack_align+0x36d4>
    800003dc:	0ab7a423          	sw	a1,168(a5)
    800003e0:	0407ac23          	sw	zero,88(a5)
    800003e4:	973935b7          	lui	a1,0x97393
    800003e8:	0c07a423          	sw	zero,200(a5)
    800003ec:	cf458593          	addi	a1,a1,-780 # ffffffff97392cf4 <ali3_data.1515+0xffffffff17342af4>
    800003f0:	0ab7a023          	sw	a1,160(a5)
    800003f4:	0007ae23          	sw	zero,28(a5)
    800003f8:	0407a623          	sw	zero,76(a5)
    800003fc:	0c07ae23          	sw	zero,220(a5)
    80000400:	0607a223          	sw	zero,100(a5)
    80000404:	0c07a623          	sw	zero,204(a5)
    80000408:	0007a023          	sw	zero,0(a5)
    8000040c:	10000eb7          	lui	t4,0x10000
    80000410:	20068313          	addi	t1,a3,512 # ffffffff80050200 <ali3_data.1515+0xffffffff00000000>
    80000414:	0807ac23          	sw	zero,152(a5)
    80000418:	01d7aa23          	sw	t4,20(a5)
    8000041c:	07900593          	li	a1,121
    80000420:	0267ae23          	sw	t1,60(a5)
    80000424:	aaaae537          	lui	a0,0xaaaae
    80000428:	08b7a223          	sw	a1,132(a5)
    8000042c:	b0650513          	addi	a0,a0,-1274 # ffffffffaaaadb06 <ali3_data.1515+0xffffffff2aa5d906>
    80000430:	0ea7a423          	sw	a0,232(a5)
    80000434:	0e07a223          	sw	zero,228(a5)
    80000438:	0e07a023          	sw	zero,224(a5)
    8000043c:	0007a623          	sw	zero,12(a5)
    80000440:	0c07aa23          	sw	zero,212(a5)
    80000444:	fec725b7          	lui	a1,0xfec72
    80000448:	0607a023          	sw	zero,96(a5)
    8000044c:	4c958593          	addi	a1,a1,1225 # fffffffffec724c9 <ali3_data.1515+0xffffffff7ec222c9>
    80000450:	08b7ae23          	sw	a1,156(a5)
    80000454:	08000f13          	li	t5,128
    80000458:	09e7a023          	sw	t5,128(a5)
    8000045c:	0267aa23          	sw	t1,52(a5)
    80000460:	6335                	lui	t1,0xd
    80000462:	0c030313          	addi	t1,t1,192 # d0c0 <__stack_size+0x50c0>
    80000466:	0a67ac23          	sw	t1,184(a5)
    8000046a:	1c000593          	li	a1,448
    8000046e:	c3ac                	sw	a1,64(a5)
    80000470:	000205b7          	lui	a1,0x20
    80000474:	058d                	addi	a1,a1,3
    80000476:	0239ae37          	lui	t3,0x239a
    8000047a:	d78c                	sw	a1,40(a5)
    8000047c:	f80e0e13          	addi	t3,t3,-128 # 2399f80 <__stack_size+0x2391f80>
    80000480:	09c7aa23          	sw	t3,148(a5)
    80000484:	65c1                	lui	a1,0x10
    80000486:	0707aa23          	sw	a6,116(a5)
    8000048a:	9fa58f93          	addi	t6,a1,-1542 # f9fa <__stack_size+0x79fa>
    8000048e:	0bf7a623          	sw	t6,172(a5)
    80000492:	10088893          	addi	a7,a7,256
    80000496:	0517a423          	sw	a7,72(a5)
    8000049a:	0cc00893          	li	a7,204
    8000049e:	0917a623          	sw	a7,140(a5)
    800004a2:	10068693          	addi	a3,a3,256
    800004a6:	dff4                	sw	a3,124(a5)
    800004a8:	50b386b7          	lui	a3,0x50b38
    800004ac:	d390                	sw	a2,32(a5)
    800004ae:	f0068693          	addi	a3,a3,-256 # 50b37f00 <__stack_size+0x50b2ff00>
    800004b2:	08d7a823          	sw	a3,144(a5)
    800004b6:	000b06b7          	lui	a3,0xb0
    800004ba:	0607ac23          	sw	zero,120(a5)
    800004be:	069d                	addi	a3,a3,7
    800004c0:	c794                	sw	a3,8(a5)
    800004c2:	0d07a023          	sw	a6,192(a5)
    800004c6:	07c00693          	li	a3,124
    800004ca:	df94                	sw	a3,56(a5)
    800004cc:	0607a423          	sw	zero,104(a5)
    800004d0:	0207a223          	sw	zero,36(a5)
    800004d4:	0307a623          	sw	a6,44(a5)
    800004d8:	d7f0                	sw	a2,108(a5)
    800004da:	0207a823          	sw	zero,48(a5)
    800004de:	0c07ac23          	sw	zero,216(a5)
    800004e2:	40000693          	li	a3,1024
    800004e6:	cf94                	sw	a3,24(a5)
    800004e8:	946546b7          	lui	a3,0x94654
    800004ec:	22068693          	addi	a3,a3,544 # ffffffff94654220 <ali3_data.1515+0xffffffff14604020>
    800004f0:	08d7a423          	sw	a3,136(a5)
    800004f4:	000708b7          	lui	a7,0x70
    800004f8:	0ab7a823          	sw	a1,176(a5)
    800004fc:	0899                	addi	a7,a7,6
    800004fe:	f0e206b7          	lui	a3,0xf0e20
    80000502:	0b17ae23          	sw	a7,188(a5)
    80000506:	b4068693          	addi	a3,a3,-1216 # fffffffff0e1fb40 <ali3_data.1515+0xffffffff70dcf940>
    8000050a:	c3f4                	sw	a3,68(a5)
    8000050c:	0407ae23          	sw	zero,92(a5)
    80000510:	0607a823          	sw	zero,112(a5)
    80000514:	100446b7          	lui	a3,0x10044
    80000518:	0a07aa23          	sw	zero,180(a5)
    8000051c:	0006a223          	sw	zero,4(a3) # 10044004 <__stack_size+0x1003c004>
    80000520:	0406a423          	sw	zero,72(a3)
    80000524:	0206ae23          	sw	zero,60(a3)
    80000528:	0206a023          	sw	zero,32(a3)
    8000052c:	0006ae23          	sw	zero,28(a3)
    80000530:	03e6aa23          	sw	t5,52(a3)
    80000534:	0206a623          	sw	zero,44(a3)
    80000538:	0406a023          	sw	zero,64(a3)
    8000053c:	0706a023          	sw	a6,96(a3)
    80000540:	0006aa23          	sw	zero,20(a3)
    80000544:	0006a023          	sw	zero,0(a3)
    80000548:	d2e8                	sw	a0,100(a3)
    8000054a:	0206a223          	sw	zero,36(a3)
    8000054e:	0206a423          	sw	zero,40(a3)
    80000552:	0516ae23          	sw	a7,92(a3)
    80000556:	0406a223          	sw	zero,68(a3)
    8000055a:	000d08b7          	lui	a7,0xd0
    8000055e:	c6ec                	sw	a1,76(a3)
    80000560:	088d                	addi	a7,a7,3
    80000562:	0516a823          	sw	a7,80(a3)
    80000566:	0406aa23          	sw	zero,84(a3)
    8000056a:	03c6ac23          	sw	t3,56(a3)
    8000056e:	0466ac23          	sw	t1,88(a3)
    80000572:	ce90                	sw	a2,24(a3)
    80000574:	da90                	sw	a2,48(a3)
    80000576:	0006a823          	sw	zero,16(a3)
    8000057a:	10045337          	lui	t1,0x10045
    8000057e:	01d6a623          	sw	t4,12(a3)
    80000582:	00032223          	sw	zero,4(t1) # 10045004 <__stack_size+0x1003d004>
    80000586:	00032623          	sw	zero,12(t1)
    8000058a:	00032023          	sw	zero,0(t1)
    8000058e:	100468b7          	lui	a7,0x10046
    80000592:	0008a223          	sw	zero,4(a7) # 10046004 <__stack_size+0x1003e004>
    80000596:	0008a023          	sw	zero,0(a7)
    8000059a:	0008a623          	sw	zero,12(a7)
    8000059e:	10047637          	lui	a2,0x10047
    800005a2:	00062223          	sw	zero,4(a2) # 10047004 <__stack_size+0x1003f004>
    800005a6:	4e19                	li	t3,6
    800005a8:	03c62623          	sw	t3,44(a2)
    800005ac:	0f5ace37          	lui	t3,0xf5ac
    800005b0:	2e0e0e13          	addi	t3,t3,736 # f5ac2e0 <__stack_size+0xf5a42e0>
    800005b4:	01c62c23          	sw	t3,24(a2)
    800005b8:	00062623          	sw	zero,12(a2)
    800005bc:	00062023          	sw	zero,0(a2)
    800005c0:	00062823          	sw	zero,16(a2)
    800005c4:	da48                	sw	a0,52(a2)
    800005c6:	02000513          	li	a0,32
    800005ca:	d208                	sw	a0,32(a2)
    800005cc:	0585                	addi	a1,a1,1
    800005ce:	d60c                	sw	a1,40(a2)
    800005d0:	d248                	sw	a0,36(a2)
    800005d2:	02062823          	sw	zero,48(a2)
    800005d6:	00062e23          	sw	zero,28(a2)
    800005da:	00062a23          	sw	zero,20(a2)
    800005de:	03072c23          	sw	a6,56(a4)
    800005e2:	01062423          	sw	a6,8(a2)
    800005e6:	01032423          	sw	a6,8(t1)
    800005ea:	0108a423          	sw	a6,8(a7)
    800005ee:	0106a423          	sw	a6,8(a3)
    800005f2:	0107a823          	sw	a6,16(a5)
    800005f6:	4605                	li	a2,1
    800005f8:	458d                	li	a1,3
    800005fa:	651d                	lui	a0,0x7
    800005fc:	0ec000ef          	jal	ra,800006e8 <poll_field_not_equal>
    80000600:	4605                	li	a2,1
    80000602:	458d                	li	a1,3
    80000604:	650d                	lui	a0,0x3
    80000606:	0e2000ef          	jal	ra,800006e8 <poll_field_not_equal>
    8000060a:	4605                	li	a2,1
    8000060c:	458d                	li	a1,3
    8000060e:	6515                	lui	a0,0x5
    80000610:	0d8000ef          	jal	ra,800006e8 <poll_field_not_equal>
    80000614:	4605                	li	a2,1
    80000616:	458d                	li	a1,3
    80000618:	6519                	lui	a0,0x6
    8000061a:	0ce000ef          	jal	ra,800006e8 <poll_field_not_equal>
    8000061e:	4605                	li	a2,1
    80000620:	458d                	li	a1,3
    80000622:	6511                	lui	a0,0x4
    80000624:	0c4000ef          	jal	ra,800006e8 <poll_field_not_equal>
    80000628:	4509                	li	a0,2
    8000062a:	4621                	li	a2,8
    8000062c:	4581                	li	a1,0
    8000062e:	104000ef          	jal	ra,80000732 <get_context>
    80000632:	60e2                	ld	ra,24(sp)
    80000634:	6442                	ld	s0,16(sp)
    80000636:	64a2                	ld	s1,8(sp)
    80000638:	4501                	li	a0,0
    8000063a:	6105                	addi	sp,sp,32
    8000063c:	8082                	ret

000000008000063e <ape_get_ali1>:
    8000063e:	00050517          	auipc	a0,0x50
    80000642:	ac250513          	addi	a0,a0,-1342 # 80050100 <ali1_data.1515>
    80000646:	8082                	ret

0000000080000648 <ape_get_ali3>:
    80000648:	00050517          	auipc	a0,0x50
    8000064c:	bb850513          	addi	a0,a0,-1096 # 80050200 <ali3_data.1515>
    80000650:	8082                	ret

0000000080000652 <dram_init.part.0>:
    80000652:	82818813          	addi	a6,gp,-2008 # 80002728 <size_start.2569>
    80000656:	00083783          	ld	a5,0(a6)
    8000065a:	8301b603          	ld	a2,-2000(gp) # 80002730 <ram_ptr>
    8000065e:	00359693          	slli	a3,a1,0x3
    80000662:	86818713          	addi	a4,gp,-1944 # 80002768 <ram_addr>
    80000666:	963e                	add	a2,a2,a5
    80000668:	9736                	add	a4,a4,a3
    8000066a:	97aa                	add	a5,a5,a0
    8000066c:	00002517          	auipc	a0,0x2
    80000670:	cac50513          	addi	a0,a0,-852 # 80002318 <__tbss_end>
    80000674:	e310                	sd	a2,0(a4)
    80000676:	00f83023          	sd	a5,0(a6)
    8000067a:	aafd                	j	80000878 <iprintf>

000000008000067c <dram_copy.part.0>:
    8000067c:	1101                	addi	sp,sp,-32
    8000067e:	e822                	sd	s0,16(sp)
    80000680:	e426                	sd	s1,8(sp)
    80000682:	842a                	mv	s0,a0
    80000684:	84ae                	mv	s1,a1
    80000686:	85aa                	mv	a1,a0
    80000688:	00002517          	auipc	a0,0x2
    8000068c:	cb050513          	addi	a0,a0,-848 # 80002338 <__tbss_end+0x20>
    80000690:	ec06                	sd	ra,24(sp)
    80000692:	1e6000ef          	jal	ra,80000878 <iprintf>
    80000696:	00349713          	slli	a4,s1,0x3
    8000069a:	86818793          	addi	a5,gp,-1944 # 80002768 <ram_addr>
    8000069e:	97ba                	add	a5,a5,a4
    800006a0:	e380                	sd	s0,0(a5)
    800006a2:	8622                	mv	a2,s0
    800006a4:	6442                	ld	s0,16(sp)
    800006a6:	60e2                	ld	ra,24(sp)
    800006a8:	85a6                	mv	a1,s1
    800006aa:	64a2                	ld	s1,8(sp)
    800006ac:	00002517          	auipc	a0,0x2
    800006b0:	c9c50513          	addi	a0,a0,-868 # 80002348 <__tbss_end+0x30>
    800006b4:	6105                	addi	sp,sp,32
    800006b6:	a2c9                	j	80000878 <iprintf>

00000000800006b8 <reg_write32>:
    800006b8:	1502                	slli	a0,a0,0x20
    800006ba:	9101                	srli	a0,a0,0x20
    800006bc:	c10c                	sw	a1,0(a0)
    800006be:	8082                	ret

00000000800006c0 <reg_read32>:
    800006c0:	1502                	slli	a0,a0,0x20
    800006c2:	9101                	srli	a0,a0,0x20
    800006c4:	4108                	lw	a0,0(a0)
    800006c6:	2501                	sext.w	a0,a0
    800006c8:	8082                	ret

00000000800006ca <dram_init>:
    800006ca:	00357713          	andi	a4,a0,3
    800006ce:	e311                	bnez	a4,800006d2 <dram_init+0x8>
    800006d0:	b749                	j	80000652 <dram_init.part.0>
    800006d2:	85aa                	mv	a1,a0
    800006d4:	00002517          	auipc	a0,0x2
    800006d8:	c8c50513          	addi	a0,a0,-884 # 80002360 <__tbss_end+0x48>
    800006dc:	aa71                	j	80000878 <iprintf>

00000000800006de <dram_copy>:
    800006de:	852e                	mv	a0,a1
    800006e0:	85b2                	mv	a1,a2
    800006e2:	c111                	beqz	a0,800006e6 <dram_copy+0x8>
    800006e4:	bf61                	j	8000067c <dram_copy.part.0>
    800006e6:	8082                	ret

00000000800006e8 <poll_field_not_equal>:
    800006e8:	7179                	addi	sp,sp,-48
    800006ea:	c62a                	sw	a0,12(sp)
    800006ec:	c42e                	sw	a1,8(sp)
    800006ee:	c232                	sw	a2,4(sp)
    800006f0:	45b2                	lw	a1,12(sp)
    800006f2:	4622                	lw	a2,8(sp)
    800006f4:	4692                	lw	a3,4(sp)
    800006f6:	2581                	sext.w	a1,a1
    800006f8:	2601                	sext.w	a2,a2
    800006fa:	2681                	sext.w	a3,a3
    800006fc:	00002517          	auipc	a0,0x2
    80000700:	c8450513          	addi	a0,a0,-892 # 80002380 <__tbss_end+0x68>
    80000704:	f406                	sd	ra,40(sp)
    80000706:	172000ef          	jal	ra,80000878 <iprintf>
    8000070a:	10040637          	lui	a2,0x10040
    8000070e:	47b2                	lw	a5,12(sp)
    80000710:	9fb1                	addw	a5,a5,a2
    80000712:	1782                	slli	a5,a5,0x20
    80000714:	9381                	srli	a5,a5,0x20
    80000716:	439c                	lw	a5,0(a5)
    80000718:	2781                	sext.w	a5,a5
    8000071a:	ce3e                	sw	a5,28(sp)
    8000071c:	46f2                	lw	a3,28(sp)
    8000071e:	47a2                	lw	a5,8(sp)
    80000720:	4712                	lw	a4,4(sp)
    80000722:	8ff5                	and	a5,a5,a3
    80000724:	2701                	sext.w	a4,a4
    80000726:	2781                	sext.w	a5,a5
    80000728:	fee783e3          	beq	a5,a4,8000070e <poll_field_not_equal+0x26>
    8000072c:	70a2                	ld	ra,40(sp)
    8000072e:	6145                	addi	sp,sp,48
    80000730:	8082                	ret

0000000080000732 <get_context>:
    80000732:	715d                	addi	sp,sp,-80
    80000734:	f44e                	sd	s3,40(sp)
    80000736:	050e                	slli	a0,a0,0x3
    80000738:	86818993          	addi	s3,gp,-1944 # 80002768 <ram_addr>
    8000073c:	99aa                	add	s3,s3,a0
    8000073e:	e486                	sd	ra,72(sp)
    80000740:	e0a2                	sd	s0,64(sp)
    80000742:	fc26                	sd	s1,56(sp)
    80000744:	8432                	mv	s0,a2
    80000746:	0009b483          	ld	s1,0(s3)
    8000074a:	f84a                	sd	s2,48(sp)
    8000074c:	f052                	sd	s4,32(sp)
    8000074e:	ec56                	sd	s5,24(sp)
    80000750:	e85a                	sd	s6,16(sp)
    80000752:	e45e                	sd	s7,8(sp)
    80000754:	0e4000ef          	jal	ra,80000838 <ape_get_right_value>
    80000758:	0009b583          	ld	a1,0(s3)
    8000075c:	892a                	mv	s2,a0
    8000075e:	8626                	mv	a2,s1
    80000760:	00002517          	auipc	a0,0x2
    80000764:	c5850513          	addi	a0,a0,-936 # 800023b8 <__tbss_end+0xa0>
    80000768:	110000ef          	jal	ra,80000878 <iprintf>
    8000076c:	41f4599b          	sraiw	s3,s0,0x1f
    80000770:	01e9d99b          	srliw	s3,s3,0x1e
    80000774:	478d                	li	a5,3
    80000776:	008989bb          	addw	s3,s3,s0
    8000077a:	0a87da63          	bge	a5,s0,8000082e <get_context+0xfc>
    8000077e:	4029da1b          	sraiw	s4,s3,0x2
    80000782:	8ad2                	mv	s5,s4
    80000784:	89a6                	mv	s3,s1
    80000786:	4401                	li	s0,0
    80000788:	00002b97          	auipc	s7,0x2
    8000078c:	c60b8b93          	addi	s7,s7,-928 # 800023e8 <__tbss_end+0xd0>
    80000790:	00002b17          	auipc	s6,0x2
    80000794:	c48b0b13          	addi	s6,s6,-952 # 800023d8 <__tbss_end+0xc0>
    80000798:	2405                	addiw	s0,s0,1
    8000079a:	00347793          	andi	a5,s0,3
    8000079e:	0009a583          	lw	a1,0(s3)
    800007a2:	855a                	mv	a0,s6
    800007a4:	c391                	beqz	a5,800007a8 <get_context+0x76>
    800007a6:	855e                	mv	a0,s7
    800007a8:	0d0000ef          	jal	ra,80000878 <iprintf>
    800007ac:	0991                	addi	s3,s3,4
    800007ae:	ff4445e3          	blt	s0,s4,80000798 <get_context+0x66>
    800007b2:	00002517          	auipc	a0,0x2
    800007b6:	c9650513          	addi	a0,a0,-874 # 80002448 <__tbss_end+0x130>
    800007ba:	fffa899b          	addiw	s3,s5,-1
    800007be:	0ba000ef          	jal	ra,80000878 <iprintf>
    800007c2:	4401                	li	s0,0
    800007c4:	00002a97          	auipc	s5,0x2
    800007c8:	c2ca8a93          	addi	s5,s5,-980 # 800023f0 <__tbss_end+0xd8>
    800007cc:	a031                	j	800007d8 <get_context+0xa6>
    800007ce:	05340063          	beq	s0,s3,8000080e <get_context+0xdc>
    800007d2:	2405                	addiw	s0,s0,1
    800007d4:	05445263          	bge	s0,s4,80000818 <get_context+0xe6>
    800007d8:	4090                	lw	a2,0(s1)
    800007da:	85a2                	mv	a1,s0
    800007dc:	8556                	mv	a0,s5
    800007de:	09a000ef          	jal	ra,80000878 <iprintf>
    800007e2:	4098                	lw	a4,0(s1)
    800007e4:	00092783          	lw	a5,0(s2)
    800007e8:	0491                	addi	s1,s1,4
    800007ea:	0911                	addi	s2,s2,4
    800007ec:	fef701e3          	beq	a4,a5,800007ce <get_context+0x9c>
    800007f0:	00002517          	auipc	a0,0x2
    800007f4:	c1050513          	addi	a0,a0,-1008 # 80002400 <__tbss_end+0xe8>
    800007f8:	6406                	ld	s0,64(sp)
    800007fa:	60a6                	ld	ra,72(sp)
    800007fc:	74e2                	ld	s1,56(sp)
    800007fe:	7942                	ld	s2,48(sp)
    80000800:	79a2                	ld	s3,40(sp)
    80000802:	7a02                	ld	s4,32(sp)
    80000804:	6ae2                	ld	s5,24(sp)
    80000806:	6b42                	ld	s6,16(sp)
    80000808:	6ba2                	ld	s7,8(sp)
    8000080a:	6161                	addi	sp,sp,80
    8000080c:	a0b5                	j	80000878 <iprintf>
    8000080e:	00002517          	auipc	a0,0x2
    80000812:	c1a50513          	addi	a0,a0,-998 # 80002428 <__tbss_end+0x110>
    80000816:	b7cd                	j	800007f8 <get_context+0xc6>
    80000818:	60a6                	ld	ra,72(sp)
    8000081a:	6406                	ld	s0,64(sp)
    8000081c:	74e2                	ld	s1,56(sp)
    8000081e:	7942                	ld	s2,48(sp)
    80000820:	79a2                	ld	s3,40(sp)
    80000822:	7a02                	ld	s4,32(sp)
    80000824:	6ae2                	ld	s5,24(sp)
    80000826:	6b42                	ld	s6,16(sp)
    80000828:	6ba2                	ld	s7,8(sp)
    8000082a:	6161                	addi	sp,sp,80
    8000082c:	8082                	ret
    8000082e:	00002517          	auipc	a0,0x2
    80000832:	c1a50513          	addi	a0,a0,-998 # 80002448 <__tbss_end+0x130>
    80000836:	b7c9                	j	800007f8 <get_context+0xc6>

0000000080000838 <ape_get_right_value>:
    80000838:	82018513          	addi	a0,gp,-2016 # 80002720 <right_value.1514>
    8000083c:	8082                	ret

000000008000083e <_iprintf_r>:
    8000083e:	711d                	addi	sp,sp,-96
    80000840:	f022                	sd	s0,32(sp)
    80000842:	ec26                	sd	s1,24(sp)
    80000844:	f406                	sd	ra,40(sp)
    80000846:	f832                	sd	a2,48(sp)
    80000848:	fc36                	sd	a3,56(sp)
    8000084a:	e0ba                	sd	a4,64(sp)
    8000084c:	e4be                	sd	a5,72(sp)
    8000084e:	e8c2                	sd	a6,80(sp)
    80000850:	ecc6                	sd	a7,88(sp)
    80000852:	842a                	mv	s0,a0
    80000854:	84ae                	mv	s1,a1
    80000856:	c509                	beqz	a0,80000860 <_iprintf_r+0x22>
    80000858:	591c                	lw	a5,48(a0)
    8000085a:	e399                	bnez	a5,80000860 <_iprintf_r+0x22>
    8000085c:	126000ef          	jal	ra,80000982 <__sinit>
    80000860:	680c                	ld	a1,16(s0)
    80000862:	1814                	addi	a3,sp,48
    80000864:	8626                	mv	a2,s1
    80000866:	8522                	mv	a0,s0
    80000868:	e436                	sd	a3,8(sp)
    8000086a:	4be000ef          	jal	ra,80000d28 <_vfiprintf_r>
    8000086e:	70a2                	ld	ra,40(sp)
    80000870:	7402                	ld	s0,32(sp)
    80000872:	64e2                	ld	s1,24(sp)
    80000874:	6125                	addi	sp,sp,96
    80000876:	8082                	ret

0000000080000878 <iprintf>:
    80000878:	7159                	addi	sp,sp,-112
    8000087a:	f022                	sd	s0,32(sp)
    8000087c:	f406                	sd	ra,40(sp)
    8000087e:	842a                	mv	s0,a0
    80000880:	fc2e                	sd	a1,56(sp)
    80000882:	e0b2                	sd	a2,64(sp)
    80000884:	e4b6                	sd	a3,72(sp)
    80000886:	e8ba                	sd	a4,80(sp)
    80000888:	ecbe                	sd	a5,88(sp)
    8000088a:	f0c2                	sd	a6,96(sp)
    8000088c:	f4c6                	sd	a7,104(sp)
    8000088e:	00002517          	auipc	a0,0x2
    80000892:	e7253503          	ld	a0,-398(a0) # 80002700 <_impure_ptr>
    80000896:	c519                	beqz	a0,800008a4 <iprintf+0x2c>
    80000898:	591c                	lw	a5,48(a0)
    8000089a:	e789                	bnez	a5,800008a4 <iprintf+0x2c>
    8000089c:	e42a                	sd	a0,8(sp)
    8000089e:	0e4000ef          	jal	ra,80000982 <__sinit>
    800008a2:	6522                	ld	a0,8(sp)
    800008a4:	690c                	ld	a1,16(a0)
    800008a6:	1834                	addi	a3,sp,56
    800008a8:	8622                	mv	a2,s0
    800008aa:	ec36                	sd	a3,24(sp)
    800008ac:	47c000ef          	jal	ra,80000d28 <_vfiprintf_r>
    800008b0:	70a2                	ld	ra,40(sp)
    800008b2:	7402                	ld	s0,32(sp)
    800008b4:	6165                	addi	sp,sp,112
    800008b6:	8082                	ret

00000000800008b8 <__fp_lock>:
    800008b8:	4501                	li	a0,0
    800008ba:	8082                	ret

00000000800008bc <std>:
    800008bc:	1141                	addi	sp,sp,-16
    800008be:	e022                	sd	s0,0(sp)
    800008c0:	e406                	sd	ra,8(sp)
    800008c2:	842a                	mv	s0,a0
    800008c4:	00b51823          	sh	a1,16(a0)
    800008c8:	00c51923          	sh	a2,18(a0)
    800008cc:	00053023          	sd	zero,0(a0)
    800008d0:	00053423          	sd	zero,8(a0)
    800008d4:	0a052623          	sw	zero,172(a0)
    800008d8:	00053c23          	sd	zero,24(a0)
    800008dc:	02052023          	sw	zero,32(a0)
    800008e0:	02052423          	sw	zero,40(a0)
    800008e4:	4621                	li	a2,8
    800008e6:	4581                	li	a1,0
    800008e8:	0a450513          	addi	a0,a0,164
    800008ec:	2a6000ef          	jal	ra,80000b92 <memset>
    800008f0:	00001797          	auipc	a5,0x1
    800008f4:	ada78793          	addi	a5,a5,-1318 # 800013ca <__sread>
    800008f8:	e03c                	sd	a5,64(s0)
    800008fa:	00001797          	auipc	a5,0x1
    800008fe:	b0678793          	addi	a5,a5,-1274 # 80001400 <__swrite>
    80000902:	e43c                	sd	a5,72(s0)
    80000904:	00001797          	auipc	a5,0x1
    80000908:	b4c78793          	addi	a5,a5,-1204 # 80001450 <__sseek>
    8000090c:	e83c                	sd	a5,80(s0)
    8000090e:	00001797          	auipc	a5,0x1
    80000912:	b7a78793          	addi	a5,a5,-1158 # 80001488 <__sclose>
    80000916:	60a2                	ld	ra,8(sp)
    80000918:	fc00                	sd	s0,56(s0)
    8000091a:	ec3c                	sd	a5,88(s0)
    8000091c:	6402                	ld	s0,0(sp)
    8000091e:	0141                	addi	sp,sp,16
    80000920:	8082                	ret

0000000080000922 <_cleanup_r>:
    80000922:	00001597          	auipc	a1,0x1
    80000926:	ee258593          	addi	a1,a1,-286 # 80001804 <_fflush_r>
    8000092a:	aaf5                	j	80000b26 <_fwalk_reent>

000000008000092c <__fp_unlock>:
    8000092c:	4501                	li	a0,0
    8000092e:	8082                	ret

0000000080000930 <__sfmoreglue>:
    80000930:	1101                	addi	sp,sp,-32
    80000932:	e426                	sd	s1,8(sp)
    80000934:	0b000613          	li	a2,176
    80000938:	fff5849b          	addiw	s1,a1,-1
    8000093c:	02c484b3          	mul	s1,s1,a2
    80000940:	e04a                	sd	s2,0(sp)
    80000942:	892e                	mv	s2,a1
    80000944:	e822                	sd	s0,16(sp)
    80000946:	ec06                	sd	ra,24(sp)
    80000948:	0c848593          	addi	a1,s1,200
    8000094c:	256000ef          	jal	ra,80000ba2 <_malloc_r>
    80000950:	842a                	mv	s0,a0
    80000952:	cd01                	beqz	a0,8000096a <__sfmoreglue+0x3a>
    80000954:	00053023          	sd	zero,0(a0)
    80000958:	01252423          	sw	s2,8(a0)
    8000095c:	0561                	addi	a0,a0,24
    8000095e:	e808                	sd	a0,16(s0)
    80000960:	0b048613          	addi	a2,s1,176
    80000964:	4581                	li	a1,0
    80000966:	22c000ef          	jal	ra,80000b92 <memset>
    8000096a:	60e2                	ld	ra,24(sp)
    8000096c:	8522                	mv	a0,s0
    8000096e:	6442                	ld	s0,16(sp)
    80000970:	64a2                	ld	s1,8(sp)
    80000972:	6902                	ld	s2,0(sp)
    80000974:	6105                	addi	sp,sp,32
    80000976:	8082                	ret

0000000080000978 <_cleanup>:
    80000978:	00002517          	auipc	a0,0x2
    8000097c:	c6053503          	ld	a0,-928(a0) # 800025d8 <_global_impure_ptr>
    80000980:	b74d                	j	80000922 <_cleanup_r>

0000000080000982 <__sinit>:
    80000982:	591c                	lw	a5,48(a0)
    80000984:	ebad                	bnez	a5,800009f6 <__sinit+0x74>
    80000986:	1141                	addi	sp,sp,-16
    80000988:	e022                	sd	s0,0(sp)
    8000098a:	e406                	sd	ra,8(sp)
    8000098c:	00000797          	auipc	a5,0x0
    80000990:	f9678793          	addi	a5,a5,-106 # 80000922 <_cleanup_r>
    80000994:	e53c                	sd	a5,72(a0)
    80000996:	08053023          	sd	zero,128(a0)
    8000099a:	08052423          	sw	zero,136(a0)
    8000099e:	08053823          	sd	zero,144(a0)
    800009a2:	00002797          	auipc	a5,0x2
    800009a6:	c367b783          	ld	a5,-970(a5) # 800025d8 <_global_impure_ptr>
    800009aa:	842a                	mv	s0,a0
    800009ac:	00f51463          	bne	a0,a5,800009b4 <__sinit+0x32>
    800009b0:	4785                	li	a5,1
    800009b2:	d91c                	sw	a5,48(a0)
    800009b4:	8522                	mv	a0,s0
    800009b6:	042000ef          	jal	ra,800009f8 <__sfp>
    800009ba:	e408                	sd	a0,8(s0)
    800009bc:	8522                	mv	a0,s0
    800009be:	03a000ef          	jal	ra,800009f8 <__sfp>
    800009c2:	e808                	sd	a0,16(s0)
    800009c4:	8522                	mv	a0,s0
    800009c6:	032000ef          	jal	ra,800009f8 <__sfp>
    800009ca:	ec08                	sd	a0,24(s0)
    800009cc:	6408                	ld	a0,8(s0)
    800009ce:	4601                	li	a2,0
    800009d0:	4591                	li	a1,4
    800009d2:	eebff0ef          	jal	ra,800008bc <std>
    800009d6:	6808                	ld	a0,16(s0)
    800009d8:	4605                	li	a2,1
    800009da:	45a5                	li	a1,9
    800009dc:	ee1ff0ef          	jal	ra,800008bc <std>
    800009e0:	6c08                	ld	a0,24(s0)
    800009e2:	4609                	li	a2,2
    800009e4:	45c9                	li	a1,18
    800009e6:	ed7ff0ef          	jal	ra,800008bc <std>
    800009ea:	4785                	li	a5,1
    800009ec:	60a2                	ld	ra,8(sp)
    800009ee:	d81c                	sw	a5,48(s0)
    800009f0:	6402                	ld	s0,0(sp)
    800009f2:	0141                	addi	sp,sp,16
    800009f4:	8082                	ret
    800009f6:	8082                	ret

00000000800009f8 <__sfp>:
    800009f8:	1101                	addi	sp,sp,-32
    800009fa:	e426                	sd	s1,8(sp)
    800009fc:	00002497          	auipc	s1,0x2
    80000a00:	bdc4b483          	ld	s1,-1060(s1) # 800025d8 <_global_impure_ptr>
    80000a04:	589c                	lw	a5,48(s1)
    80000a06:	e04a                	sd	s2,0(sp)
    80000a08:	ec06                	sd	ra,24(sp)
    80000a0a:	e822                	sd	s0,16(sp)
    80000a0c:	892a                	mv	s2,a0
    80000a0e:	e781                	bnez	a5,80000a16 <__sfp+0x1e>
    80000a10:	8526                	mv	a0,s1
    80000a12:	f71ff0ef          	jal	ra,80000982 <__sinit>
    80000a16:	08048493          	addi	s1,s1,128
    80000a1a:	6880                	ld	s0,16(s1)
    80000a1c:	449c                	lw	a5,8(s1)
    80000a1e:	37fd                	addiw	a5,a5,-1
    80000a20:	0007d663          	bgez	a5,80000a2c <__sfp+0x34>
    80000a24:	609c                	ld	a5,0(s1)
    80000a26:	cfa9                	beqz	a5,80000a80 <__sfp+0x88>
    80000a28:	6084                	ld	s1,0(s1)
    80000a2a:	bfc5                	j	80000a1a <__sfp+0x22>
    80000a2c:	01041703          	lh	a4,16(s0)
    80000a30:	e729                	bnez	a4,80000a7a <__sfp+0x82>
    80000a32:	77c1                	lui	a5,0xffff0
    80000a34:	0785                	addi	a5,a5,1
    80000a36:	0a042623          	sw	zero,172(s0)
    80000a3a:	00043023          	sd	zero,0(s0)
    80000a3e:	00043423          	sd	zero,8(s0)
    80000a42:	c81c                	sw	a5,16(s0)
    80000a44:	00043c23          	sd	zero,24(s0)
    80000a48:	02042023          	sw	zero,32(s0)
    80000a4c:	02042423          	sw	zero,40(s0)
    80000a50:	4621                	li	a2,8
    80000a52:	4581                	li	a1,0
    80000a54:	0a440513          	addi	a0,s0,164
    80000a58:	13a000ef          	jal	ra,80000b92 <memset>
    80000a5c:	06043023          	sd	zero,96(s0)
    80000a60:	06042423          	sw	zero,104(s0)
    80000a64:	08043023          	sd	zero,128(s0)
    80000a68:	08042423          	sw	zero,136(s0)
    80000a6c:	60e2                	ld	ra,24(sp)
    80000a6e:	8522                	mv	a0,s0
    80000a70:	6442                	ld	s0,16(sp)
    80000a72:	64a2                	ld	s1,8(sp)
    80000a74:	6902                	ld	s2,0(sp)
    80000a76:	6105                	addi	sp,sp,32
    80000a78:	8082                	ret
    80000a7a:	0b040413          	addi	s0,s0,176
    80000a7e:	b745                	j	80000a1e <__sfp+0x26>
    80000a80:	4591                	li	a1,4
    80000a82:	854a                	mv	a0,s2
    80000a84:	eadff0ef          	jal	ra,80000930 <__sfmoreglue>
    80000a88:	e088                	sd	a0,0(s1)
    80000a8a:	842a                	mv	s0,a0
    80000a8c:	fd51                	bnez	a0,80000a28 <__sfp+0x30>
    80000a8e:	47b1                	li	a5,12
    80000a90:	00f92023          	sw	a5,0(s2)
    80000a94:	bfe1                	j	80000a6c <__sfp+0x74>

0000000080000a96 <__sfp_lock_acquire>:
    80000a96:	8082                	ret

0000000080000a98 <__sfp_lock_release>:
    80000a98:	8082                	ret

0000000080000a9a <__sinit_lock_acquire>:
    80000a9a:	8082                	ret

0000000080000a9c <__sinit_lock_release>:
    80000a9c:	8082                	ret

0000000080000a9e <__fp_lock_all>:
    80000a9e:	00000597          	auipc	a1,0x0
    80000aa2:	e1a58593          	addi	a1,a1,-486 # 800008b8 <__fp_lock>
    80000aa6:	00002517          	auipc	a0,0x2
    80000aaa:	c5a53503          	ld	a0,-934(a0) # 80002700 <_impure_ptr>
    80000aae:	a811                	j	80000ac2 <_fwalk>

0000000080000ab0 <__fp_unlock_all>:
    80000ab0:	00000597          	auipc	a1,0x0
    80000ab4:	e7c58593          	addi	a1,a1,-388 # 8000092c <__fp_unlock>
    80000ab8:	00002517          	auipc	a0,0x2
    80000abc:	c4853503          	ld	a0,-952(a0) # 80002700 <_impure_ptr>
    80000ac0:	a009                	j	80000ac2 <_fwalk>

0000000080000ac2 <_fwalk>:
    80000ac2:	7139                	addi	sp,sp,-64
    80000ac4:	f822                	sd	s0,48(sp)
    80000ac6:	f426                	sd	s1,40(sp)
    80000ac8:	ec4e                	sd	s3,24(sp)
    80000aca:	e456                	sd	s5,8(sp)
    80000acc:	e05a                	sd	s6,0(sp)
    80000ace:	fc06                	sd	ra,56(sp)
    80000ad0:	f04a                	sd	s2,32(sp)
    80000ad2:	e852                	sd	s4,16(sp)
    80000ad4:	89ae                	mv	s3,a1
    80000ad6:	08050413          	addi	s0,a0,128
    80000ada:	4481                	li	s1,0
    80000adc:	4a85                	li	s5,1
    80000ade:	5b7d                	li	s6,-1
    80000ae0:	01043903          	ld	s2,16(s0)
    80000ae4:	00842a03          	lw	s4,8(s0)
    80000ae8:	3a7d                	addiw	s4,s4,-1
    80000aea:	000a5f63          	bgez	s4,80000b08 <_fwalk+0x46>
    80000aee:	6000                	ld	s0,0(s0)
    80000af0:	f865                	bnez	s0,80000ae0 <_fwalk+0x1e>
    80000af2:	70e2                	ld	ra,56(sp)
    80000af4:	7442                	ld	s0,48(sp)
    80000af6:	7902                	ld	s2,32(sp)
    80000af8:	69e2                	ld	s3,24(sp)
    80000afa:	6a42                	ld	s4,16(sp)
    80000afc:	6aa2                	ld	s5,8(sp)
    80000afe:	6b02                	ld	s6,0(sp)
    80000b00:	8526                	mv	a0,s1
    80000b02:	74a2                	ld	s1,40(sp)
    80000b04:	6121                	addi	sp,sp,64
    80000b06:	8082                	ret
    80000b08:	01095783          	lhu	a5,16(s2)
    80000b0c:	00fafa63          	bgeu	s5,a5,80000b20 <_fwalk+0x5e>
    80000b10:	01291783          	lh	a5,18(s2)
    80000b14:	01678663          	beq	a5,s6,80000b20 <_fwalk+0x5e>
    80000b18:	854a                	mv	a0,s2
    80000b1a:	9982                	jalr	s3
    80000b1c:	8cc9                	or	s1,s1,a0
    80000b1e:	2481                	sext.w	s1,s1
    80000b20:	0b090913          	addi	s2,s2,176
    80000b24:	b7d1                	j	80000ae8 <_fwalk+0x26>

0000000080000b26 <_fwalk_reent>:
    80000b26:	715d                	addi	sp,sp,-80
    80000b28:	e0a2                	sd	s0,64(sp)
    80000b2a:	fc26                	sd	s1,56(sp)
    80000b2c:	f44e                	sd	s3,40(sp)
    80000b2e:	f052                	sd	s4,32(sp)
    80000b30:	e85a                	sd	s6,16(sp)
    80000b32:	e45e                	sd	s7,8(sp)
    80000b34:	e486                	sd	ra,72(sp)
    80000b36:	f84a                	sd	s2,48(sp)
    80000b38:	ec56                	sd	s5,24(sp)
    80000b3a:	89aa                	mv	s3,a0
    80000b3c:	8a2e                	mv	s4,a1
    80000b3e:	08050493          	addi	s1,a0,128
    80000b42:	4401                	li	s0,0
    80000b44:	4b05                	li	s6,1
    80000b46:	5bfd                	li	s7,-1
    80000b48:	0104b903          	ld	s2,16(s1)
    80000b4c:	0084aa83          	lw	s5,8(s1)
    80000b50:	3afd                	addiw	s5,s5,-1
    80000b52:	020ad063          	bgez	s5,80000b72 <_fwalk_reent+0x4c>
    80000b56:	6084                	ld	s1,0(s1)
    80000b58:	f8e5                	bnez	s1,80000b48 <_fwalk_reent+0x22>
    80000b5a:	60a6                	ld	ra,72(sp)
    80000b5c:	8522                	mv	a0,s0
    80000b5e:	6406                	ld	s0,64(sp)
    80000b60:	74e2                	ld	s1,56(sp)
    80000b62:	7942                	ld	s2,48(sp)
    80000b64:	79a2                	ld	s3,40(sp)
    80000b66:	7a02                	ld	s4,32(sp)
    80000b68:	6ae2                	ld	s5,24(sp)
    80000b6a:	6b42                	ld	s6,16(sp)
    80000b6c:	6ba2                	ld	s7,8(sp)
    80000b6e:	6161                	addi	sp,sp,80
    80000b70:	8082                	ret
    80000b72:	01095783          	lhu	a5,16(s2)
    80000b76:	00fb7b63          	bgeu	s6,a5,80000b8c <_fwalk_reent+0x66>
    80000b7a:	01291783          	lh	a5,18(s2)
    80000b7e:	01778763          	beq	a5,s7,80000b8c <_fwalk_reent+0x66>
    80000b82:	85ca                	mv	a1,s2
    80000b84:	854e                	mv	a0,s3
    80000b86:	9a02                	jalr	s4
    80000b88:	8c49                	or	s0,s0,a0
    80000b8a:	2401                	sext.w	s0,s0
    80000b8c:	0b090913          	addi	s2,s2,176
    80000b90:	b7c1                	j	80000b50 <_fwalk_reent+0x2a>

0000000080000b92 <memset>:
    80000b92:	832a                	mv	t1,a0
    80000b94:	c611                	beqz	a2,80000ba0 <memset+0xe>
    80000b96:	00b30023          	sb	a1,0(t1)
    80000b9a:	167d                	addi	a2,a2,-1
    80000b9c:	0305                	addi	t1,t1,1
    80000b9e:	fe65                	bnez	a2,80000b96 <memset+0x4>
    80000ba0:	8082                	ret

0000000080000ba2 <_malloc_r>:
    80000ba2:	00758793          	addi	a5,a1,7
    80000ba6:	7179                	addi	sp,sp,-48
    80000ba8:	9be1                	andi	a5,a5,-8
    80000baa:	ec26                	sd	s1,24(sp)
    80000bac:	e84a                	sd	s2,16(sp)
    80000bae:	f406                	sd	ra,40(sp)
    80000bb0:	f022                	sd	s0,32(sp)
    80000bb2:	e44e                	sd	s3,8(sp)
    80000bb4:	07a1                	addi	a5,a5,8
    80000bb6:	4741                	li	a4,16
    80000bb8:	84aa                	mv	s1,a0
    80000bba:	4941                	li	s2,16
    80000bbc:	00e7e363          	bltu	a5,a4,80000bc2 <_malloc_r+0x20>
    80000bc0:	893e                	mv	s2,a5
    80000bc2:	80000737          	lui	a4,0x80000
    80000bc6:	fff74713          	not	a4,a4
    80000bca:	00f76463          	bltu	a4,a5,80000bd2 <_malloc_r+0x30>
    80000bce:	00b97c63          	bgeu	s2,a1,80000be6 <_malloc_r+0x44>
    80000bd2:	47b1                	li	a5,12
    80000bd4:	c09c                	sw	a5,0(s1)
    80000bd6:	4501                	li	a0,0
    80000bd8:	70a2                	ld	ra,40(sp)
    80000bda:	7402                	ld	s0,32(sp)
    80000bdc:	64e2                	ld	s1,24(sp)
    80000bde:	6942                	ld	s2,16(sp)
    80000be0:	69a2                	ld	s3,8(sp)
    80000be2:	6145                	addi	sp,sp,48
    80000be4:	8082                	ret
    80000be6:	8526                	mv	a0,s1
    80000be8:	110010ef          	jal	ra,80001cf8 <__malloc_lock>
    80000bec:	84018793          	addi	a5,gp,-1984 # 80002740 <__malloc_free_list>
    80000bf0:	6398                	ld	a4,0(a5)
    80000bf2:	86be                	mv	a3,a5
    80000bf4:	843a                	mv	s0,a4
    80000bf6:	e41d                	bnez	s0,80000c24 <_malloc_r+0x82>
    80000bf8:	84818413          	addi	s0,gp,-1976 # 80002748 <__malloc_sbrk_start>
    80000bfc:	601c                	ld	a5,0(s0)
    80000bfe:	e791                	bnez	a5,80000c0a <_malloc_r+0x68>
    80000c00:	4581                	li	a1,0
    80000c02:	8526                	mv	a0,s1
    80000c04:	79e000ef          	jal	ra,800013a2 <_sbrk_r>
    80000c08:	e008                	sd	a0,0(s0)
    80000c0a:	85ca                	mv	a1,s2
    80000c0c:	8526                	mv	a0,s1
    80000c0e:	794000ef          	jal	ra,800013a2 <_sbrk_r>
    80000c12:	59fd                	li	s3,-1
    80000c14:	05351e63          	bne	a0,s3,80000c70 <_malloc_r+0xce>
    80000c18:	47b1                	li	a5,12
    80000c1a:	c09c                	sw	a5,0(s1)
    80000c1c:	8526                	mv	a0,s1
    80000c1e:	0dc010ef          	jal	ra,80001cfa <__malloc_unlock>
    80000c22:	bf55                	j	80000bd6 <_malloc_r+0x34>
    80000c24:	601c                	ld	a5,0(s0)
    80000c26:	412787bb          	subw	a5,a5,s2
    80000c2a:	0407c063          	bltz	a5,80000c6a <_malloc_r+0xc8>
    80000c2e:	463d                	li	a2,15
    80000c30:	00f65763          	bge	a2,a5,80000c3e <_malloc_r+0x9c>
    80000c34:	e01c                	sd	a5,0(s0)
    80000c36:	943e                	add	s0,s0,a5
    80000c38:	01243023          	sd	s2,0(s0)
    80000c3c:	a029                	j	80000c46 <_malloc_r+0xa4>
    80000c3e:	641c                	ld	a5,8(s0)
    80000c40:	02871363          	bne	a4,s0,80000c66 <_malloc_r+0xc4>
    80000c44:	e29c                	sd	a5,0(a3)
    80000c46:	8526                	mv	a0,s1
    80000c48:	0b2010ef          	jal	ra,80001cfa <__malloc_unlock>
    80000c4c:	00f40513          	addi	a0,s0,15
    80000c50:	00840793          	addi	a5,s0,8
    80000c54:	9961                	andi	a0,a0,-8
    80000c56:	40f507bb          	subw	a5,a0,a5
    80000c5a:	dfbd                	beqz	a5,80000bd8 <_malloc_r+0x36>
    80000c5c:	943e                	add	s0,s0,a5
    80000c5e:	40f007bb          	negw	a5,a5
    80000c62:	e01c                	sd	a5,0(s0)
    80000c64:	bf95                	j	80000bd8 <_malloc_r+0x36>
    80000c66:	e71c                	sd	a5,8(a4)
    80000c68:	bff9                	j	80000c46 <_malloc_r+0xa4>
    80000c6a:	8722                	mv	a4,s0
    80000c6c:	6400                	ld	s0,8(s0)
    80000c6e:	b761                	j	80000bf6 <_malloc_r+0x54>
    80000c70:	00750413          	addi	s0,a0,7
    80000c74:	9861                	andi	s0,s0,-8
    80000c76:	fc8501e3          	beq	a0,s0,80000c38 <_malloc_r+0x96>
    80000c7a:	40a405b3          	sub	a1,s0,a0
    80000c7e:	8526                	mv	a0,s1
    80000c80:	722000ef          	jal	ra,800013a2 <_sbrk_r>
    80000c84:	fb351ae3          	bne	a0,s3,80000c38 <_malloc_r+0x96>
    80000c88:	bf41                	j	80000c18 <_malloc_r+0x76>

0000000080000c8a <__sfputc_r>:
    80000c8a:	465c                	lw	a5,12(a2)
    80000c8c:	37fd                	addiw	a5,a5,-1
    80000c8e:	c65c                	sw	a5,12(a2)
    80000c90:	02079693          	slli	a3,a5,0x20
    80000c94:	0007871b          	sext.w	a4,a5
    80000c98:	0006da63          	bgez	a3,80000cac <__sfputc_r+0x22>
    80000c9c:	561c                	lw	a5,40(a2)
    80000c9e:	00f74563          	blt	a4,a5,80000ca8 <__sfputc_r+0x1e>
    80000ca2:	47a9                	li	a5,10
    80000ca4:	00f59463          	bne	a1,a5,80000cac <__sfputc_r+0x22>
    80000ca8:	7e60006f          	j	8000148e <__swbuf_r>
    80000cac:	621c                	ld	a5,0(a2)
    80000cae:	852e                	mv	a0,a1
    80000cb0:	00178713          	addi	a4,a5,1 # ffffffffffff0001 <ali3_data.1515+0xffffffff7ff9fe01>
    80000cb4:	e218                	sd	a4,0(a2)
    80000cb6:	00b78023          	sb	a1,0(a5)
    80000cba:	8082                	ret

0000000080000cbc <__sfputs_r>:
    80000cbc:	7179                	addi	sp,sp,-48
    80000cbe:	f022                	sd	s0,32(sp)
    80000cc0:	ec26                	sd	s1,24(sp)
    80000cc2:	e84a                	sd	s2,16(sp)
    80000cc4:	e44e                	sd	s3,8(sp)
    80000cc6:	e052                	sd	s4,0(sp)
    80000cc8:	f406                	sd	ra,40(sp)
    80000cca:	892a                	mv	s2,a0
    80000ccc:	89ae                	mv	s3,a1
    80000cce:	8432                	mv	s0,a2
    80000cd0:	00d604b3          	add	s1,a2,a3
    80000cd4:	5a7d                	li	s4,-1
    80000cd6:	00941463          	bne	s0,s1,80000cde <__sfputs_r+0x22>
    80000cda:	4501                	li	a0,0
    80000cdc:	a811                	j	80000cf0 <__sfputs_r+0x34>
    80000cde:	00044583          	lbu	a1,0(s0)
    80000ce2:	864e                	mv	a2,s3
    80000ce4:	854a                	mv	a0,s2
    80000ce6:	fa5ff0ef          	jal	ra,80000c8a <__sfputc_r>
    80000cea:	0405                	addi	s0,s0,1
    80000cec:	ff4515e3          	bne	a0,s4,80000cd6 <__sfputs_r+0x1a>
    80000cf0:	70a2                	ld	ra,40(sp)
    80000cf2:	7402                	ld	s0,32(sp)
    80000cf4:	64e2                	ld	s1,24(sp)
    80000cf6:	6942                	ld	s2,16(sp)
    80000cf8:	69a2                	ld	s3,8(sp)
    80000cfa:	6a02                	ld	s4,0(sp)
    80000cfc:	6145                	addi	sp,sp,48
    80000cfe:	8082                	ret

0000000080000d00 <__sprint_r>:
    80000d00:	6a1c                	ld	a5,16(a2)
    80000d02:	1141                	addi	sp,sp,-16
    80000d04:	e022                	sd	s0,0(sp)
    80000d06:	e406                	sd	ra,8(sp)
    80000d08:	8432                	mv	s0,a2
    80000d0a:	eb81                	bnez	a5,80000d1a <__sprint_r+0x1a>
    80000d0c:	00062423          	sw	zero,8(a2) # 10040008 <__stack_size+0x10038008>
    80000d10:	4501                	li	a0,0
    80000d12:	60a2                	ld	ra,8(sp)
    80000d14:	6402                	ld	s0,0(sp)
    80000d16:	0141                	addi	sp,sp,16
    80000d18:	8082                	ret
    80000d1a:	373000ef          	jal	ra,8000188c <__sfvwrite_r>
    80000d1e:	00043823          	sd	zero,16(s0)
    80000d22:	00042423          	sw	zero,8(s0)
    80000d26:	b7f5                	j	80000d12 <__sprint_r+0x12>

0000000080000d28 <_vfiprintf_r>:
    80000d28:	7155                	addi	sp,sp,-208
    80000d2a:	e1a2                	sd	s0,192(sp)
    80000d2c:	fd26                	sd	s1,184(sp)
    80000d2e:	f94a                	sd	s2,176(sp)
    80000d30:	f54e                	sd	s3,168(sp)
    80000d32:	f152                	sd	s4,160(sp)
    80000d34:	e586                	sd	ra,200(sp)
    80000d36:	ed56                	sd	s5,152(sp)
    80000d38:	e95a                	sd	s6,144(sp)
    80000d3a:	e55e                	sd	s7,136(sp)
    80000d3c:	e162                	sd	s8,128(sp)
    80000d3e:	fce6                	sd	s9,120(sp)
    80000d40:	f8ea                	sd	s10,112(sp)
    80000d42:	89aa                	mv	s3,a0
    80000d44:	84ae                	mv	s1,a1
    80000d46:	8932                	mv	s2,a2
    80000d48:	8436                	mv	s0,a3
    80000d4a:	4a01                	li	s4,0
    80000d4c:	c509                	beqz	a0,80000d56 <_vfiprintf_r+0x2e>
    80000d4e:	591c                	lw	a5,48(a0)
    80000d50:	e399                	bnez	a5,80000d56 <_vfiprintf_r+0x2e>
    80000d52:	c31ff0ef          	jal	ra,80000982 <__sinit>
    80000d56:	00001797          	auipc	a5,0x1
    80000d5a:	75278793          	addi	a5,a5,1874 # 800024a8 <__sf_fake_stdin>
    80000d5e:	0cf49e63          	bne	s1,a5,80000e3a <_vfiprintf_r+0x112>
    80000d62:	0089b483          	ld	s1,8(s3)
    80000d66:	0104d783          	lhu	a5,16(s1)
    80000d6a:	8ba1                	andi	a5,a5,8
    80000d6c:	cbed                	beqz	a5,80000e5e <_vfiprintf_r+0x136>
    80000d6e:	6c9c                	ld	a5,24(s1)
    80000d70:	c7fd                	beqz	a5,80000e5e <_vfiprintf_r+0x136>
    80000d72:	02000793          	li	a5,32
    80000d76:	02f104a3          	sb	a5,41(sp)
    80000d7a:	5afd                	li	s5,-1
    80000d7c:	03000793          	li	a5,48
    80000d80:	d202                	sw	zero,36(sp)
    80000d82:	02f10523          	sb	a5,42(sp)
    80000d86:	e422                	sd	s0,8(sp)
    80000d88:	02500b93          	li	s7,37
    80000d8c:	020a9c13          	slli	s8,s5,0x20
    80000d90:	00001b17          	auipc	s6,0x1
    80000d94:	788b0b13          	addi	s6,s6,1928 # 80002518 <__sf_fake_stdout+0x38>
    80000d98:	4c85                	li	s9,1
    80000d9a:	844a                	mv	s0,s2
    80000d9c:	00044783          	lbu	a5,0(s0)
    80000da0:	c399                	beqz	a5,80000da6 <_vfiprintf_r+0x7e>
    80000da2:	0f779263          	bne	a5,s7,80000e86 <_vfiprintf_r+0x15e>
    80000da6:	41240d3b          	subw	s10,s0,s2
    80000daa:	000d0e63          	beqz	s10,80000dc6 <_vfiprintf_r+0x9e>
    80000dae:	86ea                	mv	a3,s10
    80000db0:	864a                	mv	a2,s2
    80000db2:	85a6                	mv	a1,s1
    80000db4:	854e                	mv	a0,s3
    80000db6:	f07ff0ef          	jal	ra,80000cbc <__sfputs_r>
    80000dba:	1f550d63          	beq	a0,s5,80000fb4 <_vfiprintf_r+0x28c>
    80000dbe:	5792                	lw	a5,36(sp)
    80000dc0:	01a787bb          	addw	a5,a5,s10
    80000dc4:	d23e                	sw	a5,36(sp)
    80000dc6:	00044783          	lbu	a5,0(s0)
    80000dca:	1e078563          	beqz	a5,80000fb4 <_vfiprintf_r+0x28c>
    80000dce:	00140913          	addi	s2,s0,1
    80000dd2:	e862                	sd	s8,16(sp)
    80000dd4:	ec02                	sd	zero,24(sp)
    80000dd6:	040109a3          	sb	zero,83(sp)
    80000dda:	d482                	sw	zero,104(sp)
    80000ddc:	00094583          	lbu	a1,0(s2)
    80000de0:	4615                	li	a2,5
    80000de2:	855a                	mv	a0,s6
    80000de4:	6bf000ef          	jal	ra,80001ca2 <memchr>
    80000de8:	00190413          	addi	s0,s2,1
    80000dec:	ed59                	bnez	a0,80000e8a <_vfiprintf_r+0x162>
    80000dee:	47c2                	lw	a5,16(sp)
    80000df0:	0107f713          	andi	a4,a5,16
    80000df4:	c709                	beqz	a4,80000dfe <_vfiprintf_r+0xd6>
    80000df6:	02000713          	li	a4,32
    80000dfa:	04e109a3          	sb	a4,83(sp)
    80000dfe:	0087f713          	andi	a4,a5,8
    80000e02:	c709                	beqz	a4,80000e0c <_vfiprintf_r+0xe4>
    80000e04:	02b00713          	li	a4,43
    80000e08:	04e109a3          	sb	a4,83(sp)
    80000e0c:	00094683          	lbu	a3,0(s2)
    80000e10:	02a00713          	li	a4,42
    80000e14:	08e68463          	beq	a3,a4,80000e9c <_vfiprintf_r+0x174>
    80000e18:	47f2                	lw	a5,28(sp)
    80000e1a:	844a                	mv	s0,s2
    80000e1c:	4681                	li	a3,0
    80000e1e:	4625                	li	a2,9
    80000e20:	4829                	li	a6,10
    80000e22:	00044703          	lbu	a4,0(s0)
    80000e26:	00140513          	addi	a0,s0,1
    80000e2a:	fd07059b          	addiw	a1,a4,-48
    80000e2e:	872e                	mv	a4,a1
    80000e30:	0ab67b63          	bgeu	a2,a1,80000ee6 <_vfiprintf_r+0x1be>
    80000e34:	cea5                	beqz	a3,80000eac <_vfiprintf_r+0x184>
    80000e36:	ce3e                	sw	a5,28(sp)
    80000e38:	a895                	j	80000eac <_vfiprintf_r+0x184>
    80000e3a:	00001797          	auipc	a5,0x1
    80000e3e:	6a678793          	addi	a5,a5,1702 # 800024e0 <__sf_fake_stdout>
    80000e42:	00f49563          	bne	s1,a5,80000e4c <_vfiprintf_r+0x124>
    80000e46:	0109b483          	ld	s1,16(s3)
    80000e4a:	bf31                	j	80000d66 <_vfiprintf_r+0x3e>
    80000e4c:	00001797          	auipc	a5,0x1
    80000e50:	62478793          	addi	a5,a5,1572 # 80002470 <__sf_fake_stderr>
    80000e54:	f0f499e3          	bne	s1,a5,80000d66 <_vfiprintf_r+0x3e>
    80000e58:	0189b483          	ld	s1,24(s3)
    80000e5c:	b729                	j	80000d66 <_vfiprintf_r+0x3e>
    80000e5e:	85a6                	mv	a1,s1
    80000e60:	854e                	mv	a0,s3
    80000e62:	72c000ef          	jal	ra,8000158e <__swsetup_r>
    80000e66:	d511                	beqz	a0,80000d72 <_vfiprintf_r+0x4a>
    80000e68:	557d                	li	a0,-1
    80000e6a:	60ae                	ld	ra,200(sp)
    80000e6c:	640e                	ld	s0,192(sp)
    80000e6e:	74ea                	ld	s1,184(sp)
    80000e70:	794a                	ld	s2,176(sp)
    80000e72:	79aa                	ld	s3,168(sp)
    80000e74:	7a0a                	ld	s4,160(sp)
    80000e76:	6aea                	ld	s5,152(sp)
    80000e78:	6b4a                	ld	s6,144(sp)
    80000e7a:	6baa                	ld	s7,136(sp)
    80000e7c:	6c0a                	ld	s8,128(sp)
    80000e7e:	7ce6                	ld	s9,120(sp)
    80000e80:	7d46                	ld	s10,112(sp)
    80000e82:	6169                	addi	sp,sp,208
    80000e84:	8082                	ret
    80000e86:	0405                	addi	s0,s0,1
    80000e88:	bf11                	j	80000d9c <_vfiprintf_r+0x74>
    80000e8a:	47c2                	lw	a5,16(sp)
    80000e8c:	41650533          	sub	a0,a0,s6
    80000e90:	00ac953b          	sllw	a0,s9,a0
    80000e94:	8d5d                	or	a0,a0,a5
    80000e96:	c82a                	sw	a0,16(sp)
    80000e98:	8922                	mv	s2,s0
    80000e9a:	b789                	j	80000ddc <_vfiprintf_r+0xb4>
    80000e9c:	6722                	ld	a4,8(sp)
    80000e9e:	00870693          	addi	a3,a4,8 # ffffffff80000008 <ali3_data.1515+0xfffffffefffafe08>
    80000ea2:	4318                	lw	a4,0(a4)
    80000ea4:	e436                	sd	a3,8(sp)
    80000ea6:	02074963          	bltz	a4,80000ed8 <_vfiprintf_r+0x1b0>
    80000eaa:	ce3a                	sw	a4,28(sp)
    80000eac:	00044703          	lbu	a4,0(s0)
    80000eb0:	02e00793          	li	a5,46
    80000eb4:	04f71063          	bne	a4,a5,80000ef4 <_vfiprintf_r+0x1cc>
    80000eb8:	00144703          	lbu	a4,1(s0)
    80000ebc:	02a00793          	li	a5,42
    80000ec0:	0af71263          	bne	a4,a5,80000f64 <_vfiprintf_r+0x23c>
    80000ec4:	67a2                	ld	a5,8(sp)
    80000ec6:	0409                	addi	s0,s0,2
    80000ec8:	00878713          	addi	a4,a5,8
    80000ecc:	439c                	lw	a5,0(a5)
    80000ece:	e43a                	sd	a4,8(sp)
    80000ed0:	0207c163          	bltz	a5,80000ef2 <_vfiprintf_r+0x1ca>
    80000ed4:	ca3e                	sw	a5,20(sp)
    80000ed6:	a839                	j	80000ef4 <_vfiprintf_r+0x1cc>
    80000ed8:	40e0073b          	negw	a4,a4
    80000edc:	0027e793          	ori	a5,a5,2
    80000ee0:	ce3a                	sw	a4,28(sp)
    80000ee2:	c83e                	sw	a5,16(sp)
    80000ee4:	b7e1                	j	80000eac <_vfiprintf_r+0x184>
    80000ee6:	02f807bb          	mulw	a5,a6,a5
    80000eea:	842a                	mv	s0,a0
    80000eec:	4685                	li	a3,1
    80000eee:	9fb9                	addw	a5,a5,a4
    80000ef0:	bf0d                	j	80000e22 <_vfiprintf_r+0xfa>
    80000ef2:	ca56                	sw	s5,20(sp)
    80000ef4:	00044583          	lbu	a1,0(s0)
    80000ef8:	460d                	li	a2,3
    80000efa:	00001517          	auipc	a0,0x1
    80000efe:	62650513          	addi	a0,a0,1574 # 80002520 <__sf_fake_stdout+0x40>
    80000f02:	5a1000ef          	jal	ra,80001ca2 <memchr>
    80000f06:	cd11                	beqz	a0,80000f22 <_vfiprintf_r+0x1fa>
    80000f08:	00001797          	auipc	a5,0x1
    80000f0c:	61878793          	addi	a5,a5,1560 # 80002520 <__sf_fake_stdout+0x40>
    80000f10:	8d1d                	sub	a0,a0,a5
    80000f12:	04000793          	li	a5,64
    80000f16:	00a7953b          	sllw	a0,a5,a0
    80000f1a:	47c2                	lw	a5,16(sp)
    80000f1c:	0405                	addi	s0,s0,1
    80000f1e:	8d5d                	or	a0,a0,a5
    80000f20:	c82a                	sw	a0,16(sp)
    80000f22:	00044583          	lbu	a1,0(s0)
    80000f26:	4619                	li	a2,6
    80000f28:	00001517          	auipc	a0,0x1
    80000f2c:	60050513          	addi	a0,a0,1536 # 80002528 <__sf_fake_stdout+0x48>
    80000f30:	00140913          	addi	s2,s0,1
    80000f34:	02b10423          	sb	a1,40(sp)
    80000f38:	56b000ef          	jal	ra,80001ca2 <memchr>
    80000f3c:	c541                	beqz	a0,80000fc4 <_vfiprintf_r+0x29c>
    80000f3e:	000007b7          	lui	a5,0x0
    80000f42:	00078793          	mv	a5,a5
    80000f46:	eba1                	bnez	a5,80000f96 <_vfiprintf_r+0x26e>
    80000f48:	4742                	lw	a4,16(sp)
    80000f4a:	67a2                	ld	a5,8(sp)
    80000f4c:	10077713          	andi	a4,a4,256
    80000f50:	c329                	beqz	a4,80000f92 <_vfiprintf_r+0x26a>
    80000f52:	07bd                	addi	a5,a5,15
    80000f54:	9bc1                	andi	a5,a5,-16
    80000f56:	07c1                	addi	a5,a5,16
    80000f58:	e43e                	sd	a5,8(sp)
    80000f5a:	5792                	lw	a5,36(sp)
    80000f5c:	014787bb          	addw	a5,a5,s4
    80000f60:	d23e                	sw	a5,36(sp)
    80000f62:	bd25                	j	80000d9a <_vfiprintf_r+0x72>
    80000f64:	0405                	addi	s0,s0,1
    80000f66:	ca02                	sw	zero,20(sp)
    80000f68:	4681                	li	a3,0
    80000f6a:	4781                	li	a5,0
    80000f6c:	4625                	li	a2,9
    80000f6e:	4829                	li	a6,10
    80000f70:	00044703          	lbu	a4,0(s0)
    80000f74:	00140513          	addi	a0,s0,1
    80000f78:	fd07059b          	addiw	a1,a4,-48
    80000f7c:	872e                	mv	a4,a1
    80000f7e:	00b67463          	bgeu	a2,a1,80000f86 <_vfiprintf_r+0x25e>
    80000f82:	faa9                	bnez	a3,80000ed4 <_vfiprintf_r+0x1ac>
    80000f84:	bf85                	j	80000ef4 <_vfiprintf_r+0x1cc>
    80000f86:	02f807bb          	mulw	a5,a6,a5
    80000f8a:	842a                	mv	s0,a0
    80000f8c:	4685                	li	a3,1
    80000f8e:	9fb9                	addw	a5,a5,a4
    80000f90:	b7c5                	j	80000f70 <_vfiprintf_r+0x248>
    80000f92:	07a1                	addi	a5,a5,8
    80000f94:	b7d1                	j	80000f58 <_vfiprintf_r+0x230>
    80000f96:	0038                	addi	a4,sp,8
    80000f98:	00000697          	auipc	a3,0x0
    80000f9c:	d2468693          	addi	a3,a3,-732 # 80000cbc <__sfputs_r>
    80000fa0:	8626                	mv	a2,s1
    80000fa2:	080c                	addi	a1,sp,16
    80000fa4:	854e                	mv	a0,s3
    80000fa6:	00000097          	auipc	ra,0x0
    80000faa:	000000e7          	jalr	zero # 0 <__boot_hart>
    80000fae:	8a2a                	mv	s4,a0
    80000fb0:	fb5515e3          	bne	a0,s5,80000f5a <_vfiprintf_r+0x232>
    80000fb4:	0104d783          	lhu	a5,16(s1)
    80000fb8:	0407f793          	andi	a5,a5,64
    80000fbc:	ea0796e3          	bnez	a5,80000e68 <_vfiprintf_r+0x140>
    80000fc0:	5512                	lw	a0,36(sp)
    80000fc2:	b565                	j	80000e6a <_vfiprintf_r+0x142>
    80000fc4:	0038                	addi	a4,sp,8
    80000fc6:	00000697          	auipc	a3,0x0
    80000fca:	cf668693          	addi	a3,a3,-778 # 80000cbc <__sfputs_r>
    80000fce:	8626                	mv	a2,s1
    80000fd0:	080c                	addi	a1,sp,16
    80000fd2:	854e                	mv	a0,s3
    80000fd4:	13c000ef          	jal	ra,80001110 <_printf_i>
    80000fd8:	bfd9                	j	80000fae <_vfiprintf_r+0x286>

0000000080000fda <vfiprintf>:
    80000fda:	86b2                	mv	a3,a2
    80000fdc:	862e                	mv	a2,a1
    80000fde:	85aa                	mv	a1,a0
    80000fe0:	00001517          	auipc	a0,0x1
    80000fe4:	72053503          	ld	a0,1824(a0) # 80002700 <_impure_ptr>
    80000fe8:	b381                	j	80000d28 <_vfiprintf_r>

0000000080000fea <_printf_common>:
    80000fea:	715d                	addi	sp,sp,-80
    80000fec:	499c                	lw	a5,16(a1)
    80000fee:	f052                	sd	s4,32(sp)
    80000ff0:	8a3a                	mv	s4,a4
    80000ff2:	4598                	lw	a4,8(a1)
    80000ff4:	e0a2                	sd	s0,64(sp)
    80000ff6:	f84a                	sd	s2,48(sp)
    80000ff8:	f44e                	sd	s3,40(sp)
    80000ffa:	ec56                	sd	s5,24(sp)
    80000ffc:	8932                	mv	s2,a2
    80000ffe:	8ab6                	mv	s5,a3
    80001000:	e486                	sd	ra,72(sp)
    80001002:	fc26                	sd	s1,56(sp)
    80001004:	e85a                	sd	s6,16(sp)
    80001006:	e45e                	sd	s7,8(sp)
    80001008:	0007861b          	sext.w	a2,a5
    8000100c:	0007069b          	sext.w	a3,a4
    80001010:	89aa                	mv	s3,a0
    80001012:	842e                	mv	s0,a1
    80001014:	00d65363          	bge	a2,a3,8000101a <_printf_common+0x30>
    80001018:	87ba                	mv	a5,a4
    8000101a:	00f92023          	sw	a5,0(s2)
    8000101e:	04344703          	lbu	a4,67(s0)
    80001022:	c701                	beqz	a4,8000102a <_printf_common+0x40>
    80001024:	2785                	addiw	a5,a5,1
    80001026:	00f92023          	sw	a5,0(s2)
    8000102a:	401c                	lw	a5,0(s0)
    8000102c:	0207f793          	andi	a5,a5,32
    80001030:	c791                	beqz	a5,8000103c <_printf_common+0x52>
    80001032:	00092783          	lw	a5,0(s2)
    80001036:	2789                	addiw	a5,a5,2
    80001038:	00f92023          	sw	a5,0(s2)
    8000103c:	4004                	lw	s1,0(s0)
    8000103e:	8899                	andi	s1,s1,6
    80001040:	e891                	bnez	s1,80001054 <_printf_common+0x6a>
    80001042:	01940b13          	addi	s6,s0,25
    80001046:	5bfd                	li	s7,-1
    80001048:	445c                	lw	a5,12(s0)
    8000104a:	00092703          	lw	a4,0(s2)
    8000104e:	9f99                	subw	a5,a5,a4
    80001050:	06f4c163          	blt	s1,a5,800010b2 <_printf_common+0xc8>
    80001054:	04344783          	lbu	a5,67(s0)
    80001058:	00f03733          	snez	a4,a5
    8000105c:	00f036b3          	snez	a3,a5
    80001060:	401c                	lw	a5,0(s0)
    80001062:	0207f793          	andi	a5,a5,32
    80001066:	ebbd                	bnez	a5,800010dc <_printf_common+0xf2>
    80001068:	04340613          	addi	a2,s0,67
    8000106c:	85d6                	mv	a1,s5
    8000106e:	854e                	mv	a0,s3
    80001070:	9a02                	jalr	s4
    80001072:	57fd                	li	a5,-1
    80001074:	04f50663          	beq	a0,a5,800010c0 <_printf_common+0xd6>
    80001078:	401c                	lw	a5,0(s0)
    8000107a:	4611                	li	a2,4
    8000107c:	4454                	lw	a3,12(s0)
    8000107e:	8b99                	andi	a5,a5,6
    80001080:	00092703          	lw	a4,0(s2)
    80001084:	4481                	li	s1,0
    80001086:	00c79963          	bne	a5,a2,80001098 <_printf_common+0xae>
    8000108a:	40e684bb          	subw	s1,a3,a4
    8000108e:	02049793          	slli	a5,s1,0x20
    80001092:	0007d363          	bgez	a5,80001098 <_printf_common+0xae>
    80001096:	4481                	li	s1,0
    80001098:	441c                	lw	a5,8(s0)
    8000109a:	4818                	lw	a4,16(s0)
    8000109c:	00f75463          	bge	a4,a5,800010a4 <_printf_common+0xba>
    800010a0:	9f99                	subw	a5,a5,a4
    800010a2:	9cbd                	addw	s1,s1,a5
    800010a4:	4901                	li	s2,0
    800010a6:	0469                	addi	s0,s0,26
    800010a8:	5b7d                	li	s6,-1
    800010aa:	05249a63          	bne	s1,s2,800010fe <_printf_common+0x114>
    800010ae:	4501                	li	a0,0
    800010b0:	a809                	j	800010c2 <_printf_common+0xd8>
    800010b2:	4685                	li	a3,1
    800010b4:	865a                	mv	a2,s6
    800010b6:	85d6                	mv	a1,s5
    800010b8:	854e                	mv	a0,s3
    800010ba:	9a02                	jalr	s4
    800010bc:	01751e63          	bne	a0,s7,800010d8 <_printf_common+0xee>
    800010c0:	557d                	li	a0,-1
    800010c2:	60a6                	ld	ra,72(sp)
    800010c4:	6406                	ld	s0,64(sp)
    800010c6:	74e2                	ld	s1,56(sp)
    800010c8:	7942                	ld	s2,48(sp)
    800010ca:	79a2                	ld	s3,40(sp)
    800010cc:	7a02                	ld	s4,32(sp)
    800010ce:	6ae2                	ld	s5,24(sp)
    800010d0:	6b42                	ld	s6,16(sp)
    800010d2:	6ba2                	ld	s7,8(sp)
    800010d4:	6161                	addi	sp,sp,80
    800010d6:	8082                	ret
    800010d8:	2485                	addiw	s1,s1,1
    800010da:	b7bd                	j	80001048 <_printf_common+0x5e>
    800010dc:	00d407b3          	add	a5,s0,a3
    800010e0:	03000693          	li	a3,48
    800010e4:	04d781a3          	sb	a3,67(a5) # 43 <__stack_align+0x33>
    800010e8:	0017061b          	addiw	a2,a4,1
    800010ec:	0027069b          	addiw	a3,a4,2
    800010f0:	04544703          	lbu	a4,69(s0)
    800010f4:	00c407b3          	add	a5,s0,a2
    800010f8:	04e781a3          	sb	a4,67(a5)
    800010fc:	b7b5                	j	80001068 <_printf_common+0x7e>
    800010fe:	4685                	li	a3,1
    80001100:	8622                	mv	a2,s0
    80001102:	85d6                	mv	a1,s5
    80001104:	854e                	mv	a0,s3
    80001106:	9a02                	jalr	s4
    80001108:	fb650ce3          	beq	a0,s6,800010c0 <_printf_common+0xd6>
    8000110c:	2905                	addiw	s2,s2,1
    8000110e:	bf71                	j	800010aa <_printf_common+0xc0>

0000000080001110 <_printf_i>:
    80001110:	715d                	addi	sp,sp,-80
    80001112:	e0a2                	sd	s0,64(sp)
    80001114:	f84a                	sd	s2,48(sp)
    80001116:	f44e                	sd	s3,40(sp)
    80001118:	f052                	sd	s4,32(sp)
    8000111a:	e486                	sd	ra,72(sp)
    8000111c:	fc26                	sd	s1,56(sp)
    8000111e:	ec56                	sd	s5,24(sp)
    80001120:	e85a                	sd	s6,16(sp)
    80001122:	842e                	mv	s0,a1
    80001124:	8a36                	mv	s4,a3
    80001126:	04358693          	addi	a3,a1,67
    8000112a:	0185c583          	lbu	a1,24(a1)
    8000112e:	07800793          	li	a5,120
    80001132:	892a                	mv	s2,a0
    80001134:	89b2                	mv	s3,a2
    80001136:	00b7ec63          	bltu	a5,a1,8000114e <_printf_i+0x3e>
    8000113a:	06200793          	li	a5,98
    8000113e:	00b7ed63          	bltu	a5,a1,80001158 <_printf_i+0x48>
    80001142:	1c058863          	beqz	a1,80001312 <_printf_i+0x202>
    80001146:	05800793          	li	a5,88
    8000114a:	14f58063          	beq	a1,a5,8000128a <_printf_i+0x17a>
    8000114e:	04240493          	addi	s1,s0,66
    80001152:	04b40123          	sb	a1,66(s0)
    80001156:	a815                	j	8000118a <_printf_i+0x7a>
    80001158:	f9d5879b          	addiw	a5,a1,-99
    8000115c:	0ff7f793          	andi	a5,a5,255
    80001160:	4655                	li	a2,21
    80001162:	fef666e3          	bltu	a2,a5,8000114e <_printf_i+0x3e>
    80001166:	00001617          	auipc	a2,0x1
    8000116a:	3fa60613          	addi	a2,a2,1018 # 80002560 <__sf_fake_stdout+0x80>
    8000116e:	078a                	slli	a5,a5,0x2
    80001170:	97b2                	add	a5,a5,a2
    80001172:	439c                	lw	a5,0(a5)
    80001174:	97b2                	add	a5,a5,a2
    80001176:	8782                	jr	a5
    80001178:	631c                	ld	a5,0(a4)
    8000117a:	04240493          	addi	s1,s0,66
    8000117e:	00878693          	addi	a3,a5,8
    80001182:	439c                	lw	a5,0(a5)
    80001184:	e314                	sd	a3,0(a4)
    80001186:	04f40123          	sb	a5,66(s0)
    8000118a:	4785                	li	a5,1
    8000118c:	aa7d                	j	8000134a <_printf_i+0x23a>
    8000118e:	4010                	lw	a2,0(s0)
    80001190:	631c                	ld	a5,0(a4)
    80001192:	08067513          	andi	a0,a2,128
    80001196:	00878593          	addi	a1,a5,8
    8000119a:	c10d                	beqz	a0,800011bc <_printf_i+0xac>
    8000119c:	639c                	ld	a5,0(a5)
    8000119e:	e30c                	sd	a1,0(a4)
    800011a0:	0007d863          	bgez	a5,800011b0 <_printf_i+0xa0>
    800011a4:	02d00713          	li	a4,45
    800011a8:	40f007b3          	neg	a5,a5
    800011ac:	04e401a3          	sb	a4,67(s0)
    800011b0:	00001617          	auipc	a2,0x1
    800011b4:	38060613          	addi	a2,a2,896 # 80002530 <__sf_fake_stdout+0x50>
    800011b8:	4729                	li	a4,10
    800011ba:	a83d                	j	800011f8 <_printf_i+0xe8>
    800011bc:	04067613          	andi	a2,a2,64
    800011c0:	e30c                	sd	a1,0(a4)
    800011c2:	c601                	beqz	a2,800011ca <_printf_i+0xba>
    800011c4:	00079783          	lh	a5,0(a5)
    800011c8:	bfe1                	j	800011a0 <_printf_i+0x90>
    800011ca:	439c                	lw	a5,0(a5)
    800011cc:	bfd1                	j	800011a0 <_printf_i+0x90>
    800011ce:	4010                	lw	a2,0(s0)
    800011d0:	631c                	ld	a5,0(a4)
    800011d2:	08067813          	andi	a6,a2,128
    800011d6:	00878513          	addi	a0,a5,8
    800011da:	08080d63          	beqz	a6,80001274 <_printf_i+0x164>
    800011de:	639c                	ld	a5,0(a5)
    800011e0:	e308                	sd	a0,0(a4)
    800011e2:	06f00713          	li	a4,111
    800011e6:	00001617          	auipc	a2,0x1
    800011ea:	34a60613          	addi	a2,a2,842 # 80002530 <__sf_fake_stdout+0x50>
    800011ee:	10e58463          	beq	a1,a4,800012f6 <_printf_i+0x1e6>
    800011f2:	4729                	li	a4,10
    800011f4:	040401a3          	sb	zero,67(s0)
    800011f8:	404c                	lw	a1,4(s0)
    800011fa:	c40c                	sw	a1,8(s0)
    800011fc:	0005c563          	bltz	a1,80001206 <_printf_i+0xf6>
    80001200:	4008                	lw	a0,0(s0)
    80001202:	996d                	andi	a0,a0,-5
    80001204:	c008                	sw	a0,0(s0)
    80001206:	e399                	bnez	a5,8000120c <_printf_i+0xfc>
    80001208:	84b6                	mv	s1,a3
    8000120a:	cd99                	beqz	a1,80001228 <_printf_i+0x118>
    8000120c:	84b6                	mv	s1,a3
    8000120e:	02e7f5b3          	remu	a1,a5,a4
    80001212:	14fd                	addi	s1,s1,-1
    80001214:	95b2                	add	a1,a1,a2
    80001216:	0005c583          	lbu	a1,0(a1)
    8000121a:	00b48023          	sb	a1,0(s1)
    8000121e:	85be                	mv	a1,a5
    80001220:	02e7d7b3          	divu	a5,a5,a4
    80001224:	fee5f5e3          	bgeu	a1,a4,8000120e <_printf_i+0xfe>
    80001228:	47a1                	li	a5,8
    8000122a:	00f71e63          	bne	a4,a5,80001246 <_printf_i+0x136>
    8000122e:	401c                	lw	a5,0(s0)
    80001230:	8b85                	andi	a5,a5,1
    80001232:	cb91                	beqz	a5,80001246 <_printf_i+0x136>
    80001234:	4058                	lw	a4,4(s0)
    80001236:	481c                	lw	a5,16(s0)
    80001238:	00e7c763          	blt	a5,a4,80001246 <_printf_i+0x136>
    8000123c:	03000793          	li	a5,48
    80001240:	fef48fa3          	sb	a5,-1(s1)
    80001244:	14fd                	addi	s1,s1,-1
    80001246:	8e85                	sub	a3,a3,s1
    80001248:	c814                	sw	a3,16(s0)
    8000124a:	8752                	mv	a4,s4
    8000124c:	86ce                	mv	a3,s3
    8000124e:	0070                	addi	a2,sp,12
    80001250:	85a2                	mv	a1,s0
    80001252:	854a                	mv	a0,s2
    80001254:	d97ff0ef          	jal	ra,80000fea <_printf_common>
    80001258:	5afd                	li	s5,-1
    8000125a:	0f551c63          	bne	a0,s5,80001352 <_printf_i+0x242>
    8000125e:	557d                	li	a0,-1
    80001260:	60a6                	ld	ra,72(sp)
    80001262:	6406                	ld	s0,64(sp)
    80001264:	74e2                	ld	s1,56(sp)
    80001266:	7942                	ld	s2,48(sp)
    80001268:	79a2                	ld	s3,40(sp)
    8000126a:	7a02                	ld	s4,32(sp)
    8000126c:	6ae2                	ld	s5,24(sp)
    8000126e:	6b42                	ld	s6,16(sp)
    80001270:	6161                	addi	sp,sp,80
    80001272:	8082                	ret
    80001274:	439c                	lw	a5,0(a5)
    80001276:	04067613          	andi	a2,a2,64
    8000127a:	e308                	sd	a0,0(a4)
    8000127c:	c601                	beqz	a2,80001284 <_printf_i+0x174>
    8000127e:	17c2                	slli	a5,a5,0x30
    80001280:	93c1                	srli	a5,a5,0x30
    80001282:	b785                	j	800011e2 <_printf_i+0xd2>
    80001284:	1782                	slli	a5,a5,0x20
    80001286:	9381                	srli	a5,a5,0x20
    80001288:	bfa9                	j	800011e2 <_printf_i+0xd2>
    8000128a:	04b402a3          	sb	a1,69(s0)
    8000128e:	00001617          	auipc	a2,0x1
    80001292:	2a260613          	addi	a2,a2,674 # 80002530 <__sf_fake_stdout+0x50>
    80001296:	400c                	lw	a1,0(s0)
    80001298:	631c                	ld	a5,0(a4)
    8000129a:	0805f813          	andi	a6,a1,128
    8000129e:	00878513          	addi	a0,a5,8
    800012a2:	02080e63          	beqz	a6,800012de <_printf_i+0x1ce>
    800012a6:	639c                	ld	a5,0(a5)
    800012a8:	e308                	sd	a0,0(a4)
    800012aa:	0015f713          	andi	a4,a1,1
    800012ae:	c701                	beqz	a4,800012b6 <_printf_i+0x1a6>
    800012b0:	0205e593          	ori	a1,a1,32
    800012b4:	c00c                	sw	a1,0(s0)
    800012b6:	4741                	li	a4,16
    800012b8:	ff95                	bnez	a5,800011f4 <_printf_i+0xe4>
    800012ba:	400c                	lw	a1,0(s0)
    800012bc:	fdf5f593          	andi	a1,a1,-33
    800012c0:	c00c                	sw	a1,0(s0)
    800012c2:	bf0d                	j	800011f4 <_printf_i+0xe4>
    800012c4:	401c                	lw	a5,0(s0)
    800012c6:	0a07e793          	ori	a5,a5,160
    800012ca:	c01c                	sw	a5,0(s0)
    800012cc:	07800793          	li	a5,120
    800012d0:	04f402a3          	sb	a5,69(s0)
    800012d4:	00001617          	auipc	a2,0x1
    800012d8:	27460613          	addi	a2,a2,628 # 80002548 <__sf_fake_stdout+0x68>
    800012dc:	bf6d                	j	80001296 <_printf_i+0x186>
    800012de:	439c                	lw	a5,0(a5)
    800012e0:	0405f813          	andi	a6,a1,64
    800012e4:	e308                	sd	a0,0(a4)
    800012e6:	00080563          	beqz	a6,800012f0 <_printf_i+0x1e0>
    800012ea:	17c2                	slli	a5,a5,0x30
    800012ec:	93c1                	srli	a5,a5,0x30
    800012ee:	bf75                	j	800012aa <_printf_i+0x19a>
    800012f0:	1782                	slli	a5,a5,0x20
    800012f2:	9381                	srli	a5,a5,0x20
    800012f4:	bf5d                	j	800012aa <_printf_i+0x19a>
    800012f6:	4721                	li	a4,8
    800012f8:	bdf5                	j	800011f4 <_printf_i+0xe4>
    800012fa:	4010                	lw	a2,0(s0)
    800012fc:	631c                	ld	a5,0(a4)
    800012fe:	484c                	lw	a1,20(s0)
    80001300:	08067813          	andi	a6,a2,128
    80001304:	00878513          	addi	a0,a5,8
    80001308:	00080963          	beqz	a6,8000131a <_printf_i+0x20a>
    8000130c:	e308                	sd	a0,0(a4)
    8000130e:	639c                	ld	a5,0(a5)
    80001310:	e38c                	sd	a1,0(a5)
    80001312:	00042823          	sw	zero,16(s0)
    80001316:	84b6                	mv	s1,a3
    80001318:	bf0d                	j	8000124a <_printf_i+0x13a>
    8000131a:	e308                	sd	a0,0(a4)
    8000131c:	04067613          	andi	a2,a2,64
    80001320:	639c                	ld	a5,0(a5)
    80001322:	c601                	beqz	a2,8000132a <_printf_i+0x21a>
    80001324:	00b79023          	sh	a1,0(a5)
    80001328:	b7ed                	j	80001312 <_printf_i+0x202>
    8000132a:	c38c                	sw	a1,0(a5)
    8000132c:	b7dd                	j	80001312 <_printf_i+0x202>
    8000132e:	631c                	ld	a5,0(a4)
    80001330:	4050                	lw	a2,4(s0)
    80001332:	4581                	li	a1,0
    80001334:	00878693          	addi	a3,a5,8
    80001338:	e314                	sd	a3,0(a4)
    8000133a:	6384                	ld	s1,0(a5)
    8000133c:	8526                	mv	a0,s1
    8000133e:	165000ef          	jal	ra,80001ca2 <memchr>
    80001342:	c119                	beqz	a0,80001348 <_printf_i+0x238>
    80001344:	8d05                	sub	a0,a0,s1
    80001346:	c048                	sw	a0,4(s0)
    80001348:	405c                	lw	a5,4(s0)
    8000134a:	c81c                	sw	a5,16(s0)
    8000134c:	040401a3          	sb	zero,67(s0)
    80001350:	bded                	j	8000124a <_printf_i+0x13a>
    80001352:	4814                	lw	a3,16(s0)
    80001354:	8626                	mv	a2,s1
    80001356:	85ce                	mv	a1,s3
    80001358:	854a                	mv	a0,s2
    8000135a:	9a02                	jalr	s4
    8000135c:	f15501e3          	beq	a0,s5,8000125e <_printf_i+0x14e>
    80001360:	401c                	lw	a5,0(s0)
    80001362:	8b89                	andi	a5,a5,2
    80001364:	eb95                	bnez	a5,80001398 <_printf_i+0x288>
    80001366:	47b2                	lw	a5,12(sp)
    80001368:	4448                	lw	a0,12(s0)
    8000136a:	0007871b          	sext.w	a4,a5
    8000136e:	0005069b          	sext.w	a3,a0
    80001372:	00e6d363          	bge	a3,a4,80001378 <_printf_i+0x268>
    80001376:	853e                	mv	a0,a5
    80001378:	2501                	sext.w	a0,a0
    8000137a:	b5dd                	j	80001260 <_printf_i+0x150>
    8000137c:	4685                	li	a3,1
    8000137e:	8656                	mv	a2,s5
    80001380:	85ce                	mv	a1,s3
    80001382:	854a                	mv	a0,s2
    80001384:	9a02                	jalr	s4
    80001386:	ed650ce3          	beq	a0,s6,8000125e <_printf_i+0x14e>
    8000138a:	2485                	addiw	s1,s1,1
    8000138c:	445c                	lw	a5,12(s0)
    8000138e:	4732                	lw	a4,12(sp)
    80001390:	9f99                	subw	a5,a5,a4
    80001392:	fef4c5e3          	blt	s1,a5,8000137c <_printf_i+0x26c>
    80001396:	bfc1                	j	80001366 <_printf_i+0x256>
    80001398:	4481                	li	s1,0
    8000139a:	01940a93          	addi	s5,s0,25
    8000139e:	5b7d                	li	s6,-1
    800013a0:	b7f5                	j	8000138c <_printf_i+0x27c>

00000000800013a2 <_sbrk_r>:
    800013a2:	1141                	addi	sp,sp,-16
    800013a4:	e022                	sd	s0,0(sp)
    800013a6:	842a                	mv	s0,a0
    800013a8:	852e                	mv	a0,a1
    800013aa:	a601a823          	sw	zero,-1424(gp) # 80002970 <errno>
    800013ae:	e406                	sd	ra,8(sp)
    800013b0:	44b000ef          	jal	ra,80001ffa <_sbrk>
    800013b4:	57fd                	li	a5,-1
    800013b6:	00f51663          	bne	a0,a5,800013c2 <_sbrk_r+0x20>
    800013ba:	a701a783          	lw	a5,-1424(gp) # 80002970 <errno>
    800013be:	c391                	beqz	a5,800013c2 <_sbrk_r+0x20>
    800013c0:	c01c                	sw	a5,0(s0)
    800013c2:	60a2                	ld	ra,8(sp)
    800013c4:	6402                	ld	s0,0(sp)
    800013c6:	0141                	addi	sp,sp,16
    800013c8:	8082                	ret

00000000800013ca <__sread>:
    800013ca:	1141                	addi	sp,sp,-16
    800013cc:	e022                	sd	s0,0(sp)
    800013ce:	842e                	mv	s0,a1
    800013d0:	01259583          	lh	a1,18(a1)
    800013d4:	e406                	sd	ra,8(sp)
    800013d6:	231000ef          	jal	ra,80001e06 <_read_r>
    800013da:	00054963          	bltz	a0,800013ec <__sread+0x22>
    800013de:	6c5c                	ld	a5,152(s0)
    800013e0:	97aa                	add	a5,a5,a0
    800013e2:	ec5c                	sd	a5,152(s0)
    800013e4:	60a2                	ld	ra,8(sp)
    800013e6:	6402                	ld	s0,0(sp)
    800013e8:	0141                	addi	sp,sp,16
    800013ea:	8082                	ret
    800013ec:	01045783          	lhu	a5,16(s0)
    800013f0:	777d                	lui	a4,0xfffff
    800013f2:	177d                	addi	a4,a4,-1
    800013f4:	8ff9                	and	a5,a5,a4
    800013f6:	00f41823          	sh	a5,16(s0)
    800013fa:	b7ed                	j	800013e4 <__sread+0x1a>

00000000800013fc <__seofread>:
    800013fc:	4501                	li	a0,0
    800013fe:	8082                	ret

0000000080001400 <__swrite>:
    80001400:	0105d783          	lhu	a5,16(a1)
    80001404:	7179                	addi	sp,sp,-48
    80001406:	f022                	sd	s0,32(sp)
    80001408:	ec26                	sd	s1,24(sp)
    8000140a:	e84a                	sd	s2,16(sp)
    8000140c:	e44e                	sd	s3,8(sp)
    8000140e:	f406                	sd	ra,40(sp)
    80001410:	1007f793          	andi	a5,a5,256
    80001414:	84aa                	mv	s1,a0
    80001416:	842e                	mv	s0,a1
    80001418:	8932                	mv	s2,a2
    8000141a:	89b6                	mv	s3,a3
    8000141c:	c799                	beqz	a5,8000142a <__swrite+0x2a>
    8000141e:	01259583          	lh	a1,18(a1)
    80001422:	4689                	li	a3,2
    80001424:	4601                	li	a2,0
    80001426:	752000ef          	jal	ra,80001b78 <_lseek_r>
    8000142a:	01045783          	lhu	a5,16(s0)
    8000142e:	777d                	lui	a4,0xfffff
    80001430:	177d                	addi	a4,a4,-1
    80001432:	8ff9                	and	a5,a5,a4
    80001434:	01241583          	lh	a1,18(s0)
    80001438:	00f41823          	sh	a5,16(s0)
    8000143c:	7402                	ld	s0,32(sp)
    8000143e:	70a2                	ld	ra,40(sp)
    80001440:	86ce                	mv	a3,s3
    80001442:	864a                	mv	a2,s2
    80001444:	69a2                	ld	s3,8(sp)
    80001446:	6942                	ld	s2,16(sp)
    80001448:	8526                	mv	a0,s1
    8000144a:	64e2                	ld	s1,24(sp)
    8000144c:	6145                	addi	sp,sp,48
    8000144e:	aa11                	j	80001562 <_write_r>

0000000080001450 <__sseek>:
    80001450:	1141                	addi	sp,sp,-16
    80001452:	e022                	sd	s0,0(sp)
    80001454:	842e                	mv	s0,a1
    80001456:	01259583          	lh	a1,18(a1)
    8000145a:	e406                	sd	ra,8(sp)
    8000145c:	71c000ef          	jal	ra,80001b78 <_lseek_r>
    80001460:	57fd                	li	a5,-1
    80001462:	01045703          	lhu	a4,16(s0)
    80001466:	00f51b63          	bne	a0,a5,8000147c <__sseek+0x2c>
    8000146a:	77fd                	lui	a5,0xfffff
    8000146c:	17fd                	addi	a5,a5,-1
    8000146e:	8ff9                	and	a5,a5,a4
    80001470:	00f41823          	sh	a5,16(s0)
    80001474:	60a2                	ld	ra,8(sp)
    80001476:	6402                	ld	s0,0(sp)
    80001478:	0141                	addi	sp,sp,16
    8000147a:	8082                	ret
    8000147c:	6785                	lui	a5,0x1
    8000147e:	8fd9                	or	a5,a5,a4
    80001480:	00f41823          	sh	a5,16(s0)
    80001484:	ec48                	sd	a0,152(s0)
    80001486:	b7fd                	j	80001474 <__sseek+0x24>

0000000080001488 <__sclose>:
    80001488:	01259583          	lh	a1,18(a1)
    8000148c:	ac09                	j	8000169e <_close_r>

000000008000148e <__swbuf_r>:
    8000148e:	7179                	addi	sp,sp,-48
    80001490:	f022                	sd	s0,32(sp)
    80001492:	ec26                	sd	s1,24(sp)
    80001494:	e84a                	sd	s2,16(sp)
    80001496:	f406                	sd	ra,40(sp)
    80001498:	e44e                	sd	s3,8(sp)
    8000149a:	84aa                	mv	s1,a0
    8000149c:	892e                	mv	s2,a1
    8000149e:	8432                	mv	s0,a2
    800014a0:	c509                	beqz	a0,800014aa <__swbuf_r+0x1c>
    800014a2:	591c                	lw	a5,48(a0)
    800014a4:	e399                	bnez	a5,800014aa <__swbuf_r+0x1c>
    800014a6:	cdcff0ef          	jal	ra,80000982 <__sinit>
    800014aa:	00001797          	auipc	a5,0x1
    800014ae:	ffe78793          	addi	a5,a5,-2 # 800024a8 <__sf_fake_stdin>
    800014b2:	06f41a63          	bne	s0,a5,80001526 <__swbuf_r+0x98>
    800014b6:	6480                	ld	s0,8(s1)
    800014b8:	541c                	lw	a5,40(s0)
    800014ba:	c45c                	sw	a5,12(s0)
    800014bc:	01045783          	lhu	a5,16(s0)
    800014c0:	8ba1                	andi	a5,a5,8
    800014c2:	c3d1                	beqz	a5,80001546 <__swbuf_r+0xb8>
    800014c4:	6c1c                	ld	a5,24(s0)
    800014c6:	c3c1                	beqz	a5,80001546 <__swbuf_r+0xb8>
    800014c8:	6c1c                	ld	a5,24(s0)
    800014ca:	6008                	ld	a0,0(s0)
    800014cc:	0ff97993          	andi	s3,s2,255
    800014d0:	894e                	mv	s2,s3
    800014d2:	9d1d                	subw	a0,a0,a5
    800014d4:	501c                	lw	a5,32(s0)
    800014d6:	00f54763          	blt	a0,a5,800014e4 <__swbuf_r+0x56>
    800014da:	85a2                	mv	a1,s0
    800014dc:	8526                	mv	a0,s1
    800014de:	326000ef          	jal	ra,80001804 <_fflush_r>
    800014e2:	e53d                	bnez	a0,80001550 <__swbuf_r+0xc2>
    800014e4:	445c                	lw	a5,12(s0)
    800014e6:	2505                	addiw	a0,a0,1
    800014e8:	37fd                	addiw	a5,a5,-1
    800014ea:	c45c                	sw	a5,12(s0)
    800014ec:	601c                	ld	a5,0(s0)
    800014ee:	00178713          	addi	a4,a5,1
    800014f2:	e018                	sd	a4,0(s0)
    800014f4:	01378023          	sb	s3,0(a5)
    800014f8:	501c                	lw	a5,32(s0)
    800014fa:	00a78963          	beq	a5,a0,8000150c <__swbuf_r+0x7e>
    800014fe:	01045783          	lhu	a5,16(s0)
    80001502:	8b85                	andi	a5,a5,1
    80001504:	cb89                	beqz	a5,80001516 <__swbuf_r+0x88>
    80001506:	47a9                	li	a5,10
    80001508:	00f91763          	bne	s2,a5,80001516 <__swbuf_r+0x88>
    8000150c:	85a2                	mv	a1,s0
    8000150e:	8526                	mv	a0,s1
    80001510:	2f4000ef          	jal	ra,80001804 <_fflush_r>
    80001514:	ed15                	bnez	a0,80001550 <__swbuf_r+0xc2>
    80001516:	70a2                	ld	ra,40(sp)
    80001518:	7402                	ld	s0,32(sp)
    8000151a:	64e2                	ld	s1,24(sp)
    8000151c:	69a2                	ld	s3,8(sp)
    8000151e:	854a                	mv	a0,s2
    80001520:	6942                	ld	s2,16(sp)
    80001522:	6145                	addi	sp,sp,48
    80001524:	8082                	ret
    80001526:	00001797          	auipc	a5,0x1
    8000152a:	fba78793          	addi	a5,a5,-70 # 800024e0 <__sf_fake_stdout>
    8000152e:	00f41463          	bne	s0,a5,80001536 <__swbuf_r+0xa8>
    80001532:	6880                	ld	s0,16(s1)
    80001534:	b751                	j	800014b8 <__swbuf_r+0x2a>
    80001536:	00001797          	auipc	a5,0x1
    8000153a:	f3a78793          	addi	a5,a5,-198 # 80002470 <__sf_fake_stderr>
    8000153e:	f6f41de3          	bne	s0,a5,800014b8 <__swbuf_r+0x2a>
    80001542:	6c80                	ld	s0,24(s1)
    80001544:	bf95                	j	800014b8 <__swbuf_r+0x2a>
    80001546:	85a2                	mv	a1,s0
    80001548:	8526                	mv	a0,s1
    8000154a:	044000ef          	jal	ra,8000158e <__swsetup_r>
    8000154e:	dd2d                	beqz	a0,800014c8 <__swbuf_r+0x3a>
    80001550:	597d                	li	s2,-1
    80001552:	b7d1                	j	80001516 <__swbuf_r+0x88>

0000000080001554 <__swbuf>:
    80001554:	862e                	mv	a2,a1
    80001556:	85aa                	mv	a1,a0
    80001558:	00001517          	auipc	a0,0x1
    8000155c:	1a853503          	ld	a0,424(a0) # 80002700 <_impure_ptr>
    80001560:	b73d                	j	8000148e <__swbuf_r>

0000000080001562 <_write_r>:
    80001562:	1141                	addi	sp,sp,-16
    80001564:	e022                	sd	s0,0(sp)
    80001566:	842a                	mv	s0,a0
    80001568:	852e                	mv	a0,a1
    8000156a:	85b2                	mv	a1,a2
    8000156c:	8636                	mv	a2,a3
    8000156e:	a601a823          	sw	zero,-1424(gp) # 80002970 <errno>
    80001572:	e406                	sd	ra,8(sp)
    80001574:	2c3000ef          	jal	ra,80002036 <_write>
    80001578:	57fd                	li	a5,-1
    8000157a:	00f51663          	bne	a0,a5,80001586 <_write_r+0x24>
    8000157e:	a701a783          	lw	a5,-1424(gp) # 80002970 <errno>
    80001582:	c391                	beqz	a5,80001586 <_write_r+0x24>
    80001584:	c01c                	sw	a5,0(s0)
    80001586:	60a2                	ld	ra,8(sp)
    80001588:	6402                	ld	s0,0(sp)
    8000158a:	0141                	addi	sp,sp,16
    8000158c:	8082                	ret

000000008000158e <__swsetup_r>:
    8000158e:	1101                	addi	sp,sp,-32
    80001590:	e822                	sd	s0,16(sp)
    80001592:	e426                	sd	s1,8(sp)
    80001594:	e04a                	sd	s2,0(sp)
    80001596:	ec06                	sd	ra,24(sp)
    80001598:	00001497          	auipc	s1,0x1
    8000159c:	1684b483          	ld	s1,360(s1) # 80002700 <_impure_ptr>
    800015a0:	892a                	mv	s2,a0
    800015a2:	842e                	mv	s0,a1
    800015a4:	c491                	beqz	s1,800015b0 <__swsetup_r+0x22>
    800015a6:	589c                	lw	a5,48(s1)
    800015a8:	e781                	bnez	a5,800015b0 <__swsetup_r+0x22>
    800015aa:	8526                	mv	a0,s1
    800015ac:	bd6ff0ef          	jal	ra,80000982 <__sinit>
    800015b0:	00001797          	auipc	a5,0x1
    800015b4:	ef878793          	addi	a5,a5,-264 # 800024a8 <__sf_fake_stdin>
    800015b8:	02f41763          	bne	s0,a5,800015e6 <__swsetup_r+0x58>
    800015bc:	6480                	ld	s0,8(s1)
    800015be:	01041783          	lh	a5,16(s0)
    800015c2:	03079713          	slli	a4,a5,0x30
    800015c6:	0087f693          	andi	a3,a5,8
    800015ca:	9341                	srli	a4,a4,0x30
    800015cc:	eab5                	bnez	a3,80001640 <__swsetup_r+0xb2>
    800015ce:	01077693          	andi	a3,a4,16
    800015d2:	ea95                	bnez	a3,80001606 <__swsetup_r+0x78>
    800015d4:	4725                	li	a4,9
    800015d6:	00e92023          	sw	a4,0(s2)
    800015da:	0407e793          	ori	a5,a5,64
    800015de:	00f41823          	sh	a5,16(s0)
    800015e2:	557d                	li	a0,-1
    800015e4:	a045                	j	80001684 <__swsetup_r+0xf6>
    800015e6:	00001797          	auipc	a5,0x1
    800015ea:	efa78793          	addi	a5,a5,-262 # 800024e0 <__sf_fake_stdout>
    800015ee:	00f41463          	bne	s0,a5,800015f6 <__swsetup_r+0x68>
    800015f2:	6880                	ld	s0,16(s1)
    800015f4:	b7e9                	j	800015be <__swsetup_r+0x30>
    800015f6:	00001797          	auipc	a5,0x1
    800015fa:	e7a78793          	addi	a5,a5,-390 # 80002470 <__sf_fake_stderr>
    800015fe:	fcf410e3          	bne	s0,a5,800015be <__swsetup_r+0x30>
    80001602:	6c80                	ld	s0,24(s1)
    80001604:	bf6d                	j	800015be <__swsetup_r+0x30>
    80001606:	8b11                	andi	a4,a4,4
    80001608:	c715                	beqz	a4,80001634 <__swsetup_r+0xa6>
    8000160a:	702c                	ld	a1,96(s0)
    8000160c:	c991                	beqz	a1,80001620 <__swsetup_r+0x92>
    8000160e:	07c40793          	addi	a5,s0,124
    80001612:	00f58563          	beq	a1,a5,8000161c <__swsetup_r+0x8e>
    80001616:	854a                	mv	a0,s2
    80001618:	6e4000ef          	jal	ra,80001cfc <_free_r>
    8000161c:	06043023          	sd	zero,96(s0)
    80001620:	01045783          	lhu	a5,16(s0)
    80001624:	00042423          	sw	zero,8(s0)
    80001628:	fdb7f793          	andi	a5,a5,-37
    8000162c:	00f41823          	sh	a5,16(s0)
    80001630:	6c1c                	ld	a5,24(s0)
    80001632:	e01c                	sd	a5,0(s0)
    80001634:	01045783          	lhu	a5,16(s0)
    80001638:	0087e793          	ori	a5,a5,8
    8000163c:	00f41823          	sh	a5,16(s0)
    80001640:	6c1c                	ld	a5,24(s0)
    80001642:	ef89                	bnez	a5,8000165c <__swsetup_r+0xce>
    80001644:	01045783          	lhu	a5,16(s0)
    80001648:	20000713          	li	a4,512
    8000164c:	2807f793          	andi	a5,a5,640
    80001650:	00e78663          	beq	a5,a4,8000165c <__swsetup_r+0xce>
    80001654:	85a2                	mv	a1,s0
    80001656:	854a                	mv	a0,s2
    80001658:	5a8000ef          	jal	ra,80001c00 <__smakebuf_r>
    8000165c:	01041783          	lh	a5,16(s0)
    80001660:	03079713          	slli	a4,a5,0x30
    80001664:	0017f693          	andi	a3,a5,1
    80001668:	9341                	srli	a4,a4,0x30
    8000166a:	c29d                	beqz	a3,80001690 <__swsetup_r+0x102>
    8000166c:	5014                	lw	a3,32(s0)
    8000166e:	00042623          	sw	zero,12(s0)
    80001672:	40d006bb          	negw	a3,a3
    80001676:	d414                	sw	a3,40(s0)
    80001678:	6c14                	ld	a3,24(s0)
    8000167a:	4501                	li	a0,0
    8000167c:	e681                	bnez	a3,80001684 <__swsetup_r+0xf6>
    8000167e:	08077713          	andi	a4,a4,128
    80001682:	ff21                	bnez	a4,800015da <__swsetup_r+0x4c>
    80001684:	60e2                	ld	ra,24(sp)
    80001686:	6442                	ld	s0,16(sp)
    80001688:	64a2                	ld	s1,8(sp)
    8000168a:	6902                	ld	s2,0(sp)
    8000168c:	6105                	addi	sp,sp,32
    8000168e:	8082                	ret
    80001690:	00277693          	andi	a3,a4,2
    80001694:	4601                	li	a2,0
    80001696:	e291                	bnez	a3,8000169a <__swsetup_r+0x10c>
    80001698:	5010                	lw	a2,32(s0)
    8000169a:	c450                	sw	a2,12(s0)
    8000169c:	bff1                	j	80001678 <__swsetup_r+0xea>

000000008000169e <_close_r>:
    8000169e:	1141                	addi	sp,sp,-16
    800016a0:	e022                	sd	s0,0(sp)
    800016a2:	842a                	mv	s0,a0
    800016a4:	852e                	mv	a0,a1
    800016a6:	a601a823          	sw	zero,-1424(gp) # 80002970 <errno>
    800016aa:	e406                	sd	ra,8(sp)
    800016ac:	0f5000ef          	jal	ra,80001fa0 <_close>
    800016b0:	57fd                	li	a5,-1
    800016b2:	00f51663          	bne	a0,a5,800016be <_close_r+0x20>
    800016b6:	a701a783          	lw	a5,-1424(gp) # 80002970 <errno>
    800016ba:	c391                	beqz	a5,800016be <_close_r+0x20>
    800016bc:	c01c                	sw	a5,0(s0)
    800016be:	60a2                	ld	ra,8(sp)
    800016c0:	6402                	ld	s0,0(sp)
    800016c2:	0141                	addi	sp,sp,16
    800016c4:	8082                	ret

00000000800016c6 <__sflush_r>:
    800016c6:	0105d783          	lhu	a5,16(a1)
    800016ca:	7179                	addi	sp,sp,-48
    800016cc:	f022                	sd	s0,32(sp)
    800016ce:	ec26                	sd	s1,24(sp)
    800016d0:	f406                	sd	ra,40(sp)
    800016d2:	e84a                	sd	s2,16(sp)
    800016d4:	e44e                	sd	s3,8(sp)
    800016d6:	0087f713          	andi	a4,a5,8
    800016da:	84aa                	mv	s1,a0
    800016dc:	842e                	mv	s0,a1
    800016de:	ef79                	bnez	a4,800017bc <__sflush_r+0xf6>
    800016e0:	4598                	lw	a4,8(a1)
    800016e2:	00e04d63          	bgtz	a4,800016fc <__sflush_r+0x36>
    800016e6:	5db8                	lw	a4,120(a1)
    800016e8:	00e04a63          	bgtz	a4,800016fc <__sflush_r+0x36>
    800016ec:	4501                	li	a0,0
    800016ee:	70a2                	ld	ra,40(sp)
    800016f0:	7402                	ld	s0,32(sp)
    800016f2:	64e2                	ld	s1,24(sp)
    800016f4:	6942                	ld	s2,16(sp)
    800016f6:	69a2                	ld	s3,8(sp)
    800016f8:	6145                	addi	sp,sp,48
    800016fa:	8082                	ret
    800016fc:	6838                	ld	a4,80(s0)
    800016fe:	d77d                	beqz	a4,800016ec <__sflush_r+0x26>
    80001700:	0004a903          	lw	s2,0(s1)
    80001704:	03379693          	slli	a3,a5,0x33
    80001708:	0004a023          	sw	zero,0(s1)
    8000170c:	0606de63          	bgez	a3,80001788 <__sflush_r+0xc2>
    80001710:	6c50                	ld	a2,152(s0)
    80001712:	01045783          	lhu	a5,16(s0)
    80001716:	8b91                	andi	a5,a5,4
    80001718:	c799                	beqz	a5,80001726 <__sflush_r+0x60>
    8000171a:	441c                	lw	a5,8(s0)
    8000171c:	8e1d                	sub	a2,a2,a5
    8000171e:	703c                	ld	a5,96(s0)
    80001720:	c399                	beqz	a5,80001726 <__sflush_r+0x60>
    80001722:	5c3c                	lw	a5,120(s0)
    80001724:	8e1d                	sub	a2,a2,a5
    80001726:	683c                	ld	a5,80(s0)
    80001728:	7c0c                	ld	a1,56(s0)
    8000172a:	4681                	li	a3,0
    8000172c:	8526                	mv	a0,s1
    8000172e:	9782                	jalr	a5
    80001730:	57fd                	li	a5,-1
    80001732:	01045703          	lhu	a4,16(s0)
    80001736:	00f51d63          	bne	a0,a5,80001750 <__sflush_r+0x8a>
    8000173a:	4094                	lw	a3,0(s1)
    8000173c:	47f5                	li	a5,29
    8000173e:	06d7e963          	bltu	a5,a3,800017b0 <__sflush_r+0xea>
    80001742:	204007b7          	lui	a5,0x20400
    80001746:	0785                	addi	a5,a5,1
    80001748:	00d7d7b3          	srl	a5,a5,a3
    8000174c:	8b85                	andi	a5,a5,1
    8000174e:	c3ad                	beqz	a5,800017b0 <__sflush_r+0xea>
    80001750:	6c1c                	ld	a5,24(s0)
    80001752:	00042423          	sw	zero,8(s0)
    80001756:	e01c                	sd	a5,0(s0)
    80001758:	03371793          	slli	a5,a4,0x33
    8000175c:	0007d863          	bgez	a5,8000176c <__sflush_r+0xa6>
    80001760:	57fd                	li	a5,-1
    80001762:	00f51463          	bne	a0,a5,8000176a <__sflush_r+0xa4>
    80001766:	409c                	lw	a5,0(s1)
    80001768:	e391                	bnez	a5,8000176c <__sflush_r+0xa6>
    8000176a:	ec48                	sd	a0,152(s0)
    8000176c:	702c                	ld	a1,96(s0)
    8000176e:	0124a023          	sw	s2,0(s1)
    80001772:	ddad                	beqz	a1,800016ec <__sflush_r+0x26>
    80001774:	07c40793          	addi	a5,s0,124
    80001778:	00f58563          	beq	a1,a5,80001782 <__sflush_r+0xbc>
    8000177c:	8526                	mv	a0,s1
    8000177e:	57e000ef          	jal	ra,80001cfc <_free_r>
    80001782:	06043023          	sd	zero,96(s0)
    80001786:	b79d                	j	800016ec <__sflush_r+0x26>
    80001788:	7c0c                	ld	a1,56(s0)
    8000178a:	4601                	li	a2,0
    8000178c:	4685                	li	a3,1
    8000178e:	8526                	mv	a0,s1
    80001790:	9702                	jalr	a4
    80001792:	57fd                	li	a5,-1
    80001794:	862a                	mv	a2,a0
    80001796:	f6f51ee3          	bne	a0,a5,80001712 <__sflush_r+0x4c>
    8000179a:	409c                	lw	a5,0(s1)
    8000179c:	dbbd                	beqz	a5,80001712 <__sflush_r+0x4c>
    8000179e:	4775                	li	a4,29
    800017a0:	00e78563          	beq	a5,a4,800017aa <__sflush_r+0xe4>
    800017a4:	4759                	li	a4,22
    800017a6:	04e79463          	bne	a5,a4,800017ee <__sflush_r+0x128>
    800017aa:	0124a023          	sw	s2,0(s1)
    800017ae:	bf3d                	j	800016ec <__sflush_r+0x26>
    800017b0:	04076713          	ori	a4,a4,64
    800017b4:	00e41823          	sh	a4,16(s0)
    800017b8:	557d                	li	a0,-1
    800017ba:	bf15                	j	800016ee <__sflush_r+0x28>
    800017bc:	0185b983          	ld	s3,24(a1)
    800017c0:	f20986e3          	beqz	s3,800016ec <__sflush_r+0x26>
    800017c4:	0005b903          	ld	s2,0(a1)
    800017c8:	8b8d                	andi	a5,a5,3
    800017ca:	0135b023          	sd	s3,0(a1)
    800017ce:	4139093b          	subw	s2,s2,s3
    800017d2:	4701                	li	a4,0
    800017d4:	e391                	bnez	a5,800017d8 <__sflush_r+0x112>
    800017d6:	5198                	lw	a4,32(a1)
    800017d8:	c458                	sw	a4,12(s0)
    800017da:	f12059e3          	blez	s2,800016ec <__sflush_r+0x26>
    800017de:	643c                	ld	a5,72(s0)
    800017e0:	7c0c                	ld	a1,56(s0)
    800017e2:	86ca                	mv	a3,s2
    800017e4:	864e                	mv	a2,s3
    800017e6:	8526                	mv	a0,s1
    800017e8:	9782                	jalr	a5
    800017ea:	00a04963          	bgtz	a0,800017fc <__sflush_r+0x136>
    800017ee:	01045783          	lhu	a5,16(s0)
    800017f2:	0407e793          	ori	a5,a5,64
    800017f6:	00f41823          	sh	a5,16(s0)
    800017fa:	bf7d                	j	800017b8 <__sflush_r+0xf2>
    800017fc:	99aa                	add	s3,s3,a0
    800017fe:	40a9093b          	subw	s2,s2,a0
    80001802:	bfe1                	j	800017da <__sflush_r+0x114>

0000000080001804 <_fflush_r>:
    80001804:	6d9c                	ld	a5,24(a1)
    80001806:	c3a5                	beqz	a5,80001866 <_fflush_r+0x62>
    80001808:	1101                	addi	sp,sp,-32
    8000180a:	e822                	sd	s0,16(sp)
    8000180c:	ec06                	sd	ra,24(sp)
    8000180e:	842a                	mv	s0,a0
    80001810:	c519                	beqz	a0,8000181e <_fflush_r+0x1a>
    80001812:	591c                	lw	a5,48(a0)
    80001814:	e789                	bnez	a5,8000181e <_fflush_r+0x1a>
    80001816:	e42e                	sd	a1,8(sp)
    80001818:	96aff0ef          	jal	ra,80000982 <__sinit>
    8000181c:	65a2                	ld	a1,8(sp)
    8000181e:	00001797          	auipc	a5,0x1
    80001822:	c8a78793          	addi	a5,a5,-886 # 800024a8 <__sf_fake_stdin>
    80001826:	00f59b63          	bne	a1,a5,8000183c <_fflush_r+0x38>
    8000182a:	640c                	ld	a1,8(s0)
    8000182c:	01059783          	lh	a5,16(a1)
    80001830:	c795                	beqz	a5,8000185c <_fflush_r+0x58>
    80001832:	8522                	mv	a0,s0
    80001834:	6442                	ld	s0,16(sp)
    80001836:	60e2                	ld	ra,24(sp)
    80001838:	6105                	addi	sp,sp,32
    8000183a:	b571                	j	800016c6 <__sflush_r>
    8000183c:	00001797          	auipc	a5,0x1
    80001840:	ca478793          	addi	a5,a5,-860 # 800024e0 <__sf_fake_stdout>
    80001844:	00f59463          	bne	a1,a5,8000184c <_fflush_r+0x48>
    80001848:	680c                	ld	a1,16(s0)
    8000184a:	b7cd                	j	8000182c <_fflush_r+0x28>
    8000184c:	00001797          	auipc	a5,0x1
    80001850:	c2478793          	addi	a5,a5,-988 # 80002470 <__sf_fake_stderr>
    80001854:	fcf59ce3          	bne	a1,a5,8000182c <_fflush_r+0x28>
    80001858:	6c0c                	ld	a1,24(s0)
    8000185a:	bfc9                	j	8000182c <_fflush_r+0x28>
    8000185c:	60e2                	ld	ra,24(sp)
    8000185e:	6442                	ld	s0,16(sp)
    80001860:	4501                	li	a0,0
    80001862:	6105                	addi	sp,sp,32
    80001864:	8082                	ret
    80001866:	4501                	li	a0,0
    80001868:	8082                	ret

000000008000186a <fflush>:
    8000186a:	85aa                	mv	a1,a0
    8000186c:	e919                	bnez	a0,80001882 <fflush+0x18>
    8000186e:	00000597          	auipc	a1,0x0
    80001872:	f9658593          	addi	a1,a1,-106 # 80001804 <_fflush_r>
    80001876:	00001517          	auipc	a0,0x1
    8000187a:	d6253503          	ld	a0,-670(a0) # 800025d8 <_global_impure_ptr>
    8000187e:	aa8ff06f          	j	80000b26 <_fwalk_reent>
    80001882:	00001517          	auipc	a0,0x1
    80001886:	e7e53503          	ld	a0,-386(a0) # 80002700 <_impure_ptr>
    8000188a:	bfad                	j	80001804 <_fflush_r>

000000008000188c <__sfvwrite_r>:
    8000188c:	6a1c                	ld	a5,16(a2)
    8000188e:	e781                	bnez	a5,80001896 <__sfvwrite_r+0xa>
    80001890:	4781                	li	a5,0
    80001892:	853e                	mv	a0,a5
    80001894:	8082                	ret
    80001896:	0105d783          	lhu	a5,16(a1)
    8000189a:	7119                	addi	sp,sp,-128
    8000189c:	f8a2                	sd	s0,112(sp)
    8000189e:	f0ca                	sd	s2,96(sp)
    800018a0:	e8d2                	sd	s4,80(sp)
    800018a2:	fc86                	sd	ra,120(sp)
    800018a4:	f4a6                	sd	s1,104(sp)
    800018a6:	ecce                	sd	s3,88(sp)
    800018a8:	e4d6                	sd	s5,72(sp)
    800018aa:	e0da                	sd	s6,64(sp)
    800018ac:	fc5e                	sd	s7,56(sp)
    800018ae:	f862                	sd	s8,48(sp)
    800018b0:	f466                	sd	s9,40(sp)
    800018b2:	f06a                	sd	s10,32(sp)
    800018b4:	ec6e                	sd	s11,24(sp)
    800018b6:	8ba1                	andi	a5,a5,8
    800018b8:	892a                	mv	s2,a0
    800018ba:	842e                	mv	s0,a1
    800018bc:	8a32                	mv	s4,a2
    800018be:	cfd1                	beqz	a5,8000195a <__sfvwrite_r+0xce>
    800018c0:	6d9c                	ld	a5,24(a1)
    800018c2:	cfc1                	beqz	a5,8000195a <__sfvwrite_r+0xce>
    800018c4:	01045783          	lhu	a5,16(s0)
    800018c8:	000a3983          	ld	s3,0(s4)
    800018cc:	0027f713          	andi	a4,a5,2
    800018d0:	0e071863          	bnez	a4,800019c0 <__sfvwrite_r+0x134>
    800018d4:	8b85                	andi	a5,a5,1
    800018d6:	4a81                	li	s5,0
    800018d8:	16078463          	beqz	a5,80001a40 <__sfvwrite_r+0x1b4>
    800018dc:	4501                	li	a0,0
    800018de:	4b81                	li	s7,0
    800018e0:	4b01                	li	s6,0
    800018e2:	240b0963          	beqz	s6,80001b34 <__sfvwrite_r+0x2a8>
    800018e6:	e919                	bnez	a0,800018fc <__sfvwrite_r+0x70>
    800018e8:	865a                	mv	a2,s6
    800018ea:	45a9                	li	a1,10
    800018ec:	855e                	mv	a0,s7
    800018ee:	3b4000ef          	jal	ra,80001ca2 <memchr>
    800018f2:	24050863          	beqz	a0,80001b42 <__sfvwrite_r+0x2b6>
    800018f6:	0505                	addi	a0,a0,1
    800018f8:	41750abb          	subw	s5,a0,s7
    800018fc:	8c56                	mv	s8,s5
    800018fe:	015b7363          	bgeu	s6,s5,80001904 <__sfvwrite_r+0x78>
    80001902:	8c5a                	mv	s8,s6
    80001904:	6008                	ld	a0,0(s0)
    80001906:	6c1c                	ld	a5,24(s0)
    80001908:	5014                	lw	a3,32(s0)
    8000190a:	22a7ff63          	bgeu	a5,a0,80001b48 <__sfvwrite_r+0x2bc>
    8000190e:	4444                	lw	s1,12(s0)
    80001910:	9cb5                	addw	s1,s1,a3
    80001912:	2384db63          	bge	s1,s8,80001b48 <__sfvwrite_r+0x2bc>
    80001916:	85de                	mv	a1,s7
    80001918:	8626                	mv	a2,s1
    8000191a:	3b8000ef          	jal	ra,80001cd2 <memmove>
    8000191e:	601c                	ld	a5,0(s0)
    80001920:	85a2                	mv	a1,s0
    80001922:	854a                	mv	a0,s2
    80001924:	97a6                	add	a5,a5,s1
    80001926:	e01c                	sd	a5,0(s0)
    80001928:	eddff0ef          	jal	ra,80001804 <_fflush_r>
    8000192c:	10051263          	bnez	a0,80001a30 <__sfvwrite_r+0x1a4>
    80001930:	409a8abb          	subw	s5,s5,s1
    80001934:	4505                	li	a0,1
    80001936:	000a9763          	bnez	s5,80001944 <__sfvwrite_r+0xb8>
    8000193a:	85a2                	mv	a1,s0
    8000193c:	854a                	mv	a0,s2
    8000193e:	ec7ff0ef          	jal	ra,80001804 <_fflush_r>
    80001942:	e57d                	bnez	a0,80001a30 <__sfvwrite_r+0x1a4>
    80001944:	010a3603          	ld	a2,16(s4)
    80001948:	9ba6                	add	s7,s7,s1
    8000194a:	409b0b33          	sub	s6,s6,s1
    8000194e:	409604b3          	sub	s1,a2,s1
    80001952:	009a3823          	sd	s1,16(s4)
    80001956:	f4d1                	bnez	s1,800018e2 <__sfvwrite_r+0x56>
    80001958:	a099                	j	8000199e <__sfvwrite_r+0x112>
    8000195a:	85a2                	mv	a1,s0
    8000195c:	854a                	mv	a0,s2
    8000195e:	c31ff0ef          	jal	ra,8000158e <__swsetup_r>
    80001962:	57fd                	li	a5,-1
    80001964:	d125                	beqz	a0,800018c4 <__sfvwrite_r+0x38>
    80001966:	a82d                	j	800019a0 <__sfvwrite_r+0x114>
    80001968:	0009ba83          	ld	s5,0(s3)
    8000196c:	0089b483          	ld	s1,8(s3)
    80001970:	09c1                	addi	s3,s3,16
    80001972:	d8fd                	beqz	s1,80001968 <__sfvwrite_r+0xdc>
    80001974:	86a6                	mv	a3,s1
    80001976:	009b7363          	bgeu	s6,s1,8000197c <__sfvwrite_r+0xf0>
    8000197a:	86da                	mv	a3,s6
    8000197c:	643c                	ld	a5,72(s0)
    8000197e:	7c0c                	ld	a1,56(s0)
    80001980:	2681                	sext.w	a3,a3
    80001982:	8656                	mv	a2,s5
    80001984:	854a                	mv	a0,s2
    80001986:	9782                	jalr	a5
    80001988:	0aa05463          	blez	a0,80001a30 <__sfvwrite_r+0x1a4>
    8000198c:	010a3783          	ld	a5,16(s4)
    80001990:	9aaa                	add	s5,s5,a0
    80001992:	8c89                	sub	s1,s1,a0
    80001994:	40a78533          	sub	a0,a5,a0
    80001998:	00aa3823          	sd	a0,16(s4)
    8000199c:	f979                	bnez	a0,80001972 <__sfvwrite_r+0xe6>
    8000199e:	4781                	li	a5,0
    800019a0:	70e6                	ld	ra,120(sp)
    800019a2:	7446                	ld	s0,112(sp)
    800019a4:	74a6                	ld	s1,104(sp)
    800019a6:	7906                	ld	s2,96(sp)
    800019a8:	69e6                	ld	s3,88(sp)
    800019aa:	6a46                	ld	s4,80(sp)
    800019ac:	6aa6                	ld	s5,72(sp)
    800019ae:	6b06                	ld	s6,64(sp)
    800019b0:	7be2                	ld	s7,56(sp)
    800019b2:	7c42                	ld	s8,48(sp)
    800019b4:	7ca2                	ld	s9,40(sp)
    800019b6:	7d02                	ld	s10,32(sp)
    800019b8:	6de2                	ld	s11,24(sp)
    800019ba:	853e                	mv	a0,a5
    800019bc:	6109                	addi	sp,sp,128
    800019be:	8082                	ret
    800019c0:	80000b37          	lui	s6,0x80000
    800019c4:	4a81                	li	s5,0
    800019c6:	4481                	li	s1,0
    800019c8:	c00b4b13          	xori	s6,s6,-1024
    800019cc:	b75d                	j	80001972 <__sfvwrite_r+0xe6>
    800019ce:	0009ba83          	ld	s5,0(s3)
    800019d2:	0089bd03          	ld	s10,8(s3)
    800019d6:	09c1                	addi	s3,s3,16
    800019d8:	4444                	lw	s1,12(s0)
    800019da:	8626                	mv	a2,s1
    800019dc:	fe0d09e3          	beqz	s10,800019ce <__sfvwrite_r+0x142>
    800019e0:	01045703          	lhu	a4,16(s0)
    800019e4:	6008                	ld	a0,0(s0)
    800019e6:	20077793          	andi	a5,a4,512
    800019ea:	c7ed                	beqz	a5,80001ad4 <__sfvwrite_r+0x248>
    800019ec:	089d6863          	bltu	s10,s1,80001a7c <__sfvwrite_r+0x1f0>
    800019f0:	48077793          	andi	a5,a4,1152
    800019f4:	c7c1                	beqz	a5,80001a7c <__sfvwrite_r+0x1f0>
    800019f6:	501c                	lw	a5,32(s0)
    800019f8:	6c0c                	ld	a1,24(s0)
    800019fa:	02fc07bb          	mulw	a5,s8,a5
    800019fe:	8d0d                	sub	a0,a0,a1
    80001a00:	00050d9b          	sext.w	s11,a0
    80001a04:	001d8693          	addi	a3,s11,1
    80001a08:	96ea                	add	a3,a3,s10
    80001a0a:	0397cbbb          	divw	s7,a5,s9
    80001a0e:	00dbf563          	bgeu	s7,a3,80001a18 <__sfvwrite_r+0x18c>
    80001a12:	2505                	addiw	a0,a0,1
    80001a14:	01a50bbb          	addw	s7,a0,s10
    80001a18:	40077713          	andi	a4,a4,1024
    80001a1c:	cb59                	beqz	a4,80001ab2 <__sfvwrite_r+0x226>
    80001a1e:	85de                	mv	a1,s7
    80001a20:	854a                	mv	a0,s2
    80001a22:	980ff0ef          	jal	ra,80000ba2 <_malloc_r>
    80001a26:	84aa                	mv	s1,a0
    80001a28:	e505                	bnez	a0,80001a50 <__sfvwrite_r+0x1c4>
    80001a2a:	47b1                	li	a5,12
    80001a2c:	00f92023          	sw	a5,0(s2)
    80001a30:	01045783          	lhu	a5,16(s0)
    80001a34:	0407e793          	ori	a5,a5,64
    80001a38:	00f41823          	sh	a5,16(s0)
    80001a3c:	57fd                	li	a5,-1
    80001a3e:	b78d                	j	800019a0 <__sfvwrite_r+0x114>
    80001a40:	80000b37          	lui	s6,0x80000
    80001a44:	4d01                	li	s10,0
    80001a46:	fffb4b13          	not	s6,s6
    80001a4a:	4c0d                	li	s8,3
    80001a4c:	4c89                	li	s9,2
    80001a4e:	b769                	j	800019d8 <__sfvwrite_r+0x14c>
    80001a50:	6c0c                	ld	a1,24(s0)
    80001a52:	866e                	mv	a2,s11
    80001a54:	268000ef          	jal	ra,80001cbc <memcpy>
    80001a58:	01045703          	lhu	a4,16(s0)
    80001a5c:	b7f77713          	andi	a4,a4,-1153
    80001a60:	08076713          	ori	a4,a4,128
    80001a64:	00e41823          	sh	a4,16(s0)
    80001a68:	ec04                	sd	s1,24(s0)
    80001a6a:	94ee                	add	s1,s1,s11
    80001a6c:	41bb8dbb          	subw	s11,s7,s11
    80001a70:	e004                	sd	s1,0(s0)
    80001a72:	03742023          	sw	s7,32(s0)
    80001a76:	866a                	mv	a2,s10
    80001a78:	01b42623          	sw	s11,12(s0)
    80001a7c:	84ea                	mv	s1,s10
    80001a7e:	00cd7363          	bgeu	s10,a2,80001a84 <__sfvwrite_r+0x1f8>
    80001a82:	866a                	mv	a2,s10
    80001a84:	6008                	ld	a0,0(s0)
    80001a86:	85d6                	mv	a1,s5
    80001a88:	e432                	sd	a2,8(sp)
    80001a8a:	248000ef          	jal	ra,80001cd2 <memmove>
    80001a8e:	445c                	lw	a5,12(s0)
    80001a90:	6622                	ld	a2,8(sp)
    80001a92:	9f91                	subw	a5,a5,a2
    80001a94:	c45c                	sw	a5,12(s0)
    80001a96:	601c                	ld	a5,0(s0)
    80001a98:	963e                	add	a2,a2,a5
    80001a9a:	e010                	sd	a2,0(s0)
    80001a9c:	010a3503          	ld	a0,16(s4)
    80001aa0:	9aa6                	add	s5,s5,s1
    80001aa2:	409d0d33          	sub	s10,s10,s1
    80001aa6:	409504b3          	sub	s1,a0,s1
    80001aaa:	009a3823          	sd	s1,16(s4)
    80001aae:	f48d                	bnez	s1,800019d8 <__sfvwrite_r+0x14c>
    80001ab0:	b5fd                	j	8000199e <__sfvwrite_r+0x112>
    80001ab2:	865e                	mv	a2,s7
    80001ab4:	854a                	mv	a0,s2
    80001ab6:	2ea000ef          	jal	ra,80001da0 <_realloc_r>
    80001aba:	84aa                	mv	s1,a0
    80001abc:	f555                	bnez	a0,80001a68 <__sfvwrite_r+0x1dc>
    80001abe:	6c0c                	ld	a1,24(s0)
    80001ac0:	854a                	mv	a0,s2
    80001ac2:	23a000ef          	jal	ra,80001cfc <_free_r>
    80001ac6:	01045783          	lhu	a5,16(s0)
    80001aca:	f7f7f793          	andi	a5,a5,-129
    80001ace:	00f41823          	sh	a5,16(s0)
    80001ad2:	bfa1                	j	80001a2a <__sfvwrite_r+0x19e>
    80001ad4:	6c1c                	ld	a5,24(s0)
    80001ad6:	00a7e563          	bltu	a5,a0,80001ae0 <__sfvwrite_r+0x254>
    80001ada:	5014                	lw	a3,32(s0)
    80001adc:	02dd7763          	bgeu	s10,a3,80001b0a <__sfvwrite_r+0x27e>
    80001ae0:	009d7363          	bgeu	s10,s1,80001ae6 <__sfvwrite_r+0x25a>
    80001ae4:	84ea                	mv	s1,s10
    80001ae6:	8626                	mv	a2,s1
    80001ae8:	85d6                	mv	a1,s5
    80001aea:	1e8000ef          	jal	ra,80001cd2 <memmove>
    80001aee:	445c                	lw	a5,12(s0)
    80001af0:	4097873b          	subw	a4,a5,s1
    80001af4:	601c                	ld	a5,0(s0)
    80001af6:	c458                	sw	a4,12(s0)
    80001af8:	97a6                	add	a5,a5,s1
    80001afa:	e01c                	sd	a5,0(s0)
    80001afc:	f345                	bnez	a4,80001a9c <__sfvwrite_r+0x210>
    80001afe:	85a2                	mv	a1,s0
    80001b00:	854a                	mv	a0,s2
    80001b02:	d03ff0ef          	jal	ra,80001804 <_fflush_r>
    80001b06:	d959                	beqz	a0,80001a9c <__sfvwrite_r+0x210>
    80001b08:	b725                	j	80001a30 <__sfvwrite_r+0x1a4>
    80001b0a:	80000737          	lui	a4,0x80000
    80001b0e:	ffe74713          	xori	a4,a4,-2
    80001b12:	87da                	mv	a5,s6
    80001b14:	01a76363          	bltu	a4,s10,80001b1a <__sfvwrite_r+0x28e>
    80001b18:	87ea                	mv	a5,s10
    80001b1a:	02d7c7bb          	divw	a5,a5,a3
    80001b1e:	6438                	ld	a4,72(s0)
    80001b20:	7c0c                	ld	a1,56(s0)
    80001b22:	8656                	mv	a2,s5
    80001b24:	854a                	mv	a0,s2
    80001b26:	02d786bb          	mulw	a3,a5,a3
    80001b2a:	9702                	jalr	a4
    80001b2c:	84aa                	mv	s1,a0
    80001b2e:	f6a047e3          	bgtz	a0,80001a9c <__sfvwrite_r+0x210>
    80001b32:	bdfd                	j	80001a30 <__sfvwrite_r+0x1a4>
    80001b34:	0009bb83          	ld	s7,0(s3)
    80001b38:	0089bb03          	ld	s6,8(s3)
    80001b3c:	4501                	li	a0,0
    80001b3e:	09c1                	addi	s3,s3,16
    80001b40:	b34d                	j	800018e2 <__sfvwrite_r+0x56>
    80001b42:	001b0a9b          	addiw	s5,s6,1
    80001b46:	bb5d                	j	800018fc <__sfvwrite_r+0x70>
    80001b48:	00dc4b63          	blt	s8,a3,80001b5e <__sfvwrite_r+0x2d2>
    80001b4c:	643c                	ld	a5,72(s0)
    80001b4e:	7c0c                	ld	a1,56(s0)
    80001b50:	865e                	mv	a2,s7
    80001b52:	854a                	mv	a0,s2
    80001b54:	9782                	jalr	a5
    80001b56:	84aa                	mv	s1,a0
    80001b58:	dca04ce3          	bgtz	a0,80001930 <__sfvwrite_r+0xa4>
    80001b5c:	bdd1                	j	80001a30 <__sfvwrite_r+0x1a4>
    80001b5e:	8662                	mv	a2,s8
    80001b60:	85de                	mv	a1,s7
    80001b62:	170000ef          	jal	ra,80001cd2 <memmove>
    80001b66:	445c                	lw	a5,12(s0)
    80001b68:	84e2                	mv	s1,s8
    80001b6a:	418787bb          	subw	a5,a5,s8
    80001b6e:	c45c                	sw	a5,12(s0)
    80001b70:	601c                	ld	a5,0(s0)
    80001b72:	97e2                	add	a5,a5,s8
    80001b74:	e01c                	sd	a5,0(s0)
    80001b76:	bb6d                	j	80001930 <__sfvwrite_r+0xa4>

0000000080001b78 <_lseek_r>:
    80001b78:	1141                	addi	sp,sp,-16
    80001b7a:	e022                	sd	s0,0(sp)
    80001b7c:	842a                	mv	s0,a0
    80001b7e:	852e                	mv	a0,a1
    80001b80:	85b2                	mv	a1,a2
    80001b82:	8636                	mv	a2,a3
    80001b84:	a601a823          	sw	zero,-1424(gp) # 80002970 <errno>
    80001b88:	e406                	sd	ra,8(sp)
    80001b8a:	446000ef          	jal	ra,80001fd0 <_lseek>
    80001b8e:	57fd                	li	a5,-1
    80001b90:	00f51663          	bne	a0,a5,80001b9c <_lseek_r+0x24>
    80001b94:	a701a783          	lw	a5,-1424(gp) # 80002970 <errno>
    80001b98:	c391                	beqz	a5,80001b9c <_lseek_r+0x24>
    80001b9a:	c01c                	sw	a5,0(s0)
    80001b9c:	60a2                	ld	ra,8(sp)
    80001b9e:	6402                	ld	s0,0(sp)
    80001ba0:	0141                	addi	sp,sp,16
    80001ba2:	8082                	ret

0000000080001ba4 <__swhatbuf_r>:
    80001ba4:	7175                	addi	sp,sp,-144
    80001ba6:	f8ca                	sd	s2,112(sp)
    80001ba8:	892e                	mv	s2,a1
    80001baa:	01259583          	lh	a1,18(a1)
    80001bae:	e122                	sd	s0,128(sp)
    80001bb0:	fca6                	sd	s1,120(sp)
    80001bb2:	e506                	sd	ra,136(sp)
    80001bb4:	8432                	mv	s0,a2
    80001bb6:	84b6                	mv	s1,a3
    80001bb8:	0005dc63          	bgez	a1,80001bd0 <__swhatbuf_r+0x2c>
    80001bbc:	01095783          	lhu	a5,16(s2)
    80001bc0:	0004a023          	sw	zero,0(s1)
    80001bc4:	0807f793          	andi	a5,a5,128
    80001bc8:	e395                	bnez	a5,80001bec <__swhatbuf_r+0x48>
    80001bca:	40000793          	li	a5,1024
    80001bce:	a00d                	j	80001bf0 <__swhatbuf_r+0x4c>
    80001bd0:	0030                	addi	a2,sp,8
    80001bd2:	35c000ef          	jal	ra,80001f2e <_fstat_r>
    80001bd6:	fe0543e3          	bltz	a0,80001bbc <__swhatbuf_r+0x18>
    80001bda:	47b2                	lw	a5,12(sp)
    80001bdc:	673d                	lui	a4,0xf
    80001bde:	8ff9                	and	a5,a5,a4
    80001be0:	6709                	lui	a4,0x2
    80001be2:	8f99                	sub	a5,a5,a4
    80001be4:	0017b793          	seqz	a5,a5
    80001be8:	c09c                	sw	a5,0(s1)
    80001bea:	b7c5                	j	80001bca <__swhatbuf_r+0x26>
    80001bec:	04000793          	li	a5,64
    80001bf0:	60aa                	ld	ra,136(sp)
    80001bf2:	e01c                	sd	a5,0(s0)
    80001bf4:	640a                	ld	s0,128(sp)
    80001bf6:	74e6                	ld	s1,120(sp)
    80001bf8:	7946                	ld	s2,112(sp)
    80001bfa:	4501                	li	a0,0
    80001bfc:	6149                	addi	sp,sp,144
    80001bfe:	8082                	ret

0000000080001c00 <__smakebuf_r>:
    80001c00:	0105d783          	lhu	a5,16(a1)
    80001c04:	7179                	addi	sp,sp,-48
    80001c06:	f022                	sd	s0,32(sp)
    80001c08:	f406                	sd	ra,40(sp)
    80001c0a:	ec26                	sd	s1,24(sp)
    80001c0c:	e84a                	sd	s2,16(sp)
    80001c0e:	8b89                	andi	a5,a5,2
    80001c10:	842e                	mv	s0,a1
    80001c12:	cf89                	beqz	a5,80001c2c <__smakebuf_r+0x2c>
    80001c14:	07f40793          	addi	a5,s0,127
    80001c18:	e01c                	sd	a5,0(s0)
    80001c1a:	ec1c                	sd	a5,24(s0)
    80001c1c:	4785                	li	a5,1
    80001c1e:	d01c                	sw	a5,32(s0)
    80001c20:	70a2                	ld	ra,40(sp)
    80001c22:	7402                	ld	s0,32(sp)
    80001c24:	64e2                	ld	s1,24(sp)
    80001c26:	6942                	ld	s2,16(sp)
    80001c28:	6145                	addi	sp,sp,48
    80001c2a:	8082                	ret
    80001c2c:	0054                	addi	a3,sp,4
    80001c2e:	0030                	addi	a2,sp,8
    80001c30:	892a                	mv	s2,a0
    80001c32:	f73ff0ef          	jal	ra,80001ba4 <__swhatbuf_r>
    80001c36:	65a2                	ld	a1,8(sp)
    80001c38:	84aa                	mv	s1,a0
    80001c3a:	854a                	mv	a0,s2
    80001c3c:	f67fe0ef          	jal	ra,80000ba2 <_malloc_r>
    80001c40:	ed01                	bnez	a0,80001c58 <__smakebuf_r+0x58>
    80001c42:	01041783          	lh	a5,16(s0)
    80001c46:	2007f713          	andi	a4,a5,512
    80001c4a:	fb79                	bnez	a4,80001c20 <__smakebuf_r+0x20>
    80001c4c:	9bf1                	andi	a5,a5,-4
    80001c4e:	0027e793          	ori	a5,a5,2
    80001c52:	00f41823          	sh	a5,16(s0)
    80001c56:	bf7d                	j	80001c14 <__smakebuf_r+0x14>
    80001c58:	fffff797          	auipc	a5,0xfffff
    80001c5c:	cca78793          	addi	a5,a5,-822 # 80000922 <_cleanup_r>
    80001c60:	04f93423          	sd	a5,72(s2)
    80001c64:	01045783          	lhu	a5,16(s0)
    80001c68:	e008                	sd	a0,0(s0)
    80001c6a:	ec08                	sd	a0,24(s0)
    80001c6c:	0807e793          	ori	a5,a5,128
    80001c70:	00f41823          	sh	a5,16(s0)
    80001c74:	67a2                	ld	a5,8(sp)
    80001c76:	d01c                	sw	a5,32(s0)
    80001c78:	4792                	lw	a5,4(sp)
    80001c7a:	cf91                	beqz	a5,80001c96 <__smakebuf_r+0x96>
    80001c7c:	01241583          	lh	a1,18(s0)
    80001c80:	854a                	mv	a0,s2
    80001c82:	2d6000ef          	jal	ra,80001f58 <_isatty_r>
    80001c86:	c901                	beqz	a0,80001c96 <__smakebuf_r+0x96>
    80001c88:	01045783          	lhu	a5,16(s0)
    80001c8c:	9bf1                	andi	a5,a5,-4
    80001c8e:	0017e793          	ori	a5,a5,1
    80001c92:	00f41823          	sh	a5,16(s0)
    80001c96:	01045503          	lhu	a0,16(s0)
    80001c9a:	8cc9                	or	s1,s1,a0
    80001c9c:	00941823          	sh	s1,16(s0)
    80001ca0:	b741                	j	80001c20 <__smakebuf_r+0x20>

0000000080001ca2 <memchr>:
    80001ca2:	0ff5f593          	andi	a1,a1,255
    80001ca6:	962a                	add	a2,a2,a0
    80001ca8:	00c51463          	bne	a0,a2,80001cb0 <memchr+0xe>
    80001cac:	4501                	li	a0,0
    80001cae:	8082                	ret
    80001cb0:	00054783          	lbu	a5,0(a0)
    80001cb4:	feb78de3          	beq	a5,a1,80001cae <memchr+0xc>
    80001cb8:	0505                	addi	a0,a0,1
    80001cba:	b7fd                	j	80001ca8 <memchr+0x6>

0000000080001cbc <memcpy>:
    80001cbc:	832a                	mv	t1,a0
    80001cbe:	ca09                	beqz	a2,80001cd0 <memcpy+0x14>
    80001cc0:	00058383          	lb	t2,0(a1)
    80001cc4:	00730023          	sb	t2,0(t1)
    80001cc8:	167d                	addi	a2,a2,-1
    80001cca:	0305                	addi	t1,t1,1
    80001ccc:	0585                	addi	a1,a1,1
    80001cce:	fa6d                	bnez	a2,80001cc0 <memcpy+0x4>
    80001cd0:	8082                	ret

0000000080001cd2 <memmove>:
    80001cd2:	c215                	beqz	a2,80001cf6 <memmove+0x24>
    80001cd4:	832a                	mv	t1,a0
    80001cd6:	4685                	li	a3,1
    80001cd8:	00b56763          	bltu	a0,a1,80001ce6 <memmove+0x14>
    80001cdc:	56fd                	li	a3,-1
    80001cde:	fff60713          	addi	a4,a2,-1
    80001ce2:	933a                	add	t1,t1,a4
    80001ce4:	95ba                	add	a1,a1,a4
    80001ce6:	00058383          	lb	t2,0(a1)
    80001cea:	00730023          	sb	t2,0(t1)
    80001cee:	167d                	addi	a2,a2,-1
    80001cf0:	9336                	add	t1,t1,a3
    80001cf2:	95b6                	add	a1,a1,a3
    80001cf4:	fa6d                	bnez	a2,80001ce6 <memmove+0x14>
    80001cf6:	8082                	ret

0000000080001cf8 <__malloc_lock>:
    80001cf8:	8082                	ret

0000000080001cfa <__malloc_unlock>:
    80001cfa:	8082                	ret

0000000080001cfc <_free_r>:
    80001cfc:	c1cd                	beqz	a1,80001d9e <_free_r+0xa2>
    80001cfe:	ff85b783          	ld	a5,-8(a1)
    80001d02:	1101                	addi	sp,sp,-32
    80001d04:	e822                	sd	s0,16(sp)
    80001d06:	ec06                	sd	ra,24(sp)
    80001d08:	ff858413          	addi	s0,a1,-8
    80001d0c:	0007d363          	bgez	a5,80001d12 <_free_r+0x16>
    80001d10:	943e                	add	s0,s0,a5
    80001d12:	e42a                	sd	a0,8(sp)
    80001d14:	fe5ff0ef          	jal	ra,80001cf8 <__malloc_lock>
    80001d18:	84018713          	addi	a4,gp,-1984 # 80002740 <__malloc_free_list>
    80001d1c:	631c                	ld	a5,0(a4)
    80001d1e:	6522                	ld	a0,8(sp)
    80001d20:	863a                	mv	a2,a4
    80001d22:	eb81                	bnez	a5,80001d32 <_free_r+0x36>
    80001d24:	00043423          	sd	zero,8(s0)
    80001d28:	e300                	sd	s0,0(a4)
    80001d2a:	6442                	ld	s0,16(sp)
    80001d2c:	60e2                	ld	ra,24(sp)
    80001d2e:	6105                	addi	sp,sp,32
    80001d30:	b7e9                	j	80001cfa <__malloc_unlock>
    80001d32:	00f47e63          	bgeu	s0,a5,80001d4e <_free_r+0x52>
    80001d36:	6014                	ld	a3,0(s0)
    80001d38:	00d40733          	add	a4,s0,a3
    80001d3c:	00e79663          	bne	a5,a4,80001d48 <_free_r+0x4c>
    80001d40:	6398                	ld	a4,0(a5)
    80001d42:	679c                	ld	a5,8(a5)
    80001d44:	9736                	add	a4,a4,a3
    80001d46:	e018                	sd	a4,0(s0)
    80001d48:	e41c                	sd	a5,8(s0)
    80001d4a:	e200                	sd	s0,0(a2)
    80001d4c:	bff9                	j	80001d2a <_free_r+0x2e>
    80001d4e:	873e                	mv	a4,a5
    80001d50:	679c                	ld	a5,8(a5)
    80001d52:	c399                	beqz	a5,80001d58 <_free_r+0x5c>
    80001d54:	fef47de3          	bgeu	s0,a5,80001d4e <_free_r+0x52>
    80001d58:	6314                	ld	a3,0(a4)
    80001d5a:	00d70633          	add	a2,a4,a3
    80001d5e:	00861f63          	bne	a2,s0,80001d7c <_free_r+0x80>
    80001d62:	6010                	ld	a2,0(s0)
    80001d64:	96b2                	add	a3,a3,a2
    80001d66:	e314                	sd	a3,0(a4)
    80001d68:	00d70633          	add	a2,a4,a3
    80001d6c:	fac79fe3          	bne	a5,a2,80001d2a <_free_r+0x2e>
    80001d70:	6390                	ld	a2,0(a5)
    80001d72:	679c                	ld	a5,8(a5)
    80001d74:	96b2                	add	a3,a3,a2
    80001d76:	e314                	sd	a3,0(a4)
    80001d78:	e71c                	sd	a5,8(a4)
    80001d7a:	bf45                	j	80001d2a <_free_r+0x2e>
    80001d7c:	00c47563          	bgeu	s0,a2,80001d86 <_free_r+0x8a>
    80001d80:	47b1                	li	a5,12
    80001d82:	c11c                	sw	a5,0(a0)
    80001d84:	b75d                	j	80001d2a <_free_r+0x2e>
    80001d86:	6010                	ld	a2,0(s0)
    80001d88:	00c406b3          	add	a3,s0,a2
    80001d8c:	00d79663          	bne	a5,a3,80001d98 <_free_r+0x9c>
    80001d90:	6394                	ld	a3,0(a5)
    80001d92:	679c                	ld	a5,8(a5)
    80001d94:	96b2                	add	a3,a3,a2
    80001d96:	e014                	sd	a3,0(s0)
    80001d98:	e41c                	sd	a5,8(s0)
    80001d9a:	e700                	sd	s0,8(a4)
    80001d9c:	b779                	j	80001d2a <_free_r+0x2e>
    80001d9e:	8082                	ret

0000000080001da0 <_realloc_r>:
    80001da0:	7179                	addi	sp,sp,-48
    80001da2:	f022                	sd	s0,32(sp)
    80001da4:	f406                	sd	ra,40(sp)
    80001da6:	ec26                	sd	s1,24(sp)
    80001da8:	e84a                	sd	s2,16(sp)
    80001daa:	e44e                	sd	s3,8(sp)
    80001dac:	8432                	mv	s0,a2
    80001dae:	e991                	bnez	a1,80001dc2 <_realloc_r+0x22>
    80001db0:	7402                	ld	s0,32(sp)
    80001db2:	70a2                	ld	ra,40(sp)
    80001db4:	64e2                	ld	s1,24(sp)
    80001db6:	6942                	ld	s2,16(sp)
    80001db8:	69a2                	ld	s3,8(sp)
    80001dba:	85b2                	mv	a1,a2
    80001dbc:	6145                	addi	sp,sp,48
    80001dbe:	de5fe06f          	j	80000ba2 <_malloc_r>
    80001dc2:	ee01                	bnez	a2,80001dda <_realloc_r+0x3a>
    80001dc4:	f39ff0ef          	jal	ra,80001cfc <_free_r>
    80001dc8:	4481                	li	s1,0
    80001dca:	70a2                	ld	ra,40(sp)
    80001dcc:	7402                	ld	s0,32(sp)
    80001dce:	6942                	ld	s2,16(sp)
    80001dd0:	69a2                	ld	s3,8(sp)
    80001dd2:	8526                	mv	a0,s1
    80001dd4:	64e2                	ld	s1,24(sp)
    80001dd6:	6145                	addi	sp,sp,48
    80001dd8:	8082                	ret
    80001dda:	892e                	mv	s2,a1
    80001ddc:	89aa                	mv	s3,a0
    80001dde:	1a2000ef          	jal	ra,80001f80 <_malloc_usable_size_r>
    80001de2:	84ca                	mv	s1,s2
    80001de4:	fe8573e3          	bgeu	a0,s0,80001dca <_realloc_r+0x2a>
    80001de8:	85a2                	mv	a1,s0
    80001dea:	854e                	mv	a0,s3
    80001dec:	db7fe0ef          	jal	ra,80000ba2 <_malloc_r>
    80001df0:	84aa                	mv	s1,a0
    80001df2:	dd61                	beqz	a0,80001dca <_realloc_r+0x2a>
    80001df4:	85ca                	mv	a1,s2
    80001df6:	8622                	mv	a2,s0
    80001df8:	ec5ff0ef          	jal	ra,80001cbc <memcpy>
    80001dfc:	85ca                	mv	a1,s2
    80001dfe:	854e                	mv	a0,s3
    80001e00:	efdff0ef          	jal	ra,80001cfc <_free_r>
    80001e04:	b7d9                	j	80001dca <_realloc_r+0x2a>

0000000080001e06 <_read_r>:
    80001e06:	1141                	addi	sp,sp,-16
    80001e08:	e022                	sd	s0,0(sp)
    80001e0a:	842a                	mv	s0,a0
    80001e0c:	852e                	mv	a0,a1
    80001e0e:	85b2                	mv	a1,a2
    80001e10:	8636                	mv	a2,a3
    80001e12:	a601a823          	sw	zero,-1424(gp) # 80002970 <errno>
    80001e16:	e406                	sd	ra,8(sp)
    80001e18:	1cc000ef          	jal	ra,80001fe4 <_read>
    80001e1c:	57fd                	li	a5,-1
    80001e1e:	00f51663          	bne	a0,a5,80001e2a <_read_r+0x24>
    80001e22:	a701a783          	lw	a5,-1424(gp) # 80002970 <errno>
    80001e26:	c391                	beqz	a5,80001e2a <_read_r+0x24>
    80001e28:	c01c                	sw	a5,0(s0)
    80001e2a:	60a2                	ld	ra,8(sp)
    80001e2c:	6402                	ld	s0,0(sp)
    80001e2e:	0141                	addi	sp,sp,16
    80001e30:	8082                	ret

0000000080001e32 <cleanup_glue>:
    80001e32:	1101                	addi	sp,sp,-32
    80001e34:	e822                	sd	s0,16(sp)
    80001e36:	842e                	mv	s0,a1
    80001e38:	618c                	ld	a1,0(a1)
    80001e3a:	e426                	sd	s1,8(sp)
    80001e3c:	ec06                	sd	ra,24(sp)
    80001e3e:	84aa                	mv	s1,a0
    80001e40:	c199                	beqz	a1,80001e46 <cleanup_glue+0x14>
    80001e42:	ff1ff0ef          	jal	ra,80001e32 <cleanup_glue>
    80001e46:	85a2                	mv	a1,s0
    80001e48:	6442                	ld	s0,16(sp)
    80001e4a:	60e2                	ld	ra,24(sp)
    80001e4c:	8526                	mv	a0,s1
    80001e4e:	64a2                	ld	s1,8(sp)
    80001e50:	6105                	addi	sp,sp,32
    80001e52:	b56d                	j	80001cfc <_free_r>

0000000080001e54 <_reclaim_reent>:
    80001e54:	00001797          	auipc	a5,0x1
    80001e58:	8ac7b783          	ld	a5,-1876(a5) # 80002700 <_impure_ptr>
    80001e5c:	0ca78863          	beq	a5,a0,80001f2c <_reclaim_reent+0xd8>
    80001e60:	613c                	ld	a5,64(a0)
    80001e62:	7179                	addi	sp,sp,-48
    80001e64:	f022                	sd	s0,32(sp)
    80001e66:	f406                	sd	ra,40(sp)
    80001e68:	ec26                	sd	s1,24(sp)
    80001e6a:	e84a                	sd	s2,16(sp)
    80001e6c:	e44e                	sd	s3,8(sp)
    80001e6e:	842a                	mv	s0,a0
    80001e70:	cb8d                	beqz	a5,80001ea2 <_reclaim_reent+0x4e>
    80001e72:	6f9c                	ld	a5,24(a5)
    80001e74:	c38d                	beqz	a5,80001e96 <_reclaim_reent+0x42>
    80001e76:	4481                	li	s1,0
    80001e78:	20000913          	li	s2,512
    80001e7c:	603c                	ld	a5,64(s0)
    80001e7e:	6f9c                	ld	a5,24(a5)
    80001e80:	97a6                	add	a5,a5,s1
    80001e82:	638c                	ld	a1,0(a5)
    80001e84:	e5d1                	bnez	a1,80001f10 <_reclaim_reent+0xbc>
    80001e86:	04a1                	addi	s1,s1,8
    80001e88:	ff249ae3          	bne	s1,s2,80001e7c <_reclaim_reent+0x28>
    80001e8c:	603c                	ld	a5,64(s0)
    80001e8e:	8522                	mv	a0,s0
    80001e90:	6f8c                	ld	a1,24(a5)
    80001e92:	e6bff0ef          	jal	ra,80001cfc <_free_r>
    80001e96:	603c                	ld	a5,64(s0)
    80001e98:	638c                	ld	a1,0(a5)
    80001e9a:	c581                	beqz	a1,80001ea2 <_reclaim_reent+0x4e>
    80001e9c:	8522                	mv	a0,s0
    80001e9e:	e5fff0ef          	jal	ra,80001cfc <_free_r>
    80001ea2:	740c                	ld	a1,40(s0)
    80001ea4:	c581                	beqz	a1,80001eac <_reclaim_reent+0x58>
    80001ea6:	8522                	mv	a0,s0
    80001ea8:	e55ff0ef          	jal	ra,80001cfc <_free_r>
    80001eac:	602c                	ld	a1,64(s0)
    80001eae:	c581                	beqz	a1,80001eb6 <_reclaim_reent+0x62>
    80001eb0:	8522                	mv	a0,s0
    80001eb2:	e4bff0ef          	jal	ra,80001cfc <_free_r>
    80001eb6:	702c                	ld	a1,96(s0)
    80001eb8:	c581                	beqz	a1,80001ec0 <_reclaim_reent+0x6c>
    80001eba:	8522                	mv	a0,s0
    80001ebc:	e41ff0ef          	jal	ra,80001cfc <_free_r>
    80001ec0:	742c                	ld	a1,104(s0)
    80001ec2:	c581                	beqz	a1,80001eca <_reclaim_reent+0x76>
    80001ec4:	8522                	mv	a0,s0
    80001ec6:	e37ff0ef          	jal	ra,80001cfc <_free_r>
    80001eca:	782c                	ld	a1,112(s0)
    80001ecc:	c581                	beqz	a1,80001ed4 <_reclaim_reent+0x80>
    80001ece:	8522                	mv	a0,s0
    80001ed0:	e2dff0ef          	jal	ra,80001cfc <_free_r>
    80001ed4:	744c                	ld	a1,168(s0)
    80001ed6:	c581                	beqz	a1,80001ede <_reclaim_reent+0x8a>
    80001ed8:	8522                	mv	a0,s0
    80001eda:	e23ff0ef          	jal	ra,80001cfc <_free_r>
    80001ede:	704c                	ld	a1,160(s0)
    80001ee0:	c581                	beqz	a1,80001ee8 <_reclaim_reent+0x94>
    80001ee2:	8522                	mv	a0,s0
    80001ee4:	e19ff0ef          	jal	ra,80001cfc <_free_r>
    80001ee8:	6c2c                	ld	a1,88(s0)
    80001eea:	c581                	beqz	a1,80001ef2 <_reclaim_reent+0x9e>
    80001eec:	8522                	mv	a0,s0
    80001eee:	e0fff0ef          	jal	ra,80001cfc <_free_r>
    80001ef2:	581c                	lw	a5,48(s0)
    80001ef4:	c78d                	beqz	a5,80001f1e <_reclaim_reent+0xca>
    80001ef6:	643c                	ld	a5,72(s0)
    80001ef8:	8522                	mv	a0,s0
    80001efa:	9782                	jalr	a5
    80001efc:	604c                	ld	a1,128(s0)
    80001efe:	c185                	beqz	a1,80001f1e <_reclaim_reent+0xca>
    80001f00:	8522                	mv	a0,s0
    80001f02:	7402                	ld	s0,32(sp)
    80001f04:	70a2                	ld	ra,40(sp)
    80001f06:	64e2                	ld	s1,24(sp)
    80001f08:	6942                	ld	s2,16(sp)
    80001f0a:	69a2                	ld	s3,8(sp)
    80001f0c:	6145                	addi	sp,sp,48
    80001f0e:	b715                	j	80001e32 <cleanup_glue>
    80001f10:	0005b983          	ld	s3,0(a1)
    80001f14:	8522                	mv	a0,s0
    80001f16:	de7ff0ef          	jal	ra,80001cfc <_free_r>
    80001f1a:	85ce                	mv	a1,s3
    80001f1c:	b7a5                	j	80001e84 <_reclaim_reent+0x30>
    80001f1e:	70a2                	ld	ra,40(sp)
    80001f20:	7402                	ld	s0,32(sp)
    80001f22:	64e2                	ld	s1,24(sp)
    80001f24:	6942                	ld	s2,16(sp)
    80001f26:	69a2                	ld	s3,8(sp)
    80001f28:	6145                	addi	sp,sp,48
    80001f2a:	8082                	ret
    80001f2c:	8082                	ret

0000000080001f2e <_fstat_r>:
    80001f2e:	1141                	addi	sp,sp,-16
    80001f30:	e022                	sd	s0,0(sp)
    80001f32:	842a                	mv	s0,a0
    80001f34:	852e                	mv	a0,a1
    80001f36:	85b2                	mv	a1,a2
    80001f38:	a601a823          	sw	zero,-1424(gp) # 80002970 <errno>
    80001f3c:	e406                	sd	ra,8(sp)
    80001f3e:	076000ef          	jal	ra,80001fb4 <_fstat>
    80001f42:	57fd                	li	a5,-1
    80001f44:	00f51663          	bne	a0,a5,80001f50 <_fstat_r+0x22>
    80001f48:	a701a783          	lw	a5,-1424(gp) # 80002970 <errno>
    80001f4c:	c391                	beqz	a5,80001f50 <_fstat_r+0x22>
    80001f4e:	c01c                	sw	a5,0(s0)
    80001f50:	60a2                	ld	ra,8(sp)
    80001f52:	6402                	ld	s0,0(sp)
    80001f54:	0141                	addi	sp,sp,16
    80001f56:	8082                	ret

0000000080001f58 <_isatty_r>:
    80001f58:	1141                	addi	sp,sp,-16
    80001f5a:	e022                	sd	s0,0(sp)
    80001f5c:	842a                	mv	s0,a0
    80001f5e:	852e                	mv	a0,a1
    80001f60:	a601a823          	sw	zero,-1424(gp) # 80002970 <errno>
    80001f64:	e406                	sd	ra,8(sp)
    80001f66:	062000ef          	jal	ra,80001fc8 <_isatty>
    80001f6a:	57fd                	li	a5,-1
    80001f6c:	00f51663          	bne	a0,a5,80001f78 <_isatty_r+0x20>
    80001f70:	a701a783          	lw	a5,-1424(gp) # 80002970 <errno>
    80001f74:	c391                	beqz	a5,80001f78 <_isatty_r+0x20>
    80001f76:	c01c                	sw	a5,0(s0)
    80001f78:	60a2                	ld	ra,8(sp)
    80001f7a:	6402                	ld	s0,0(sp)
    80001f7c:	0141                	addi	sp,sp,16
    80001f7e:	8082                	ret

0000000080001f80 <_malloc_usable_size_r>:
    80001f80:	ff85b703          	ld	a4,-8(a1)
    80001f84:	02071693          	slli	a3,a4,0x20
    80001f88:	0007079b          	sext.w	a5,a4
    80001f8c:	ff870513          	addi	a0,a4,-8 # 1ff8 <__stack_align+0x1fe8>
    80001f90:	0006d763          	bgez	a3,80001f9e <_malloc_usable_size_r+0x1e>
    80001f94:	95aa                	add	a1,a1,a0
    80001f96:	618c                	ld	a1,0(a1)
    80001f98:	ff878513          	addi	a0,a5,-8
    80001f9c:	952e                	add	a0,a0,a1
    80001f9e:	8082                	ret

0000000080001fa0 <_close>:
    80001fa0:	1141                	addi	sp,sp,-16
    80001fa2:	e406                	sd	ra,8(sp)
    80001fa4:	15c000ef          	jal	ra,80002100 <__errno>
    80001fa8:	60a2                	ld	ra,8(sp)
    80001faa:	47a5                	li	a5,9
    80001fac:	c11c                	sw	a5,0(a0)
    80001fae:	557d                	li	a0,-1
    80001fb0:	0141                	addi	sp,sp,16
    80001fb2:	8082                	ret

0000000080001fb4 <_fstat>:
    80001fb4:	1141                	addi	sp,sp,-16
    80001fb6:	e406                	sd	ra,8(sp)
    80001fb8:	148000ef          	jal	ra,80002100 <__errno>
    80001fbc:	60a2                	ld	ra,8(sp)
    80001fbe:	47a5                	li	a5,9
    80001fc0:	c11c                	sw	a5,0(a0)
    80001fc2:	557d                	li	a0,-1
    80001fc4:	0141                	addi	sp,sp,16
    80001fc6:	8082                	ret

0000000080001fc8 <_isatty>:
    80001fc8:	357d                	addiw	a0,a0,-1
    80001fca:	00253513          	sltiu	a0,a0,2
    80001fce:	8082                	ret

0000000080001fd0 <_lseek>:
    80001fd0:	1141                	addi	sp,sp,-16
    80001fd2:	e406                	sd	ra,8(sp)
    80001fd4:	12c000ef          	jal	ra,80002100 <__errno>
    80001fd8:	60a2                	ld	ra,8(sp)
    80001fda:	47a5                	li	a5,9
    80001fdc:	c11c                	sw	a5,0(a0)
    80001fde:	557d                	li	a0,-1
    80001fe0:	0141                	addi	sp,sp,16
    80001fe2:	8082                	ret

0000000080001fe4 <_read>:
    80001fe4:	1141                	addi	sp,sp,-16
    80001fe6:	e406                	sd	ra,8(sp)
    80001fe8:	118000ef          	jal	ra,80002100 <__errno>
    80001fec:	60a2                	ld	ra,8(sp)
    80001fee:	05800793          	li	a5,88
    80001ff2:	c11c                	sw	a5,0(a0)
    80001ff4:	557d                	li	a0,-1
    80001ff6:	0141                	addi	sp,sp,16
    80001ff8:	8082                	ret

0000000080001ffa <_sbrk>:
    80001ffa:	00000717          	auipc	a4,0x0
    80001ffe:	70e70713          	addi	a4,a4,1806 # 80002708 <curbrk>
    80002002:	631c                	ld	a5,0(a4)
    80002004:	a7818693          	addi	a3,gp,-1416 # 80002978 <_end>
    80002008:	953e                	add	a0,a0,a5
    8000200a:	00d56b63          	bltu	a0,a3,80002020 <_sbrk+0x26>
    8000200e:	00021697          	auipc	a3,0x21
    80002012:	ff268693          	addi	a3,a3,-14 # 80023000 <__heap_end>
    80002016:	00d57563          	bgeu	a0,a3,80002020 <_sbrk+0x26>
    8000201a:	e308                	sd	a0,0(a4)
    8000201c:	853e                	mv	a0,a5
    8000201e:	8082                	ret
    80002020:	1141                	addi	sp,sp,-16
    80002022:	e406                	sd	ra,8(sp)
    80002024:	0dc000ef          	jal	ra,80002100 <__errno>
    80002028:	60a2                	ld	ra,8(sp)
    8000202a:	47b1                	li	a5,12
    8000202c:	c11c                	sw	a5,0(a0)
    8000202e:	57fd                	li	a5,-1
    80002030:	853e                	mv	a0,a5
    80002032:	0141                	addi	sp,sp,16
    80002034:	8082                	ret

0000000080002036 <_write>:
    80002036:	04000693          	li	a3,64
    8000203a:	a0b9                	j	80002088 <htif_syscall>

000000008000203c <handle_trap>:
    8000203c:	1141                	addi	sp,sp,-16
    8000203e:	02159513          	slli	a0,a1,0x21
    80002042:	e406                	sd	ra,8(sp)
    80002044:	9105                	srli	a0,a0,0x21
    80002046:	0005d463          	bgez	a1,8000204e <handle_trap+0x12>
    8000204a:	40a0053b          	negw	a0,a0
    8000204e:	086000ef          	jal	ra,800020d4 <_exit>

0000000080002052 <__init_tls>:
    80002052:	1141                	addi	sp,sp,-16
    80002054:	00000613          	li	a2,0
    80002058:	00000597          	auipc	a1,0x0
    8000205c:	2c058593          	addi	a1,a1,704 # 80002318 <__tbss_end>
    80002060:	8512                	mv	a0,tp
    80002062:	e022                	sd	s0,0(sp)
    80002064:	e406                	sd	ra,8(sp)
    80002066:	8412                	mv	s0,tp
    80002068:	c55ff0ef          	jal	ra,80001cbc <memcpy>
    8000206c:	00000513          	li	a0,0
    80002070:	9522                	add	a0,a0,s0
    80002072:	6402                	ld	s0,0(sp)
    80002074:	60a2                	ld	ra,8(sp)
    80002076:	00000613          	li	a2,0
    8000207a:	4581                	li	a1,0
    8000207c:	0141                	addi	sp,sp,16
    8000207e:	b15fe06f          	j	80000b92 <memset>

0000000080002082 <__main>:
    80002082:	10500073          	wfi
    80002086:	bff5                	j	80002082 <__main>

0000000080002088 <htif_syscall>:
    80002088:	7139                	addi	sp,sp,-64
    8000208a:	e036                	sd	a3,0(sp)
    8000208c:	e42a                	sd	a0,8(sp)
    8000208e:	e82e                	sd	a1,16(sp)
    80002090:	57fd                	li	a5,-1
    80002092:	ec32                	sd	a2,24(sp)
    80002094:	83c1                	srli	a5,a5,0x10
    80002096:	860a                	mv	a2,sp
    80002098:	8e7d                	and	a2,a2,a5
    8000209a:	85018713          	addi	a4,gp,-1968 # 80002750 <htif_lock>
    8000209e:	56fd                	li	a3,-1
    800020a0:	431c                	lw	a5,0(a4)
    800020a2:	2781                	sext.w	a5,a5
    800020a4:	fff5                	bnez	a5,800020a0 <htif_syscall+0x18>
    800020a6:	0cd727af          	amoswap.w.aq	a5,a3,(a4)
    800020aa:	fbfd                	bnez	a5,800020a0 <htif_syscall+0x18>
    800020ac:	0110000f          	fence	w,w
    800020b0:	00000697          	auipc	a3,0x0
    800020b4:	59068693          	addi	a3,a3,1424 # 80002640 <tohost>
    800020b8:	e290                	sd	a2,0(a3)
    800020ba:	669c                	ld	a5,8(a3)
    800020bc:	dffd                	beqz	a5,800020ba <htif_syscall+0x32>
    800020be:	00000797          	auipc	a5,0x0
    800020c2:	5807b523          	sd	zero,1418(a5) # 80002648 <fromhost>
    800020c6:	0a07202f          	amoswap.w.rl	zero,zero,(a4)
    800020ca:	0220000f          	fence	r,r
    800020ce:	6502                	ld	a0,0(sp)
    800020d0:	6121                	addi	sp,sp,64
    800020d2:	8082                	ret

00000000800020d4 <_exit>:
    800020d4:	0015179b          	slliw	a5,a0,0x1
    800020d8:	0017e793          	ori	a5,a5,1
    800020dc:	2781                	sext.w	a5,a5
    800020de:	07c2                	slli	a5,a5,0x10
    800020e0:	83c1                	srli	a5,a5,0x10
    800020e2:	00000717          	auipc	a4,0x0
    800020e6:	55e70713          	addi	a4,a4,1374 # 80002640 <tohost>
    800020ea:	00000697          	auipc	a3,0x0
    800020ee:	5406bf23          	sd	zero,1374(a3) # 80002648 <fromhost>
    800020f2:	e31c                	sd	a5,0(a4)
    800020f4:	bfdd                	j	800020ea <_exit+0x16>

00000000800020f6 <atexit>:
    800020f6:	85aa                	mv	a1,a0
    800020f8:	4681                	li	a3,0
    800020fa:	4601                	li	a2,0
    800020fc:	4501                	li	a0,0
    800020fe:	a8e9                	j	800021d8 <__register_exitproc>

0000000080002100 <__errno>:
    80002100:	00000517          	auipc	a0,0x0
    80002104:	60053503          	ld	a0,1536(a0) # 80002700 <_impure_ptr>
    80002108:	8082                	ret

000000008000210a <exit>:
    8000210a:	1141                	addi	sp,sp,-16
    8000210c:	e022                	sd	s0,0(sp)
    8000210e:	e406                	sd	ra,8(sp)
    80002110:	00000797          	auipc	a5,0x0
    80002114:	14278793          	addi	a5,a5,322 # 80002252 <__call_exitprocs>
    80002118:	842a                	mv	s0,a0
    8000211a:	c781                	beqz	a5,80002122 <exit+0x18>
    8000211c:	4581                	li	a1,0
    8000211e:	134000ef          	jal	ra,80002252 <__call_exitprocs>
    80002122:	00000517          	auipc	a0,0x0
    80002126:	4b653503          	ld	a0,1206(a0) # 800025d8 <_global_impure_ptr>
    8000212a:	653c                	ld	a5,72(a0)
    8000212c:	c391                	beqz	a5,80002130 <exit+0x26>
    8000212e:	9782                	jalr	a5
    80002130:	8522                	mv	a0,s0
    80002132:	fa3ff0ef          	jal	ra,800020d4 <_exit>

0000000080002136 <__libc_fini_array>:
    80002136:	1101                	addi	sp,sp,-32
    80002138:	00000797          	auipc	a5,0x0
    8000213c:	4d078793          	addi	a5,a5,1232 # 80002608 <__fini_array_end>
    80002140:	e822                	sd	s0,16(sp)
    80002142:	00000417          	auipc	s0,0x0
    80002146:	4c640413          	addi	s0,s0,1222 # 80002608 <__fini_array_end>
    8000214a:	8c1d                	sub	s0,s0,a5
    8000214c:	e426                	sd	s1,8(sp)
    8000214e:	ec06                	sd	ra,24(sp)
    80002150:	840d                	srai	s0,s0,0x3
    80002152:	84be                	mv	s1,a5
    80002154:	e411                	bnez	s0,80002160 <__libc_fini_array+0x2a>
    80002156:	60e2                	ld	ra,24(sp)
    80002158:	6442                	ld	s0,16(sp)
    8000215a:	64a2                	ld	s1,8(sp)
    8000215c:	6105                	addi	sp,sp,32
    8000215e:	8082                	ret
    80002160:	147d                	addi	s0,s0,-1
    80002162:	00341793          	slli	a5,s0,0x3
    80002166:	97a6                	add	a5,a5,s1
    80002168:	639c                	ld	a5,0(a5)
    8000216a:	9782                	jalr	a5
    8000216c:	b7e5                	j	80002154 <__libc_fini_array+0x1e>

000000008000216e <__libc_init_array>:
    8000216e:	1101                	addi	sp,sp,-32
    80002170:	00000797          	auipc	a5,0x0
    80002174:	49878793          	addi	a5,a5,1176 # 80002608 <__fini_array_end>
    80002178:	e822                	sd	s0,16(sp)
    8000217a:	00000417          	auipc	s0,0x0
    8000217e:	48e40413          	addi	s0,s0,1166 # 80002608 <__fini_array_end>
    80002182:	8c1d                	sub	s0,s0,a5
    80002184:	e426                	sd	s1,8(sp)
    80002186:	e04a                	sd	s2,0(sp)
    80002188:	ec06                	sd	ra,24(sp)
    8000218a:	840d                	srai	s0,s0,0x3
    8000218c:	4481                	li	s1,0
    8000218e:	893e                	mv	s2,a5
    80002190:	02849663          	bne	s1,s0,800021bc <__libc_init_array+0x4e>
    80002194:	00000797          	auipc	a5,0x0
    80002198:	47478793          	addi	a5,a5,1140 # 80002608 <__fini_array_end>
    8000219c:	00000417          	auipc	s0,0x0
    800021a0:	46c40413          	addi	s0,s0,1132 # 80002608 <__fini_array_end>
    800021a4:	8c1d                	sub	s0,s0,a5
    800021a6:	840d                	srai	s0,s0,0x3
    800021a8:	4481                	li	s1,0
    800021aa:	893e                	mv	s2,a5
    800021ac:	00849f63          	bne	s1,s0,800021ca <__libc_init_array+0x5c>
    800021b0:	60e2                	ld	ra,24(sp)
    800021b2:	6442                	ld	s0,16(sp)
    800021b4:	64a2                	ld	s1,8(sp)
    800021b6:	6902                	ld	s2,0(sp)
    800021b8:	6105                	addi	sp,sp,32
    800021ba:	8082                	ret
    800021bc:	00349793          	slli	a5,s1,0x3
    800021c0:	97ca                	add	a5,a5,s2
    800021c2:	639c                	ld	a5,0(a5)
    800021c4:	0485                	addi	s1,s1,1
    800021c6:	9782                	jalr	a5
    800021c8:	b7e1                	j	80002190 <__libc_init_array+0x22>
    800021ca:	00349793          	slli	a5,s1,0x3
    800021ce:	97ca                	add	a5,a5,s2
    800021d0:	639c                	ld	a5,0(a5)
    800021d2:	0485                	addi	s1,s1,1
    800021d4:	9782                	jalr	a5
    800021d6:	bfd9                	j	800021ac <__libc_init_array+0x3e>

00000000800021d8 <__register_exitproc>:
    800021d8:	88aa                	mv	a7,a0
    800021da:	86018513          	addi	a0,gp,-1952 # 80002760 <_global_atexit>
    800021de:	611c                	ld	a5,0(a0)
    800021e0:	ef91                	bnez	a5,800021fc <__register_exitproc+0x24>
    800021e2:	95818713          	addi	a4,gp,-1704 # 80002858 <_global_atexit0>
    800021e6:	e118                	sd	a4,0(a0)
    800021e8:	00000537          	lui	a0,0x0
    800021ec:	00050513          	mv	a0,a0
    800021f0:	87ba                	mv	a5,a4
    800021f2:	c509                	beqz	a0,800021fc <__register_exitproc+0x24>
    800021f4:	611c                	ld	a5,0(a0)
    800021f6:	10f73823          	sd	a5,272(a4)
    800021fa:	87ba                	mv	a5,a4
    800021fc:	4798                	lw	a4,8(a5)
    800021fe:	487d                	li	a6,31
    80002200:	557d                	li	a0,-1
    80002202:	04e84763          	blt	a6,a4,80002250 <__register_exitproc+0x78>
    80002206:	02088d63          	beqz	a7,80002240 <__register_exitproc+0x68>
    8000220a:	1107b803          	ld	a6,272(a5)
    8000220e:	04080163          	beqz	a6,80002250 <__register_exitproc+0x78>
    80002212:	00371513          	slli	a0,a4,0x3
    80002216:	9542                	add	a0,a0,a6
    80002218:	e110                	sd	a2,0(a0)
    8000221a:	20082303          	lw	t1,512(a6)
    8000221e:	4605                	li	a2,1
    80002220:	00e6163b          	sllw	a2,a2,a4
    80002224:	00c36333          	or	t1,t1,a2
    80002228:	20682023          	sw	t1,512(a6)
    8000222c:	10d53023          	sd	a3,256(a0) # 100 <__stack_align+0xf0>
    80002230:	4689                	li	a3,2
    80002232:	00d89763          	bne	a7,a3,80002240 <__register_exitproc+0x68>
    80002236:	20482683          	lw	a3,516(a6)
    8000223a:	8e55                	or	a2,a2,a3
    8000223c:	20c82223          	sw	a2,516(a6)
    80002240:	0017069b          	addiw	a3,a4,1
    80002244:	0709                	addi	a4,a4,2
    80002246:	070e                	slli	a4,a4,0x3
    80002248:	c794                	sw	a3,8(a5)
    8000224a:	97ba                	add	a5,a5,a4
    8000224c:	e38c                	sd	a1,0(a5)
    8000224e:	4501                	li	a0,0
    80002250:	8082                	ret

0000000080002252 <__call_exitprocs>:
    80002252:	715d                	addi	sp,sp,-80
    80002254:	f44e                	sd	s3,40(sp)
    80002256:	f052                	sd	s4,32(sp)
    80002258:	ec56                	sd	s5,24(sp)
    8000225a:	e85a                	sd	s6,16(sp)
    8000225c:	e486                	sd	ra,72(sp)
    8000225e:	e0a2                	sd	s0,64(sp)
    80002260:	fc26                	sd	s1,56(sp)
    80002262:	f84a                	sd	s2,48(sp)
    80002264:	e45e                	sd	s7,8(sp)
    80002266:	8a2a                	mv	s4,a0
    80002268:	89ae                	mv	s3,a1
    8000226a:	86018a93          	addi	s5,gp,-1952 # 80002760 <_global_atexit>
    8000226e:	4b05                	li	s6,1
    80002270:	000ab403          	ld	s0,0(s5)
    80002274:	c819                	beqz	s0,8000228a <__call_exitprocs+0x38>
    80002276:	4404                	lw	s1,8(s0)
    80002278:	11043903          	ld	s2,272(s0)
    8000227c:	34fd                	addiw	s1,s1,-1
    8000227e:	02049713          	slli	a4,s1,0x20
    80002282:	0004879b          	sext.w	a5,s1
    80002286:	00075d63          	bgez	a4,800022a0 <__call_exitprocs+0x4e>
    8000228a:	60a6                	ld	ra,72(sp)
    8000228c:	6406                	ld	s0,64(sp)
    8000228e:	74e2                	ld	s1,56(sp)
    80002290:	7942                	ld	s2,48(sp)
    80002292:	79a2                	ld	s3,40(sp)
    80002294:	7a02                	ld	s4,32(sp)
    80002296:	6ae2                	ld	s5,24(sp)
    80002298:	6b42                	ld	s6,16(sp)
    8000229a:	6ba2                	ld	s7,8(sp)
    8000229c:	6161                	addi	sp,sp,80
    8000229e:	8082                	ret
    800022a0:	00098d63          	beqz	s3,800022ba <__call_exitprocs+0x68>
    800022a4:	00091463          	bnez	s2,800022ac <__call_exitprocs+0x5a>
    800022a8:	14fd                	addi	s1,s1,-1
    800022aa:	bfd1                	j	8000227e <__call_exitprocs+0x2c>
    800022ac:	00349713          	slli	a4,s1,0x3
    800022b0:	974a                	add	a4,a4,s2
    800022b2:	10073703          	ld	a4,256(a4)
    800022b6:	ff3719e3          	bne	a4,s3,800022a8 <__call_exitprocs+0x56>
    800022ba:	4418                	lw	a4,8(s0)
    800022bc:	00349613          	slli	a2,s1,0x3
    800022c0:	00c405b3          	add	a1,s0,a2
    800022c4:	377d                	addiw	a4,a4,-1
    800022c6:	6994                	ld	a3,16(a1)
    800022c8:	02f71863          	bne	a4,a5,800022f8 <__call_exitprocs+0xa6>
    800022cc:	c41c                	sw	a5,8(s0)
    800022ce:	dee9                	beqz	a3,800022a8 <__call_exitprocs+0x56>
    800022d0:	00842b83          	lw	s7,8(s0)
    800022d4:	00090963          	beqz	s2,800022e6 <__call_exitprocs+0x94>
    800022d8:	20092703          	lw	a4,512(s2)
    800022dc:	00fb17bb          	sllw	a5,s6,a5
    800022e0:	8f7d                	and	a4,a4,a5
    800022e2:	2701                	sext.w	a4,a4
    800022e4:	ef09                	bnez	a4,800022fe <__call_exitprocs+0xac>
    800022e6:	9682                	jalr	a3
    800022e8:	4418                	lw	a4,8(s0)
    800022ea:	000ab783          	ld	a5,0(s5)
    800022ee:	f97711e3          	bne	a4,s7,80002270 <__call_exitprocs+0x1e>
    800022f2:	faf40be3          	beq	s0,a5,800022a8 <__call_exitprocs+0x56>
    800022f6:	bfad                	j	80002270 <__call_exitprocs+0x1e>
    800022f8:	0005b823          	sd	zero,16(a1)
    800022fc:	bfc9                	j	800022ce <__call_exitprocs+0x7c>
    800022fe:	20492703          	lw	a4,516(s2)
    80002302:	964a                	add	a2,a2,s2
    80002304:	620c                	ld	a1,0(a2)
    80002306:	8ff9                	and	a5,a5,a4
    80002308:	2781                	sext.w	a5,a5
    8000230a:	e781                	bnez	a5,80002312 <__call_exitprocs+0xc0>
    8000230c:	8552                	mv	a0,s4
    8000230e:	9682                	jalr	a3
    80002310:	bfe1                	j	800022e8 <__call_exitprocs+0x96>
    80002312:	852e                	mv	a0,a1
    80002314:	9682                	jalr	a3
    80002316:	bfc9                	j	800022e8 <__call_exitprocs+0x96>

Disassembly of section .rodata:

0000000080002318 <__tbss_end>:
    80002318:	2d2d                	addiw	s10,s10,11
    8000231a:	2d2d                	addiw	s10,s10,11
    8000231c:	722d                	lui	tp,0xfffeb
    8000231e:	6d61                	lui	s10,0x18
    80002320:	615f 6464 5b72      	0x5b726464615f
    80002326:	6425                	lui	s0,0x9
    80002328:	3a5d                	addiw	s4,s4,-9
    8000232a:	7830                	ld	a2,112(s0)
    8000232c:	7825                	lui	a6,0xfffe9
    8000232e:	0a20                	addi	s0,sp,280
	...
    80002338:	6164                	ld	s1,192(a0)
    8000233a:	6174                	ld	a3,192(a0)
    8000233c:	705f 7274 203a      	0x203a7274705f
    80002342:	7025                	c.lui	zero,0xfffe9
    80002344:	000a                	c.slli	zero,0x2
    80002346:	0000                	unimp
    80002348:	2d2d                	addiw	s10,s10,11
    8000234a:	2d2d                	addiw	s10,s10,11
    8000234c:	722d                	lui	tp,0xfffeb
    8000234e:	6d61                	lui	s10,0x18
    80002350:	615f 6464 5b72      	0x5b726464615f
    80002356:	6425                	lui	s0,0x9
    80002358:	3a5d                	addiw	s4,s4,-9
    8000235a:	2520                	fld	fs0,72(a0)
    8000235c:	0a70                	addi	a2,sp,284
    8000235e:	0000                	unimp
    80002360:	7264                	ld	s1,224(a2)
    80002362:	6d61                	lui	s10,0x18
    80002364:	6d5f 6c61 6f6c      	0x6f6c6c616d5f
    8000236a:	69732063          	0x69732063
    8000236e:	657a                	ld	a0,408(sp)
    80002370:	7720                	ld	s0,104(a4)
    80002372:	6f72                	ld	t5,280(sp)
    80002374:	676e                	ld	a4,216(sp)
    80002376:	2520                	fld	fs0,72(a0)
    80002378:	0a64                	addi	s1,sp,284
    8000237a:	0000                	unimp
    8000237c:	0000                	unimp
    8000237e:	0000                	unimp
    80002380:	6f70                	ld	a2,216(a4)
    80002382:	6c6c                	ld	a1,216(s0)
    80002384:	725f 6765 6e5f      	0x6e5f6765725f
    8000238a:	6d75                	lui	s10,0x1d
    8000238c:	303d                	0x303d
    8000238e:	2578                	fld	fa4,200(a0)
    80002390:	2c78                	fld	fa4,216(s0)
    80002392:	6620                	ld	s0,72(a2)
    80002394:	6569                	lui	a0,0x1a
    80002396:	646c                	ld	a1,200(s0)
    80002398:	3d20                	fld	fs0,120(a0)
    8000239a:	3020                	fld	fs0,96(s0)
    8000239c:	2578                	fld	fa4,200(a0)
    8000239e:	2c78                	fld	fa4,216(s0)
    800023a0:	6520                	ld	s0,72(a0)
    800023a2:	7078                	ld	a4,224(s0)
    800023a4:	6365                	lui	t1,0x19
    800023a6:	5f74                	lw	a3,124(a4)
    800023a8:	6176                	ld	sp,344(sp)
    800023aa:	756c                	ld	a1,232(a0)
    800023ac:	3d65                	addiw	s10,s10,-7
    800023ae:	7830                	ld	a2,112(s0)
    800023b0:	7825                	lui	a6,0xfffe9
    800023b2:	000a                	c.slli	zero,0x2
    800023b4:	0000                	unimp
    800023b6:	0000                	unimp
    800023b8:	6e69                	lui	t3,0x1a
    800023ba:	7469                	lui	s0,0xffffa
    800023bc:	765f 6c61 6575      	0x65756c61765f
    800023c2:	253a                	fld	fa0,392(sp)
    800023c4:	2070                	fld	fa2,192(s0)
    800023c6:	6f20                	ld	s0,88(a4)
    800023c8:	7475                	lui	s0,0xffffd
    800023ca:	765f 6c61 6575      	0x65756c61765f
    800023d0:	253a                	fld	fa0,392(sp)
    800023d2:	0a70                	addi	a2,sp,284
    800023d4:	0000                	unimp
    800023d6:	0000                	unimp
    800023d8:	7830                	ld	a2,112(s0)
    800023da:	3025                	0x3025
    800023dc:	7838                	ld	a4,112(s0)
    800023de:	0a2c                	addi	a1,sp,280
	...
    800023e8:	7830                	ld	a2,112(s0)
    800023ea:	3025                	0x3025
    800023ec:	7838                	ld	a4,112(s0)
    800023ee:	002c                	addi	a1,sp,8
    800023f0:	6176                	ld	sp,344(sp)
    800023f2:	756c                	ld	a1,232(a0)
    800023f4:	5b65                	li	s6,-7
    800023f6:	6425                	lui	s0,0x9
    800023f8:	3d5d                	addiw	s10,s10,-9
    800023fa:	7830                	ld	a2,112(s0)
    800023fc:	7825                	lui	a6,0xfffe9
    800023fe:	000a                	c.slli	zero,0x2
    80002400:	3d3d                	addiw	s10,s10,-17
    80002402:	3d3d                	addiw	s10,s10,-17
    80002404:	6420                	ld	s0,72(s0)
    80002406:	7461                	lui	s0,0xffff8
    80002408:	2061                	0x2061
    8000240a:	706d6f63          	bltu	s10,t1,80002b28 <_end+0x1b0>
    8000240e:	7261                	lui	tp,0xffff8
    80002410:	2065                	0x2065
    80002412:	7076                	0x7076
    80002414:	6620                	ld	s0,72(a2)
    80002416:	6961                	lui	s2,0x18
    80002418:	656c                	ld	a1,200(a0)
    8000241a:	2164                	fld	fs1,192(a0)
    8000241c:	3d3d                	addiw	s10,s10,-17
    8000241e:	3d3d                	addiw	s10,s10,-17
    80002420:	0a20                	addi	s0,sp,280
    80002422:	0000                	unimp
    80002424:	0000                	unimp
    80002426:	0000                	unimp
    80002428:	3d3d                	addiw	s10,s10,-17
    8000242a:	3d3d                	addiw	s10,s10,-17
    8000242c:	6420                	ld	s0,72(s0)
    8000242e:	7461                	lui	s0,0xffff8
    80002430:	2061                	0x2061
    80002432:	706d6f63          	bltu	s10,t1,80002b50 <_end+0x1d8>
    80002436:	7261                	lui	tp,0xffff8
    80002438:	2065                	0x2065
    8000243a:	7076                	0x7076
    8000243c:	7220                	ld	s0,96(a2)
    8000243e:	6769                	lui	a4,0x1a
    80002440:	7468                	ld	a0,232(s0)
    80002442:	3d21                	addiw	s10,s10,-24
    80002444:	3d3d                	addiw	s10,s10,-17
    80002446:	203d                	0x203d
    80002448:	000a                	c.slli	zero,0x2
    8000244a:	0000                	unimp
    8000244c:	0000                	unimp
    8000244e:	0000                	unimp
    80002450:	7061                	c.lui	zero,0xffff8
    80002452:	5f65                	li	t5,-7
    80002454:	7470                	ld	a2,232(s0)
    80002456:	3a72                	fld	fs4,312(sp)
    80002458:	2520                	fld	fs0,72(a0)
    8000245a:	2c70                	fld	fa2,216(s0)
    8000245c:	6172                	ld	sp,280(sp)
    8000245e:	5f6d                	li	t5,-5
    80002460:	7470                	ld	a2,232(s0)
    80002462:	3a72                	fld	fs4,312(sp)
    80002464:	2520                	fld	fs0,72(a0)
    80002466:	0a70                	addi	a2,sp,284
	...

0000000080002470 <__sf_fake_stderr>:
	...

00000000800024a8 <__sf_fake_stdin>:
	...

00000000800024e0 <__sf_fake_stdout>:
	...
    80002518:	2b302d23          	sw	s3,698(zero) # 2ba <__stack_align+0x2aa>
    8000251c:	0020                	addi	s0,sp,8
    8000251e:	0000                	unimp
    80002520:	6c68                	ld	a0,216(s0)
    80002522:	004c                	addi	a1,sp,4
    80002524:	0000                	unimp
    80002526:	0000                	unimp
    80002528:	6665                	lui	a2,0x19
    8000252a:	47464567          	0x47464567
    8000252e:	0000                	unimp
    80002530:	3130                	fld	fa2,96(a0)
    80002532:	3332                	fld	ft6,296(sp)
    80002534:	3534                	fld	fa3,104(a0)
    80002536:	3736                	fld	fa4,360(sp)
    80002538:	3938                	fld	fa4,112(a0)
    8000253a:	4241                	li	tp,16
    8000253c:	46454443          	fmadd.q	fs0,fa0,ft4,fs0,rmm
	...
    80002548:	3130                	fld	fa2,96(a0)
    8000254a:	3332                	fld	ft6,296(sp)
    8000254c:	3534                	fld	fa3,104(a0)
    8000254e:	3736                	fld	fa4,360(sp)
    80002550:	3938                	fld	fa4,112(a0)
    80002552:	6261                	lui	tp,0x18
    80002554:	66656463          	bltu	a0,t1,80002bbc <_end+0x244>
	...
    80002560:	ec18                	sd	a4,24(s0)
    80002562:	ffff                	0xffff
    80002564:	ec2e                	sd	a1,24(sp)
    80002566:	ffff                	0xffff
    80002568:	ebee                	sd	s11,464(sp)
    8000256a:	ffff                	0xffff
    8000256c:	ebee                	sd	s11,464(sp)
    8000256e:	ffff                	0xffff
    80002570:	ebee                	sd	s11,464(sp)
    80002572:	ffff                	0xffff
    80002574:	ebee                	sd	s11,464(sp)
    80002576:	ffff                	0xffff
    80002578:	ec2e                	sd	a1,24(sp)
    8000257a:	ffff                	0xffff
    8000257c:	ebee                	sd	s11,464(sp)
    8000257e:	ffff                	0xffff
    80002580:	ebee                	sd	s11,464(sp)
    80002582:	ffff                	0xffff
    80002584:	ebee                	sd	s11,464(sp)
    80002586:	ffff                	0xffff
    80002588:	ebee                	sd	s11,464(sp)
    8000258a:	ffff                	0xffff
    8000258c:	ed9a                	sd	t1,216(sp)
    8000258e:	ffff                	0xffff
    80002590:	ec6e                	sd	s11,24(sp)
    80002592:	ffff                	0xffff
    80002594:	ed64                	sd	s1,216(a0)
    80002596:	ffff                	0xffff
    80002598:	ebee                	sd	s11,464(sp)
    8000259a:	ffff                	0xffff
    8000259c:	ebee                	sd	s11,464(sp)
    8000259e:	ffff                	0xffff
    800025a0:	edce                	sd	s3,216(sp)
    800025a2:	ffff                	0xffff
    800025a4:	ebee                	sd	s11,464(sp)
    800025a6:	ffff                	0xffff
    800025a8:	ec6e                	sd	s11,24(sp)
    800025aa:	ffff                	0xffff
    800025ac:	ebee                	sd	s11,464(sp)
    800025ae:	ffff                	0xffff
    800025b0:	ebee                	sd	s11,464(sp)
    800025b2:	ffff                	0xffff
    800025b4:	ed6c                	sd	a1,216(a0)
    800025b6:	ffff                	0xffff

00000000800025b8 <argv>:
    800025b8:	25c8                	fld	fa0,136(a1)
    800025ba:	8000                	0x8000
	...

00000000800025c8 <name>:
    800025c8:	70696863          	bltu	s2,t1,80002cd8 <_end+0x360>
    800025cc:	6179                	addi	sp,sp,464
    800025ce:	6472                	ld	s0,280(sp)
	...

Disassembly of section .sdata2._global_impure_ptr:

00000000800025d8 <_global_impure_ptr>:
    800025d8:	2650                	fld	fa2,136(a2)
    800025da:	8000                	0x8000
    800025dc:	0000                	unimp
	...

Disassembly of section .eh_frame:

00000000800025e0 <.eh_frame>:
    800025e0:	0010                	0x10
    800025e2:	0000                	unimp
    800025e4:	0000                	unimp
    800025e6:	0000                	unimp
    800025e8:	7a01                	lui	s4,0xfffe0
    800025ea:	0052                	c.slli	zero,0x14
    800025ec:	7c01                	lui	s8,0xfffe0
    800025ee:	0101                	addi	sp,sp,0
    800025f0:	00020d1b          	sext.w	s10,tp
    800025f4:	0010                	0x10
    800025f6:	0000                	unimp
    800025f8:	0018                	0x18
    800025fa:	0000                	unimp
    800025fc:	da04                	sw	s1,48(a2)
    800025fe:	ffff                	0xffff
    80002600:	0140                	addi	s0,sp,132
    80002602:	0000                	unimp
    80002604:	0000                	unimp
	...

Disassembly of section .htif:

0000000080002640 <tohost>:
	...

0000000080002648 <fromhost>:
	...

Disassembly of section .data.impure_data:

0000000080002650 <impure_data>:
	...
    80002658:	24a8                	fld	fa0,72(s1)
    8000265a:	8000                	0x8000
    8000265c:	0000                	unimp
    8000265e:	0000                	unimp
    80002660:	24e0                	fld	fs0,200(s1)
    80002662:	8000                	0x8000
    80002664:	0000                	unimp
    80002666:	0000                	unimp
    80002668:	2470                	fld	fa2,200(s0)
    8000266a:	8000                	0x8000
	...

Disassembly of section .sdata:

0000000080002700 <_impure_ptr>:
    80002700:	2650                	fld	fa2,136(a2)
    80002702:	8000                	0x8000
    80002704:	0000                	unimp
	...

0000000080002708 <curbrk>:
    80002708:	2978                	fld	fa4,208(a0)
    8000270a:	8000                	0x8000
    8000270c:	0000                	unimp
	...

0000000080002710 <environ>:
    80002710:	2758                	fld	fa4,136(a4)
    80002712:	8000                	0x8000
    80002714:	0000                	unimp
	...

0000000080002718 <__atexit_dummy>:
    80002718:	2252                	fld	ft4,272(sp)
    8000271a:	8000                	0x8000
    8000271c:	0000                	unimp
	...

0000000080002720 <right_value.1514>:
    80002720:	7f7f                	0x7f7f
    80002722:	7f7f                	0x7f7f
    80002724:	7f7f                	0x7f7f
    80002726:	7f7f                	0x7f7f

Disassembly of section .bss:

0000000080002728 <size_start.2569>:
	...

0000000080002730 <ram_ptr>:
	...

0000000080002738 <ape_ptr>:
	...

0000000080002740 <__malloc_free_list>:
	...

0000000080002748 <__malloc_sbrk_start>:
	...

0000000080002750 <htif_lock>:
	...

0000000080002758 <initial_env>:
	...

0000000080002760 <_global_atexit>:
	...

0000000080002768 <ram_addr>:
	...

0000000080002828 <mem_ptr>:
	...

0000000080002850 <__boot_sync>:
	...

0000000080002858 <_global_atexit0>:
	...

0000000080002970 <errno>:
    80002970:	0000                	unimp
	...

Disassembly of section .debug_info:

0000000000000000 <.debug_info>:
       0:	09cc                	addi	a1,sp,212
       2:	0000                	unimp
       4:	0004                	0x4
       6:	0000                	unimp
       8:	0000                	unimp
       a:	0108                	addi	a0,sp,128
       c:	020d                	addi	tp,tp,3
       e:	0000                	unimp
      10:	a50c                	fsd	fa1,8(a0)
      12:	0001                	nop
      14:	b900                	fsd	fs0,48(a0)
      16:	0004                	0x4
      18:	a000                	fsd	fs0,0(s0)
      1a:	001f 0080 0000      	0x80001f
      20:	1400                	addi	s0,sp,544
	...
      2a:	0000                	unimp
      2c:	0200                	addi	s0,sp,256
      2e:	0504                	addi	s1,sp,640
      30:	6e69                	lui	t3,0x1a
      32:	0074                	addi	a3,sp,12
      34:	a4050803          	lb	a6,-1472(a0) # 19a40 <__stack_size+0x11a40>
      38:	0000                	unimp
      3a:	0300                	addi	s0,sp,384
      3c:	0708                	addi	a0,sp,896
      3e:	004a                	c.slli	zero,0x12
      40:	0000                	unimp
      42:	9f050803          	lb	a6,-1552(a0)
      46:	0000                	unimp
      48:	0300                	addi	s0,sp,384
      4a:	0410                	addi	a2,sp,512
      4c:	029a                	slli	t0,t0,0x6
      4e:	0000                	unimp
      50:	fe04                	sd	s1,56(a2)
      52:	0001                	nop
      54:	0200                	addi	s0,sp,256
      56:	015e                	slli	sp,sp,0x17
      58:	00005d17          	auipc	s10,0x5
      5c:	0300                	addi	s0,sp,384
      5e:	0704                	addi	s1,sp,896
      60:	0000004f          	fnmadd.s	ft0,ft0,ft0,ft0,rne
      64:	f2060103          	lb	sp,-224(a2) # 18f20 <__stack_size+0x10f20>
      68:	0002                	c.slli64	zero
      6a:	0300                	addi	s0,sp,384
      6c:	0801                	addi	a6,a6,0
      6e:	02f0                	addi	a2,sp,332
      70:	0000                	unimp
      72:	0c050203          	lb	tp,192(a0)
      76:	03000003          	lb	zero,48(zero) # 30 <__stack_align+0x20>
      7a:	0702                	c.slli64	a4
      7c:	000001bb          	addw	gp,zero,zero
      80:	c905                	beqz	a0,b0 <__stack_align+0xa0>
      82:	0002                	c.slli64	zero
      84:	0300                	addi	s0,sp,384
      86:	1969                	addi	s2,s2,-6
      88:	0000003b          	addw	zero,zero,zero
      8c:	f605                	bnez	a2,ffffffffffffffb4 <ali3_data.1515+0xffffffff7ffafdb4>
      8e:	0004                	0x4
      90:	0400                	addi	s0,sp,512
      92:	0e2e                	slli	t3,t3,0xb
      94:	0034                	addi	a3,sp,8
      96:	0000                	unimp
      98:	d905                	beqz	a0,ffffffffffffffc8 <ali3_data.1515+0xffffffff7ffafdc8>
      9a:	04000003          	lb	zero,64(zero) # 40 <__stack_align+0x30>
      9e:	0e74                	addi	a3,sp,796
      a0:	0034                	addi	a3,sp,8
      a2:	0000                	unimp
      a4:	5505                	li	a0,-31
      a6:	0004                	0x4
      a8:	0400                	addi	s0,sp,512
      aa:	00341793          	slli	a5,s0,0x3
      ae:	0000                	unimp
      b0:	0406                	slli	s0,s0,0x1
      b2:	a504                	fsd	fs1,8(a0)
      b4:	0000d203          	lhu	tp,0(ra) # 80000fa6 <_vfiprintf_r+0x27e>
      b8:	0700                	addi	s0,sp,896
      ba:	01f8                	addi	a4,sp,204
      bc:	0000                	unimp
      be:	a704                	fsd	fs1,8(a4)
      c0:	500c                	lw	a1,32(s0)
      c2:	0000                	unimp
      c4:	0700                	addi	s0,sp,896
      c6:	0188                	addi	a0,sp,192
      c8:	0000                	unimp
      ca:	a804                	fsd	fs1,16(s0)
      cc:	0000d213          	srli	tp,ra,0x0
      d0:	0000                	unimp
      d2:	6b08                	ld	a0,16(a4)
      d4:	0000                	unimp
      d6:	e200                	sd	s0,0(a2)
      d8:	0000                	unimp
      da:	0900                	addi	s0,sp,144
      dc:	0000003b          	addw	zero,zero,zero
      e0:	080a0003          	lb	zero,128(s4) # fffffffffffe0080 <ali3_data.1515+0xffffffff7ff8fe80>
      e4:	a204                	fsd	fs1,0(a2)
      e6:	0609                	addi	a2,a2,2
      e8:	0001                	nop
      ea:	0b00                	addi	s0,sp,400
      ec:	000003c3          	fmadd.s	ft7,ft0,ft0,ft0,rne
      f0:	a404                	fsd	fs1,8(s0)
      f2:	00002d07          	flw	fs10,0(zero) # 0 <__boot_hart>
      f6:	0000                	unimp
      f8:	0003cb0b          	0x3cb0b
      fc:	0400                	addi	s0,sp,512
      fe:	05a9                	addi	a1,a1,10
     100:	00b0                	addi	a2,sp,72
     102:	0000                	unimp
     104:	0004                	0x4
     106:	3405                	addiw	s0,s0,-31
     108:	04000003          	lb	zero,64(zero) # 40 <__stack_align+0x30>
     10c:	03aa                	slli	t2,t2,0xa
     10e:	00e2                	slli	ra,ra,0x18
     110:	0000                	unimp
     112:	080c                	addi	a1,sp,16
     114:	0b05                	addi	s6,s6,1
     116:	0004                	0x4
     118:	0500                	addi	s0,sp,640
     11a:	1919                	addi	s2,s2,-26
     11c:	005d                	c.nop	23
     11e:	0000                	unimp
     120:	de05                	beqz	a2,58 <__stack_align+0x48>
     122:	0002                	c.slli64	zero
     124:	0600                	addi	s0,sp,768
     126:	0d0c                	addi	a1,sp,656
     128:	002d                	c.nop	11
     12a:	0000                	unimp
     12c:	4b05                	li	s6,1
     12e:	0001                	nop
     130:	0500                	addi	s0,sp,640
     132:	01201b23          	sh	s2,22(zero) # 16 <__stack_align+0x6>
     136:	0000                	unimp
     138:	5c0d                	li	s8,-29
     13a:	0001                	nop
     13c:	2000                	fld	fs0,0(s0)
     13e:	3405                	addiw	s0,s0,-31
     140:	9208                	0x9208
     142:	0001                	nop
     144:	0b00                	addi	s0,sp,400
     146:	035f 0000 3605      	0x36050000035f
     14c:	00019213          	slli	tp,gp,0x0
     150:	0000                	unimp
     152:	5f0e                	lw	t5,224(sp)
     154:	3705006b          	0x3705006b
     158:	00002d07          	flw	fs10,0(zero) # 0 <__boot_hart>
     15c:	0800                	addi	s0,sp,16
     15e:	0003a70b          	0x3a70b
     162:	0500                	addi	s0,sp,640
     164:	002d0b37          	lui	s6,0x2d0
     168:	0000                	unimp
     16a:	0b0c                	addi	a1,sp,400
     16c:	0145                	addi	sp,sp,17
     16e:	0000                	unimp
     170:	3705                	addiw	a4,a4,-31
     172:	2d14                	fld	fa3,24(a0)
     174:	0000                	unimp
     176:	1000                	addi	s0,sp,32
     178:	0004400b          	0x4400b
     17c:	0500                	addi	s0,sp,640
     17e:	002d1b37          	lui	s6,0x2d1
     182:	0000                	unimp
     184:	0e14                	addi	a3,sp,784
     186:	785f 0500 0b38      	0xb380500785f
     18c:	0198                	addi	a4,sp,192
     18e:	0000                	unimp
     190:	0018                	0x18
     192:	0138080f          	0x138080f
     196:	0000                	unimp
     198:	1408                	addi	a0,sp,544
     19a:	0001                	nop
     19c:	a800                	fsd	fs0,16(s0)
     19e:	0001                	nop
     1a0:	0900                	addi	s0,sp,144
     1a2:	0000003b          	addw	zero,zero,zero
     1a6:	0000                	unimp
     1a8:	830d                	srli	a4,a4,0x3
     1aa:	0001                	nop
     1ac:	2400                	fld	fs0,8(s0)
     1ae:	3c05                	addiw	s8,s8,-31
     1b0:	2b08                	fld	fa0,16(a4)
     1b2:	0002                	c.slli64	zero
     1b4:	0b00                	addi	s0,sp,400
     1b6:	0096                	slli	ra,ra,0x5
     1b8:	0000                	unimp
     1ba:	3e05                	addiw	t3,t3,-31
     1bc:	2d09                	addiw	s10,s10,2
     1be:	0000                	unimp
     1c0:	0000                	unimp
     1c2:	0003e10b          	0x3e10b
     1c6:	0500                	addi	s0,sp,640
     1c8:	002d093f 0b040000 	0xb040000002d093f
     1d0:	00b9                	addi	ra,ra,14
     1d2:	0000                	unimp
     1d4:	4005                	c.li	zero,1
     1d6:	2d09                	addiw	s10,s10,2
     1d8:	0000                	unimp
     1da:	0800                	addi	s0,sp,16
     1dc:	0004eb0b          	0x4eb0b
     1e0:	0500                	addi	s0,sp,640
     1e2:	0941                	addi	s2,s2,16
     1e4:	002d                	c.nop	11
     1e6:	0000                	unimp
     1e8:	0b0c                	addi	a1,sp,400
     1ea:	02ad                	addi	t0,t0,11
     1ec:	0000                	unimp
     1ee:	4205                	li	tp,1
     1f0:	2d09                	addiw	s10,s10,2
     1f2:	0000                	unimp
     1f4:	1000                	addi	s0,sp,32
     1f6:	0002870b          	0x2870b
     1fa:	0500                	addi	s0,sp,640
     1fc:	002d0943          	fmadd.s	fs2,fs10,ft2,ft0,rne
     200:	0000                	unimp
     202:	0b14                	addi	a3,sp,400
     204:	0445                	addi	s0,s0,17
     206:	0000                	unimp
     208:	4405                	li	s0,1
     20a:	2d09                	addiw	s10,s10,2
     20c:	0000                	unimp
     20e:	1800                	addi	s0,sp,48
     210:	0003160b          	0x3160b
     214:	0500                	addi	s0,sp,640
     216:	0945                	addi	s2,s2,17
     218:	002d                	c.nop	11
     21a:	0000                	unimp
     21c:	0b1c                	addi	a5,sp,400
     21e:	0480                	addi	s0,sp,576
     220:	0000                	unimp
     222:	4605                	li	a2,1
     224:	2d09                	addiw	s10,s10,2
     226:	0000                	unimp
     228:	2000                	fld	fs0,0(s0)
     22a:	1000                	addi	s0,sp,32
     22c:	00c8                	addi	a0,sp,68
     22e:	0000                	unimp
     230:	0208                	addi	a0,sp,256
     232:	4f05                	li	t5,1
     234:	7108                	ld	a0,32(a0)
     236:	0002                	c.slli64	zero
     238:	0b00                	addi	s0,sp,400
     23a:	0138                	addi	a4,sp,136
     23c:	0000                	unimp
     23e:	5005                	c.li	zero,-31
     240:	710a                	ld	sp,160(sp)
     242:	0002                	c.slli64	zero
     244:	0000                	unimp
     246:	0011                	c.nop	4
     248:	0000                	unimp
     24a:	0500                	addi	s0,sp,640
     24c:	0951                	addi	s2,s2,20
     24e:	0271                	addi	tp,tp,28
     250:	0000                	unimp
     252:	0100                	addi	s0,sp,128
     254:	fd11                	bnez	a0,170 <__stack_align+0x160>
     256:	05000003          	lb	zero,80(zero) # 50 <__stack_align+0x40>
     25a:	01140a53          	fadd.s	fs4,fs0,fa7,rne
     25e:	0000                	unimp
     260:	0200                	addi	s0,sp,256
     262:	f511                	bnez	a0,16e <__stack_align+0x15e>
     264:	0000                	unimp
     266:	0500                	addi	s0,sp,640
     268:	0a56                	slli	s4,s4,0x15
     26a:	0114                	addi	a3,sp,128
     26c:	0000                	unimp
     26e:	0204                	addi	s1,sp,256
     270:	0800                	addi	s0,sp,16
     272:	0112                	slli	sp,sp,0x4
     274:	0000                	unimp
     276:	0281                	addi	t0,t0,0
     278:	0000                	unimp
     27a:	3b09                	addiw	s6,s6,-30
     27c:	0000                	unimp
     27e:	1f00                	addi	s0,sp,944
     280:	1000                	addi	s0,sp,32
     282:	02b6                	slli	t0,t0,0xd
     284:	0000                	unimp
     286:	0318                	addi	a4,sp,384
     288:	6205                	lui	tp,0x1
     28a:	c508                	sw	a0,8(a0)
     28c:	0002                	c.slli64	zero
     28e:	0b00                	addi	s0,sp,400
     290:	035f 0000 6305      	0x63050000035f
     296:	c512                	sw	tp,136(sp)
     298:	0002                	c.slli64	zero
     29a:	0000                	unimp
     29c:	0003770b          	0x3770b
     2a0:	0500                	addi	s0,sp,640
     2a2:	0664                	addi	s1,sp,780
     2a4:	002d                	c.nop	11
     2a6:	0000                	unimp
     2a8:	0b08                	addi	a0,sp,400
     2aa:	0140                	addi	s0,sp,132
     2ac:	0000                	unimp
     2ae:	6605                	lui	a2,0x1
     2b0:	cb09                	beqz	a4,2c2 <__stack_align+0x2b2>
     2b2:	0002                	c.slli64	zero
     2b4:	1000                	addi	s0,sp,32
     2b6:	c811                	beqz	s0,2ca <__stack_align+0x2ba>
     2b8:	0000                	unimp
     2ba:	0500                	addi	s0,sp,640
     2bc:	022b1e67          	0x22b1e67
     2c0:	0000                	unimp
     2c2:	0110                	addi	a2,sp,128
     2c4:	0f00                	addi	s0,sp,912
     2c6:	8108                	0x8108
     2c8:	0002                	c.slli64	zero
     2ca:	0800                	addi	s0,sp,16
     2cc:	000002db          	0x2db
     2d0:	000002db          	0x2db
     2d4:	3b09                	addiw	s6,s6,-30
     2d6:	0000                	unimp
     2d8:	1f00                	addi	s0,sp,944
     2da:	0f00                	addi	s0,sp,912
     2dc:	e108                	sd	a0,0(a0)
     2de:	0002                	c.slli64	zero
     2e0:	1200                	addi	s0,sp,288
     2e2:	200d                	0x200d
     2e4:	10000003          	lb	zero,256(zero) # 100 <__stack_align+0xf0>
     2e8:	7a05                	lui	s4,0xfffe1
     2ea:	0a08                	addi	a0,sp,272
     2ec:	0b000003          	lb	zero,176(zero) # b0 <__stack_align+0xa0>
     2f0:	000000b3          	add	ra,zero,zero
     2f4:	7b05                	lui	s6,0xfffe1
     2f6:	0a11                	addi	s4,s4,4
     2f8:	00000003          	lb	zero,0(zero) # 0 <__boot_hart>
     2fc:	00074e0b          	0x74e0b
     300:	0500                	addi	s0,sp,640
     302:	067c                	addi	a5,sp,780
     304:	002d                	c.nop	11
     306:	0000                	unimp
     308:	0008                	0x8
     30a:	006b080f          	0x6b080f
     30e:	0000                	unimp
     310:	3f0d                	addiw	t5,t5,-29
     312:	b0000003          	lb	zero,-1280(zero) # fffffffffffffb00 <ali3_data.1515+0xffffffff7ffaf900>
     316:	ba05                	j	fffffffffffffc46 <ali3_data.1515+0xffffffff7ffafa46>
     318:	5308                	lw	a0,32(a4)
     31a:	0004                	0x4
     31c:	0e00                	addi	s0,sp,784
     31e:	705f 0500 12bb      	0x12bb0500705f
     324:	030a                	slli	t1,t1,0x2
     326:	0000                	unimp
     328:	0e00                	addi	s0,sp,784
     32a:	725f 0500 07bc      	0x7bc0500725f
     330:	002d                	c.nop	11
     332:	0000                	unimp
     334:	0e08                	addi	a0,sp,784
     336:	775f 0500 07bd      	0x7bd0500775f
     33c:	002d                	c.nop	11
     33e:	0000                	unimp
     340:	0b0c                	addi	a1,sp,400
     342:	00ee                	slli	ra,ra,0x1b
     344:	0000                	unimp
     346:	be05                	j	fffffffffffffe76 <ali3_data.1515+0xffffffff7ffafc76>
     348:	7209                	lui	tp,0xfffe2
     34a:	0000                	unimp
     34c:	1000                	addi	s0,sp,32
     34e:	00019f0b          	0x19f0b
     352:	0500                	addi	s0,sp,640
     354:	007209bf 0e120000 	0xe120000007209bf
     35c:	625f 0066 c005      	0xc0050066625f
     362:	e211                	bnez	a2,366 <__stack_align+0x356>
     364:	0002                	c.slli64	zero
     366:	1800                	addi	s0,sp,48
     368:	00005c0b          	0x5c0b
     36c:	0500                	addi	s0,sp,640
     36e:	07c1                	addi	a5,a5,16
     370:	002d                	c.nop	11
     372:	0000                	unimp
     374:	0b28                	addi	a0,sp,408
     376:	00d6                	slli	ra,ra,0x15
     378:	0000                	unimp
     37a:	c805                	beqz	s0,3aa <__stack_align+0x39a>
     37c:	120a                	slli	tp,tp,0x22
     37e:	0001                	nop
     380:	3000                	fld	fs0,32(s0)
     382:	0001730b          	0x1730b
     386:	0500                	addi	s0,sp,640
     388:	1dca                	slli	s11,s11,0x32
     38a:	000005d7          	0x5d7
     38e:	0b38                	addi	a4,sp,408
     390:	0280                	addi	s0,sp,320
     392:	0000                	unimp
     394:	cc05                	beqz	s0,3cc <__stack_align+0x3bc>
     396:	061d                	addi	a2,a2,7
     398:	0006                	c.slli	zero,0x1
     39a:	4000                	lw	s0,0(s0)
     39c:	0003d30b          	0x3d30b
     3a0:	0500                	addi	s0,sp,640
     3a2:	062a0dcf          	fnmadd.q	fs11,fs4,ft2,ft0,rne
     3a6:	0000                	unimp
     3a8:	0b48                	addi	a0,sp,404
     3aa:	049a                	slli	s1,s1,0x6
     3ac:	0000                	unimp
     3ae:	d005                	beqz	s0,2ce <__stack_align+0x2be>
     3b0:	4409                	li	s0,2
     3b2:	0006                	c.slli	zero,0x1
     3b4:	5000                	lw	s0,32(s0)
     3b6:	5f0e                	lw	t5,224(sp)
     3b8:	6275                	lui	tp,0x1d
     3ba:	0500                	addi	s0,sp,640
     3bc:	02e211d3          	fadd.d	ft3,ft4,fa4,rtz
     3c0:	0000                	unimp
     3c2:	0e58                	addi	a4,sp,788
     3c4:	755f 0070 d405      	0xd4050070755f
     3ca:	0a12                	slli	s4,s4,0x4
     3cc:	68000003          	lb	zero,1664(zero) # 680 <__stack_align+0x670>
     3d0:	5f0e                	lw	t5,224(sp)
     3d2:	7275                	lui	tp,0xffffd
     3d4:	0500                	addi	s0,sp,640
     3d6:	07d5                	addi	a5,a5,21
     3d8:	002d                	c.nop	11
     3da:	0000                	unimp
     3dc:	0b70                	addi	a2,sp,412
     3de:	00ad                	addi	ra,ra,11
     3e0:	0000                	unimp
     3e2:	d805                	beqz	s0,312 <__stack_align+0x302>
     3e4:	4a11                	li	s4,4
     3e6:	0006                	c.slli	zero,0x1
     3e8:	7400                	ld	s0,40(s0)
     3ea:	0004720b          	0x4720b
     3ee:	0500                	addi	s0,sp,640
     3f0:	11d9                	addi	gp,gp,-10
     3f2:	065a                	slli	a2,a2,0x16
     3f4:	0000                	unimp
     3f6:	6c5f0e77          	0x6c5f0e77
     3fa:	0062                	c.slli	zero,0x18
     3fc:	dc05                	beqz	s0,334 <__stack_align+0x324>
     3fe:	e211                	bnez	a2,402 <__stack_align+0x3f2>
     400:	0002                	c.slli64	zero
     402:	7800                	ld	s0,48(s0)
     404:	0005ac0b          	0x5ac0b
     408:	0500                	addi	s0,sp,640
     40a:	07df 002d 0000      	0x2d07df
     410:	0b88                	addi	a0,sp,464
     412:	0000077b          	0x77b
     416:	e005                	bnez	s0,436 <__stack_align+0x426>
     418:	8c0a                	mv	s8,sp
     41a:	0000                	unimp
     41c:	9000                	0x9000
     41e:	00001f0b          	0x1f0b
     422:	0500                	addi	s0,sp,640
     424:	047112e3          	bne	sp,t2,c68 <__stack_align+0xc58>
     428:	0000                	unimp
     42a:	0b98                	addi	a4,sp,464
     42c:	000007ef          	jal	a5,42c <__stack_align+0x41c>
     430:	e705                	bnez	a4,458 <__stack_align+0x448>
     432:	2c0c                	fld	fa1,24(s0)
     434:	0001                	nop
     436:	a000                	fsd	fs0,0(s0)
     438:	0003510b          	0x3510b
     43c:	0500                	addi	s0,sp,640
     43e:	0ee9                	addi	t4,t4,26
     440:	0106                	slli	sp,sp,0x1
     442:	0000                	unimp
     444:	0ba4                	addi	s1,sp,472
     446:	0205                	addi	tp,tp,1
     448:	0000                	unimp
     44a:	ea05                	bnez	a2,47a <__stack_align+0x46a>
     44c:	2d09                	addiw	s10,s10,2
     44e:	0000                	unimp
     450:	ac00                	fsd	fs0,24(s0)
     452:	1300                	addi	s0,sp,416
     454:	00a4                	addi	s1,sp,72
     456:	0000                	unimp
     458:	0471                	addi	s0,s0,28
     45a:	0000                	unimp
     45c:	7114                	ld	a3,32(a0)
     45e:	0004                	0x4
     460:	1400                	addi	s0,sp,544
     462:	0112                	slli	sp,sp,0x4
     464:	0000                	unimp
     466:	c514                	sw	a3,8(a0)
     468:	0005                	c.nop	1
     46a:	1400                	addi	s0,sp,544
     46c:	002d                	c.nop	11
     46e:	0000                	unimp
     470:	0f00                	addi	s0,sp,912
     472:	7c08                	ld	a0,56(s0)
     474:	0004                	0x4
     476:	1500                	addi	s0,sp,672
     478:	0471                	addi	s0,s0,28
     47a:	0000                	unimp
     47c:	af16                	fsd	ft5,408(sp)
     47e:	48000003          	lb	zero,1152(zero) # 480 <__stack_align+0x470>
     482:	02650507          	0x2650507
     486:	c508                	sw	a0,8(a0)
     488:	0005                	c.nop	1
     48a:	1700                	addi	s0,sp,928
     48c:	000000e7          	jalr	zero # 0 <__boot_hart>
     490:	6705                	lui	a4,0x1
     492:	0702                	c.slli64	a4
     494:	002d                	c.nop	11
     496:	0000                	unimp
     498:	1700                	addi	s0,sp,928
     49a:	00fd                	addi	ra,ra,31
     49c:	0000                	unimp
     49e:	6c05                	lui	s8,0x1
     4a0:	0b02                	c.slli64	s6
     4a2:	06b6                	slli	a3,a3,0xd
     4a4:	0000                	unimp
     4a6:	1708                	addi	a0,sp,928
     4a8:	0000018f          	0x18f
     4ac:	6c05                	lui	s8,0x1
     4ae:	1402                	slli	s0,s0,0x20
     4b0:	06b6                	slli	a3,a3,0xd
     4b2:	0000                	unimp
     4b4:	1710                	addi	a2,sp,928
     4b6:	0154                	addi	a3,sp,132
     4b8:	0000                	unimp
     4ba:	6c05                	lui	s8,0x1
     4bc:	1e02                	slli	t3,t3,0x20
     4be:	06b6                	slli	a3,a3,0xd
     4c0:	0000                	unimp
     4c2:	1718                	addi	a4,sp,928
     4c4:	0372                	slli	t1,t1,0x1c
     4c6:	0000                	unimp
     4c8:	6e05                	lui	t3,0x1
     4ca:	0802                	c.slli64	a6
     4cc:	002d                	c.nop	11
     4ce:	0000                	unimp
     4d0:	1720                	addi	s0,sp,936
     4d2:	0014                	0x14
     4d4:	0000                	unimp
     4d6:	6f05                	lui	t5,0x1
     4d8:	0802                	c.slli64	a6
     4da:	000008bf 038e1724 	0x38e1724000008bf
     4e2:	0000                	unimp
     4e4:	7205                	lui	tp,0xfffe1
     4e6:	0702                	c.slli64	a4
     4e8:	002d                	c.nop	11
     4ea:	0000                	unimp
     4ec:	1740                	addi	s0,sp,932
     4ee:	037c                	addi	a5,sp,396
     4f0:	0000                	unimp
     4f2:	7305                	lui	t1,0xfffe1
     4f4:	1602                	slli	a2,a2,0x20
     4f6:	08d4                	addi	a3,sp,84
     4f8:	0000                	unimp
     4fa:	1748                	addi	a0,sp,932
     4fc:	02be                	slli	t0,t0,0xf
     4fe:	0000                	unimp
     500:	7505                	lui	a0,0xfffe1
     502:	0702                	c.slli64	a4
     504:	002d                	c.nop	11
     506:	0000                	unimp
     508:	1750                	addi	a2,sp,932
     50a:	0384                	addi	s1,sp,448
     50c:	0000                	unimp
     50e:	7705                	lui	a4,0xfffe1
     510:	0a02                	c.slli64	s4
     512:	08e5                	addi	a7,a7,25
     514:	0000                	unimp
     516:	1758                	addi	a4,sp,932
     518:	01f0                	addi	a2,sp,204
     51a:	0000                	unimp
     51c:	7a05                	lui	s4,0xfffe1
     51e:	1302                	slli	t1,t1,0x20
     520:	0192                	slli	gp,gp,0x4
     522:	0000                	unimp
     524:	1760                	addi	s0,sp,940
     526:	0179                	addi	sp,sp,30
     528:	0000                	unimp
     52a:	7b05                	lui	s6,0xfffe1
     52c:	0702                	c.slli64	a4
     52e:	002d                	c.nop	11
     530:	0000                	unimp
     532:	1768                	addi	a0,sp,940
     534:	04b4                	addi	a3,sp,584
     536:	0000                	unimp
     538:	7c05                	lui	s8,0xfffe1
     53a:	1302                	slli	t1,t1,0x20
     53c:	0192                	slli	gp,gp,0x4
     53e:	0000                	unimp
     540:	1770                	addi	a2,sp,940
     542:	02d4                	addi	a3,sp,324
     544:	0000                	unimp
     546:	7d05                	lui	s10,0xfffe1
     548:	1402                	slli	s0,s0,0x20
     54a:	000008eb          	0x8eb
     54e:	1778                	addi	a4,sp,940
     550:	00000197          	auipc	gp,0x0
     554:	8005                	srli	s0,s0,0x1
     556:	0702                	c.slli64	a4
     558:	002d                	c.nop	11
     55a:	0000                	unimp
     55c:	1780                	addi	s0,sp,992
     55e:	0111                	addi	sp,sp,4
     560:	0000                	unimp
     562:	8105                	srli	a0,a0,0x1
     564:	0902                	c.slli64	s2
     566:	05c5                	addi	a1,a1,17
     568:	0000                	unimp
     56a:	1788                	addi	a0,sp,992
     56c:	02fe                	slli	t0,t0,0x1f
     56e:	0000                	unimp
     570:	a405                	j	790 <__stack_align+0x780>
     572:	0702                	c.slli64	a4
     574:	0899                	addi	a7,a7,6
     576:	0000                	unimp
     578:	1890                	addi	a2,sp,112
     57a:	02b6                	slli	t0,t0,0xd
     57c:	0000                	unimp
     57e:	a805                	j	5ae <__stack_align+0x59e>
     580:	1302                	slli	t1,t1,0x20
     582:	02c5                	addi	t0,t0,17
     584:	0000                	unimp
     586:	01f8                	addi	a4,sp,204
     588:	ce18                	sw	a4,24(a2)
     58a:	0001                	nop
     58c:	0500                	addi	s0,sp,640
     58e:	02a9                	addi	t0,t0,10
     590:	8112                	mv	sp,tp
     592:	0002                	c.slli64	zero
     594:	0000                	unimp
     596:	1802                	slli	a6,a6,0x20
     598:	0468                	addi	a0,sp,524
     59a:	0000                	unimp
     59c:	ad05                	j	bcc <__stack_align+0xbbc>
     59e:	0c02                	c.slli64	s8
     5a0:	08fc                	addi	a5,sp,92
     5a2:	0000                	unimp
     5a4:	0518                	addi	a4,sp,640
     5a6:	de18                	sw	a4,56(a2)
     5a8:	0000                	unimp
     5aa:	0500                	addi	s0,sp,640
     5ac:	02b2                	slli	t0,t0,0xc
     5ae:	7710                	ld	a2,40(a4)
     5b0:	0006                	c.slli	zero,0x1
     5b2:	2000                	fld	fs0,0(s0)
     5b4:	1805                	addi	a6,a6,-31
     5b6:	000000c3          	fmadd.s	ft1,ft0,ft0,ft0,rne
     5ba:	b405                	j	ffffffffffffffda <ali3_data.1515+0xffffffff7ffafdda>
     5bc:	0a02                	c.slli64	s4
     5be:	0908                	addi	a0,sp,144
     5c0:	0000                	unimp
     5c2:	0538                	addi	a4,sp,648
     5c4:	0f00                	addi	s0,sp,912
     5c6:	cb08                	sw	a0,16(a4)
     5c8:	0005                	c.nop	1
     5ca:	0300                	addi	s0,sp,384
     5cc:	0801                	addi	a6,a6,0
     5ce:	02f9                	addi	t0,t0,30
     5d0:	0000                	unimp
     5d2:	cb15                	beqz	a4,606 <__stack_align+0x5f6>
     5d4:	0005                	c.nop	1
     5d6:	0f00                	addi	s0,sp,912
     5d8:	5308                	lw	a0,32(a4)
     5da:	0004                	0x4
     5dc:	1300                	addi	s0,sp,416
     5de:	00a4                	addi	s1,sp,72
     5e0:	0000                	unimp
     5e2:	000005fb          	0x5fb
     5e6:	7114                	ld	a3,32(a0)
     5e8:	0004                	0x4
     5ea:	1400                	addi	s0,sp,544
     5ec:	0112                	slli	sp,sp,0x4
     5ee:	0000                	unimp
     5f0:	fb14                	sd	a3,48(a4)
     5f2:	0005                	c.nop	1
     5f4:	1400                	addi	s0,sp,544
     5f6:	002d                	c.nop	11
     5f8:	0000                	unimp
     5fa:	0f00                	addi	s0,sp,912
     5fc:	d208                	sw	a0,32(a2)
     5fe:	0005                	c.nop	1
     600:	1500                	addi	s0,sp,672
     602:	000005fb          	0x5fb
     606:	05dd080f          	0x5dd080f
     60a:	0000                	unimp
     60c:	00009813          	slli	a6,ra,0x0
     610:	2a00                	fld	fs0,16(a2)
     612:	0006                	c.slli	zero,0x1
     614:	1400                	addi	s0,sp,544
     616:	0471                	addi	s0,s0,28
     618:	0000                	unimp
     61a:	1214                	addi	a3,sp,288
     61c:	0001                	nop
     61e:	1400                	addi	s0,sp,544
     620:	0098                	addi	a4,sp,64
     622:	0000                	unimp
     624:	2d14                	fld	fa3,24(a0)
     626:	0000                	unimp
     628:	0000                	unimp
     62a:	060c080f          	0x60c080f
     62e:	0000                	unimp
     630:	00002d13          	slti	s10,zero,0
     634:	4400                	lw	s0,8(s0)
     636:	0006                	c.slli	zero,0x1
     638:	1400                	addi	s0,sp,544
     63a:	0471                	addi	s0,s0,28
     63c:	0000                	unimp
     63e:	1214                	addi	a3,sp,288
     640:	0001                	nop
     642:	0000                	unimp
     644:	0630080f          	0x630080f
     648:	0000                	unimp
     64a:	6b08                	ld	a0,16(a4)
     64c:	0000                	unimp
     64e:	5a00                	lw	s0,48(a2)
     650:	0006                	c.slli	zero,0x1
     652:	0900                	addi	s0,sp,144
     654:	0000003b          	addw	zero,zero,zero
     658:	0002                	c.slli64	zero
     65a:	6b08                	ld	a0,16(a4)
     65c:	0000                	unimp
     65e:	6a00                	ld	s0,16(a2)
     660:	0006                	c.slli	zero,0x1
     662:	0900                	addi	s0,sp,144
     664:	0000003b          	addw	zero,zero,zero
     668:	0000                	unimp
     66a:	2d04                	fld	fs1,24(a0)
     66c:	05000003          	lb	zero,80(zero) # 50 <__stack_align+0x40>
     670:	0124                	addi	s1,sp,136
     672:	101a                	c.slli	zero,0x26
     674:	19000003          	lb	zero,400(zero) # 190 <__stack_align+0x180>
     678:	0000044f          	fnmadd.s	fs0,ft0,ft0,ft0,rne
     67c:	0518                	addi	a4,sp,640
     67e:	0128                	addi	a0,sp,136
     680:	b008                	fsd	fa0,32(s0)
     682:	0006                	c.slli	zero,0x1
     684:	1700                	addi	s0,sp,928
     686:	035f 0000 2a05      	0x2a050000035f
     68c:	1101                	addi	sp,sp,-32
     68e:	06b0                	addi	a2,sp,840
     690:	0000                	unimp
     692:	1700                	addi	s0,sp,928
     694:	01b4                	addi	a3,sp,200
     696:	0000                	unimp
     698:	2b05                	addiw	s6,s6,1
     69a:	0701                	addi	a4,a4,0
     69c:	002d                	c.nop	11
     69e:	0000                	unimp
     6a0:	1708                	addi	a0,sp,928
     6a2:	00000327          	0x327
     6a6:	2c05                	addiw	s8,s8,1
     6a8:	0b01                	addi	s6,s6,0
     6aa:	06b6                	slli	a3,a3,0xd
     6ac:	0000                	unimp
     6ae:	0010                	0x10
     6b0:	0677080f          	0x677080f
     6b4:	0000                	unimp
     6b6:	066a080f          	0x66a080f
     6ba:	0000                	unimp
     6bc:	0c19                	addi	s8,s8,6
     6be:	0000                	unimp
     6c0:	0e00                	addi	s0,sp,784
     6c2:	4405                	li	s0,1
     6c4:	0801                	addi	a6,a6,0
     6c6:	06f5                	addi	a3,a3,29
     6c8:	0000                	unimp
     6ca:	0003b617          	auipc	a2,0x3b
     6ce:	0500                	addi	s0,sp,640
     6d0:	0145                	addi	sp,sp,17
     6d2:	f512                	sd	tp,168(sp)
     6d4:	0006                	c.slli	zero,0x1
     6d6:	0000                	unimp
     6d8:	0003ea17          	auipc	s4,0x3e
     6dc:	0500                	addi	s0,sp,640
     6de:	0146                	slli	sp,sp,0x11
     6e0:	f512                	sd	tp,168(sp)
     6e2:	0006                	c.slli	zero,0x1
     6e4:	0600                	addi	s0,sp,768
     6e6:	00040617          	auipc	a2,0x40
     6ea:	0500                	addi	s0,sp,640
     6ec:	79120147          	fmsub.s	ft2,ft4,fa7,fa5,rne
     6f0:	0000                	unimp
     6f2:	0c00                	addi	s0,sp,528
     6f4:	0800                	addi	s0,sp,16
     6f6:	0079                	c.nop	30
     6f8:	0000                	unimp
     6fa:	0705                	addi	a4,a4,1
     6fc:	0000                	unimp
     6fe:	3b09                	addiw	s6,s6,-30
     700:	0000                	unimp
     702:	0200                	addi	s0,sp,256
     704:	1a00                	addi	s0,sp,304
     706:	05d8                	addi	a4,sp,708
     708:	0285                	addi	t0,t0,1
     70a:	00081a07          	0x81a07
     70e:	1700                	addi	s0,sp,928
     710:	00000433          	add	s0,zero,zero
     714:	8705                	srai	a4,a4,0x1
     716:	1802                	slli	a6,a6,0x20
     718:	005d                	c.nop	23
     71a:	0000                	unimp
     71c:	1700                	addi	s0,sp,928
     71e:	03f0                	addi	a2,sp,460
     720:	0000                	unimp
     722:	8805                	andi	s0,s0,1
     724:	1202                	slli	tp,tp,0x20
     726:	05c5                	addi	a1,a1,17
     728:	0000                	unimp
     72a:	1708                	addi	a0,sp,928
     72c:	000001e3          	beqz	zero,f2e <__stack_align+0xf1e>
     730:	8905                	andi	a0,a0,1
     732:	1002                	c.slli	zero,0x20
     734:	081a                	slli	a6,a6,0x6
     736:	0000                	unimp
     738:	1710                	addi	a2,sp,928
     73a:	0000048b          	0x48b
     73e:	8a05                	andi	a2,a2,1
     740:	1702                	slli	a4,a4,0x20
     742:	01a8                	addi	a0,sp,200
     744:	0000                	unimp
     746:	172c                	addi	a1,sp,936
     748:	0164                	addi	s1,sp,140
     74a:	0000                	unimp
     74c:	8b05                	andi	a4,a4,1
     74e:	0f02                	c.slli64	t5
     750:	002d                	c.nop	11
     752:	0000                	unimp
     754:	1750                	addi	a2,sp,932
     756:	035a                	slli	t1,t1,0x16
     758:	0000                	unimp
     75a:	8c05                	sub	s0,s0,s1
     75c:	2c02                	fld	fs8,0(sp)
     75e:	082a                	slli	a6,a6,0xa
     760:	0000                	unimp
     762:	1758                	addi	a4,sp,932
     764:	04a1                	addi	s1,s1,8
     766:	0000                	unimp
     768:	8d05                	sub	a0,a0,s1
     76a:	1a02                	slli	s4,s4,0x20
     76c:	06bc                	addi	a5,sp,840
     76e:	0000                	unimp
     770:	1760                	addi	s0,sp,940
     772:	0365                	addi	t1,t1,25
     774:	0000                	unimp
     776:	8e05                	sub	a2,a2,s1
     778:	1602                	slli	a2,a2,0x20
     77a:	0106                	slli	sp,sp,0x1
     77c:	0000                	unimp
     77e:	1770                	addi	a2,sp,940
     780:	04a6                	slli	s1,s1,0x9
     782:	0000                	unimp
     784:	8f05                	sub	a4,a4,s1
     786:	1602                	slli	a2,a2,0x20
     788:	0106                	slli	sp,sp,0x1
     78a:	0000                	unimp
     78c:	1778                	addi	a4,sp,940
     78e:	0088                	addi	a0,sp,64
     790:	0000                	unimp
     792:	9005                	srli	s0,s0,0x21
     794:	1602                	slli	a2,a2,0x20
     796:	0106                	slli	sp,sp,0x1
     798:	0000                	unimp
     79a:	1780                	addi	s0,sp,992
     79c:	045e                	slli	s0,s0,0x17
     79e:	0000                	unimp
     7a0:	9105                	srli	a0,a0,0x21
     7a2:	1002                	c.slli	zero,0x20
     7a4:	0831                	addi	a6,a6,12
     7a6:	0000                	unimp
     7a8:	1788                	addi	a0,sp,992
     7aa:	000001d7          	0x1d7
     7ae:	9205                	srli	a2,a2,0x21
     7b0:	1002                	c.slli	zero,0x20
     7b2:	0841                	addi	a6,a6,16
     7b4:	0000                	unimp
     7b6:	1790                	addi	a2,sp,992
     7b8:	00000413          	li	s0,0
     7bc:	9305                	srli	a4,a4,0x21
     7be:	0f02                	c.slli64	t5
     7c0:	002d                	c.nop	11
     7c2:	0000                	unimp
     7c4:	17a8                	addi	a0,sp,1000
     7c6:	012a                	slli	sp,sp,0xa
     7c8:	0000                	unimp
     7ca:	9405                	srai	s0,s0,0x21
     7cc:	1602                	slli	a2,a2,0x20
     7ce:	0106                	slli	sp,sp,0x1
     7d0:	0000                	unimp
     7d2:	17ac                	addi	a1,sp,1000
     7d4:	0079                	c.nop	30
     7d6:	0000                	unimp
     7d8:	9505                	srai	a0,a0,0x21
     7da:	1602                	slli	a2,a2,0x20
     7dc:	0106                	slli	sp,sp,0x1
     7de:	0000                	unimp
     7e0:	17b4                	addi	a3,sp,1000
     7e2:	0119                	addi	sp,sp,6
     7e4:	0000                	unimp
     7e6:	9605                	srai	a2,a2,0x21
     7e8:	1602                	slli	a2,a2,0x20
     7ea:	0106                	slli	sp,sp,0x1
     7ec:	0000                	unimp
     7ee:	17bc                	addi	a5,sp,1000
     7f0:	0025                	c.nop	9
     7f2:	0000                	unimp
     7f4:	9705                	srai	a4,a4,0x21
     7f6:	1602                	slli	a2,a2,0x20
     7f8:	0106                	slli	sp,sp,0x1
     7fa:	0000                	unimp
     7fc:	17c4                	addi	s1,sp,996
     7fe:	0034                	addi	a3,sp,8
     800:	0000                	unimp
     802:	9805                	andi	s0,s0,-31
     804:	1602                	slli	a2,a2,0x20
     806:	0106                	slli	sp,sp,0x1
     808:	0000                	unimp
     80a:	17cc                	addi	a1,sp,996
     80c:	00000303          	lb	t1,0(zero) # 0 <__boot_hart>
     810:	9905                	andi	a0,a0,-31
     812:	0802                	c.slli64	a6
     814:	002d                	c.nop	11
     816:	0000                	unimp
     818:	00d4                	addi	a3,sp,68
     81a:	cb08                	sw	a0,16(a4)
     81c:	0005                	c.nop	1
     81e:	2a00                	fld	fs0,16(a2)
     820:	0008                	0x8
     822:	0900                	addi	s0,sp,144
     824:	0000003b          	addw	zero,zero,zero
     828:	0019                	c.nop	6
     82a:	45070803          	lb	a6,1104(a4) # fffffffffffe1450 <ali3_data.1515+0xffffffff7ff91250>
     82e:	0000                	unimp
     830:	0800                	addi	s0,sp,16
     832:	000005cb          	fnmsub.s	fa1,ft0,ft0,ft0,rne
     836:	0841                	addi	a6,a6,16
     838:	0000                	unimp
     83a:	3b09                	addiw	s6,s6,-30
     83c:	0000                	unimp
     83e:	0700                	addi	s0,sp,896
     840:	0800                	addi	s0,sp,16
     842:	000005cb          	fnmsub.s	fa1,ft0,ft0,ft0,rne
     846:	0851                	addi	a6,a6,20
     848:	0000                	unimp
     84a:	3b09                	addiw	s6,s6,-30
     84c:	0000                	unimp
     84e:	1700                	addi	s0,sp,928
     850:	1b00                	addi	s0,sp,432
     852:	0168                	addi	a0,sp,140
     854:	9e05                	subw	a2,a2,s1
     856:	0702                	c.slli64	a4
     858:	0879                	addi	a6,a6,30
     85a:	0000                	unimp
     85c:	0002a617          	auipc	a2,0x2a
     860:	0500                	addi	s0,sp,640
     862:	02a1                	addi	t0,t0,8
     864:	0008791b          	0x8791b
     868:	0000                	unimp
     86a:	00029117          	auipc	sp,0x29
     86e:	0500                	addi	s0,sp,640
     870:	02a2                	slli	t0,t0,0x8
     872:	8918                	0x8918
     874:	0008                	0x8
     876:	f000                	sd	s0,32(s0)
     878:	0800                	addi	s0,sp,16
     87a:	030a                	slli	t1,t1,0x2
     87c:	0000                	unimp
     87e:	0889                	addi	a7,a7,2
     880:	0000                	unimp
     882:	3b09                	addiw	s6,s6,-30
     884:	0000                	unimp
     886:	1d00                	addi	s0,sp,688
     888:	0800                	addi	s0,sp,16
     88a:	005d                	c.nop	23
     88c:	0000                	unimp
     88e:	0899                	addi	a7,a7,6
     890:	0000                	unimp
     892:	3b09                	addiw	s6,s6,-30
     894:	0000                	unimp
     896:	1d00                	addi	s0,sp,688
     898:	1c00                	addi	s0,sp,560
     89a:	0168                	addi	a0,sp,140
     89c:	8305                	srli	a4,a4,0x1
     89e:	0302                	c.slli64	t1
     8a0:	000008bf 0003af1d 	0x3af1d000008bf
     8a8:	0500                	addi	s0,sp,640
     8aa:	029a                	slli	t0,t0,0x6
     8ac:	0007050b          	0x7050b
     8b0:	1d00                	addi	s0,sp,688
     8b2:	0478                	addi	a4,sp,524
     8b4:	0000                	unimp
     8b6:	a305                	j	dd6 <__stack_align+0xdc6>
     8b8:	0b02                	c.slli64	s6
     8ba:	0851                	addi	a6,a6,20
     8bc:	0000                	unimp
     8be:	0800                	addi	s0,sp,16
     8c0:	000005cb          	fnmsub.s	fa1,ft0,ft0,ft0,rne
     8c4:	000008cf          	fnmadd.s	fa7,ft0,ft0,ft0,rne
     8c8:	3b09                	addiw	s6,s6,-30
     8ca:	0000                	unimp
     8cc:	1800                	addi	s0,sp,48
     8ce:	1e00                	addi	s0,sp,816
     8d0:	006e                	c.slli	zero,0x1b
     8d2:	0000                	unimp
     8d4:	08cf080f          	0x8cf080f
     8d8:	0000                	unimp
     8da:	e51f 0008 1400      	0x14000008e51f
     8e0:	0471                	addi	s0,s0,28
     8e2:	0000                	unimp
     8e4:	0f00                	addi	s0,sp,912
     8e6:	da08                	sw	a0,48(a2)
     8e8:	0008                	0x8
     8ea:	0f00                	addi	s0,sp,912
     8ec:	9208                	0x9208
     8ee:	0001                	nop
     8f0:	1f00                	addi	s0,sp,944
     8f2:	08fc                	addi	a5,sp,92
     8f4:	0000                	unimp
     8f6:	2d14                	fld	fa3,24(a0)
     8f8:	0000                	unimp
     8fa:	0000                	unimp
     8fc:	0902080f          	0x902080f
     900:	0000                	unimp
     902:	08f1080f          	0x8f1080f
     906:	0000                	unimp
     908:	6a08                	ld	a0,16(a2)
     90a:	0006                	c.slli	zero,0x1
     90c:	1800                	addi	s0,sp,48
     90e:	0009                	c.nop	2
     910:	0900                	addi	s0,sp,144
     912:	0000003b          	addw	zero,zero,zero
     916:	0002                	c.slli64	zero
     918:	2720                	fld	fs0,72(a4)
     91a:	0004                	0x4
     91c:	0500                	addi	s0,sp,640
     91e:	71170333          	0x71170333
     922:	0004                	0x4
     924:	2000                	fld	fs0,0(s0)
     926:	0420                	addi	s0,sp,520
     928:	0000                	unimp
     92a:	3405                	addiw	s0,s0,-31
     92c:	04771d03          	lh	s10,71(a4)
     930:	0000                	unimp
     932:	0108                	addi	a0,sp,128
     934:	0006                	c.slli	zero,0x1
     936:	3d00                	fld	fs0,56(a0)
     938:	0009                	c.nop	2
     93a:	2100                	fld	fs0,0(a0)
     93c:	1500                	addi	s0,sp,672
     93e:	0932                	slli	s2,s2,0xc
     940:	0000                	unimp
     942:	0422                	slli	s0,s0,0x8
     944:	0001                	nop
     946:	0700                	addi	s0,sp,896
     948:	2414                	fld	fa3,8(s0)
     94a:	093d                	addi	s2,s2,15
     94c:	0000                	unimp
     94e:	4722                	lw	a4,8(sp)
     950:	07000003          	lb	zero,112(zero) # 70 <__stack_align+0x60>
     954:	1515                	addi	a0,a0,-27
     956:	002d                	c.nop	11
     958:	0000                	unimp
     95a:	cb05                	beqz	a4,98a <__stack_align+0x97a>
     95c:	0002                	c.slli64	zero
     95e:	0800                	addi	s0,sp,16
     960:	143c                	addi	a5,sp,552
     962:	0080                	addi	s0,sp,64
     964:	0000                	unimp
     966:	00095a23          	0x95a23
     96a:	2200                	fld	fs0,0(a2)
     96c:	03bc                	addi	a5,sp,456
     96e:	0000                	unimp
     970:	0609                	addi	a2,a2,2
     972:	661a                	ld	a2,384(sp)
     974:	0009                	c.nop	2
     976:	2200                	fld	fs0,0(a2)
     978:	0065                	c.nop	25
     97a:	0000                	unimp
     97c:	0709                	addi	a4,a4,2
     97e:	661a                	ld	a2,384(sp)
     980:	0009                	c.nop	2
     982:	2400                	fld	fs0,8(s0)
     984:	049a                	slli	s1,s1,0x6
     986:	0000                	unimp
     988:	0401                	addi	s0,s0,0
     98a:	2d05                	addiw	s10,s10,1
     98c:	0000                	unimp
     98e:	a000                	fsd	fs0,0(s0)
     990:	001f 0080 0000      	0x80001f
     996:	1400                	addi	s0,sp,544
     998:	0000                	unimp
     99a:	0000                	unimp
     99c:	0000                	unimp
     99e:	0100                	addi	s0,sp,128
     9a0:	c39c                	sw	a5,0(a5)
     9a2:	0009                	c.nop	2
     9a4:	2500                	fld	fs0,8(a0)
     9a6:	01a0                	addi	s0,sp,200
     9a8:	0000                	unimp
     9aa:	0401                	addi	s0,s0,0
     9ac:	2d10                	fld	fa2,24(a0)
     9ae:	0000                	unimp
     9b0:	0000                	unimp
     9b2:	0000                	unimp
     9b4:	2600                	fld	fs0,8(a2)
     9b6:	1fa8                	addi	a0,sp,1016
     9b8:	8000                	0x8000
     9ba:	0000                	unimp
     9bc:	0000                	unimp
     9be:	000009c3          	fmadd.s	fs3,ft0,ft0,ft0,rne
     9c2:	2700                	fld	fs0,8(a4)
     9c4:	00e6                	slli	ra,ra,0x19
     9c6:	0000                	unimp
     9c8:	00e6                	slli	ra,ra,0x19
     9ca:	0000                	unimp
     9cc:	000d0f07          	0xd0f07
     9d0:	0bcc                	addi	a1,sp,468
     9d2:	0000                	unimp
     9d4:	0004                	0x4
     9d6:	021d                	addi	tp,tp,7
     9d8:	0000                	unimp
     9da:	0108                	addi	a0,sp,128
     9dc:	020d                	addi	tp,tp,3
     9de:	0000                	unimp
     9e0:	130c                	addi	a1,sp,416
     9e2:	0005                	c.nop	1
     9e4:	b900                	fsd	fs0,48(a0)
     9e6:	0004                	0x4
     9e8:	b400                	fsd	fs0,40(s0)
     9ea:	001f 0080 0000      	0x80001f
     9f0:	1400                	addi	s0,sp,544
     9f2:	0000                	unimp
     9f4:	0000                	unimp
     9f6:	0000                	unimp
     9f8:	de00                	sw	s0,56(a2)
     9fa:	0001                	nop
     9fc:	0200                	addi	s0,sp,256
     9fe:	0504                	addi	s1,sp,640
     a00:	6e69                	lui	t3,0x1a
     a02:	0074                	addi	a3,sp,12
     a04:	a4050803          	lb	a6,-1472(a0) # fffffffffffe0a40 <ali3_data.1515+0xffffffff7ff90840>
     a08:	0000                	unimp
     a0a:	0300                	addi	s0,sp,384
     a0c:	0708                	addi	a0,sp,896
     a0e:	004a                	c.slli	zero,0x12
     a10:	0000                	unimp
     a12:	9f050803          	lb	a6,-1552(a0)
     a16:	0000                	unimp
     a18:	0300                	addi	s0,sp,384
     a1a:	0410                	addi	a2,sp,512
     a1c:	029a                	slli	t0,t0,0x6
     a1e:	0000                	unimp
     a20:	fe04                	sd	s1,56(a2)
     a22:	0001                	nop
     a24:	0200                	addi	s0,sp,256
     a26:	015e                	slli	sp,sp,0x17
     a28:	00005d17          	auipc	s10,0x5
     a2c:	0300                	addi	s0,sp,384
     a2e:	0704                	addi	s1,sp,896
     a30:	0000004f          	fnmadd.s	ft0,ft0,ft0,ft0,rne
     a34:	f2060103          	lb	sp,-224(a2) # 2a77c <__stack_size+0x2277c>
     a38:	0002                	c.slli64	zero
     a3a:	0300                	addi	s0,sp,384
     a3c:	0801                	addi	a6,a6,0
     a3e:	02f0                	addi	a2,sp,332
     a40:	0000                	unimp
     a42:	0c050203          	lb	tp,192(a0)
     a46:	03000003          	lb	zero,48(zero) # 30 <__stack_align+0x20>
     a4a:	0702                	c.slli64	a4
     a4c:	000001bb          	addw	gp,zero,zero
     a50:	5105                	li	sp,-31
     a52:	0005                	c.nop	1
     a54:	0300                	addi	s0,sp,384
     a56:	005d194f          	fnmadd.s	fs2,fs10,ft5,ft0,rtz
     a5a:	0000                	unimp
     a5c:	c905                	beqz	a0,a8c <__stack_align+0xa7c>
     a5e:	0002                	c.slli64	zero
     a60:	0300                	addi	s0,sp,384
     a62:	1969                	addi	s2,s2,-6
     a64:	0000003b          	addw	zero,zero,zero
     a68:	3505                	addiw	a0,a0,-31
     a6a:	0005                	c.nop	1
     a6c:	0400                	addi	s0,sp,512
     a6e:	0e1e                	slli	t3,t3,0x7
     a70:	0034                	addi	a3,sp,8
     a72:	0000                	unimp
     a74:	8705                	srai	a4,a4,0x1
     a76:	0005                	c.nop	1
     a78:	0400                	addi	s0,sp,512
     a7a:	0e22                	slli	t3,t3,0x8
     a7c:	0034                	addi	a3,sp,8
     a7e:	0000                	unimp
     a80:	f605                	bnez	a2,9a8 <__stack_align+0x998>
     a82:	0004                	0x4
     a84:	0400                	addi	s0,sp,512
     a86:	0e2e                	slli	t3,t3,0xb
     a88:	0034                	addi	a3,sp,8
     a8a:	0000                	unimp
     a8c:	5c05                	li	s8,-31
     a8e:	0005                	c.nop	1
     a90:	0400                	addi	s0,sp,512
     a92:	0f38                	addi	a4,sp,920
     a94:	0072                	c.slli	zero,0x1c
     a96:	0000                	unimp
     a98:	d905                	beqz	a0,9c8 <__stack_align+0x9b8>
     a9a:	0005                	c.nop	1
     a9c:	0400                	addi	s0,sp,512
     a9e:	183c                	addi	a5,sp,56
     aa0:	0079                	c.nop	30
     aa2:	0000                	unimp
     aa4:	fd05                	bnez	a0,9dc <__stack_align+0x9cc>
     aa6:	0004                	0x4
     aa8:	0400                	addi	s0,sp,512
     aaa:	0079183f be050000 	0xbe0500000079183f
     ab2:	0005                	c.nop	1
     ab4:	0400                	addi	s0,sp,512
     ab6:	0079184b          	fnmsub.s	fa6,fs2,ft7,ft0,rtz
     aba:	0000                	unimp
     abc:	2c05                	addiw	s8,s8,1
     abe:	0005                	c.nop	1
     ac0:	0400                	addi	s0,sp,512
     ac2:	145a                	slli	s0,s0,0x36
     ac4:	0080                	addi	s0,sp,64
     ac6:	0000                	unimp
     ac8:	f505                	bnez	a0,9f0 <__stack_align+0x9e0>
     aca:	0004                	0x4
     acc:	0400                	addi	s0,sp,512
     ace:	1066                	c.slli	zero,0x39
     ad0:	00b0                	addi	a2,sp,72
     ad2:	0000                	unimp
     ad4:	d905                	beqz	a0,a04 <__stack_align+0x9f4>
     ad6:	04000003          	lb	zero,64(zero) # 40 <__stack_align+0x30>
     ada:	0e74                	addi	a3,sp,796
     adc:	0034                	addi	a3,sp,8
     ade:	0000                	unimp
     ae0:	5505                	li	a0,-31
     ae2:	0004                	0x4
     ae4:	0400                	addi	s0,sp,512
     ae6:	00341793          	slli	a5,s0,0x3
     aea:	0000                	unimp
     aec:	0406                	slli	s0,s0,0x1
     aee:	a504                	fsd	fs1,8(a0)
     af0:	00013e03          	ld	t3,0(sp) # 2986a <__stack_size+0x2186a>
     af4:	0700                	addi	s0,sp,896
     af6:	01f8                	addi	a4,sp,204
     af8:	0000                	unimp
     afa:	a704                	fsd	fs1,8(a4)
     afc:	500c                	lw	a1,32(s0)
     afe:	0000                	unimp
     b00:	0700                	addi	s0,sp,896
     b02:	0188                	addi	a0,sp,192
     b04:	0000                	unimp
     b06:	a804                	fsd	fs1,16(s0)
     b08:	00013e13          	sltiu	t3,sp,0
     b0c:	0000                	unimp
     b0e:	6b08                	ld	a0,16(a4)
     b10:	0000                	unimp
     b12:	4e00                	lw	s0,24(a2)
     b14:	0001                	nop
     b16:	0900                	addi	s0,sp,144
     b18:	0000003b          	addw	zero,zero,zero
     b1c:	080a0003          	lb	zero,128(s4) # 3e758 <__stack_size+0x36758>
     b20:	a204                	fsd	fs1,0(a2)
     b22:	7209                	lui	tp,0xfffe2
     b24:	0001                	nop
     b26:	0b00                	addi	s0,sp,400
     b28:	000003c3          	fmadd.s	ft7,ft0,ft0,ft0,rne
     b2c:	a404                	fsd	fs1,8(s0)
     b2e:	00002d07          	flw	fs10,0(zero) # 0 <__boot_hart>
     b32:	0000                	unimp
     b34:	0003cb0b          	0x3cb0b
     b38:	0400                	addi	s0,sp,512
     b3a:	05a9                	addi	a1,a1,10
     b3c:	011c                	addi	a5,sp,128
     b3e:	0000                	unimp
     b40:	0004                	0x4
     b42:	3405                	addiw	s0,s0,-31
     b44:	04000003          	lb	zero,64(zero) # 40 <__stack_align+0x30>
     b48:	03aa                	slli	t2,t2,0xa
     b4a:	014e                	slli	sp,sp,0x13
     b4c:	0000                	unimp
     b4e:	080c                	addi	a1,sp,16
     b50:	f105                	bnez	a0,a70 <__stack_align+0xa60>
     b52:	0005                	c.nop	1
     b54:	0400                	addi	s0,sp,512
     b56:	18d1                	addi	a7,a7,-12
     b58:	0079                	c.nop	30
     b5a:	0000                	unimp
     b5c:	0b05                	addi	s6,s6,1
     b5e:	0004                	0x4
     b60:	0500                	addi	s0,sp,640
     b62:	1919                	addi	s2,s2,-26
     b64:	005d                	c.nop	23
     b66:	0000                	unimp
     b68:	de05                	beqz	a2,aa0 <__stack_align+0xa90>
     b6a:	0002                	c.slli64	zero
     b6c:	0600                	addi	s0,sp,768
     b6e:	0d0c                	addi	a1,sp,656
     b70:	002d                	c.nop	11
     b72:	0000                	unimp
     b74:	4b05                	li	s6,1
     b76:	0001                	nop
     b78:	0500                	addi	s0,sp,640
     b7a:	01981b23          	sh	s9,22(a6) # fffffffffffe9016 <ali3_data.1515+0xffffffff7ff98e16>
     b7e:	0000                	unimp
     b80:	5c0d                	li	s8,-29
     b82:	0001                	nop
     b84:	2000                	fld	fs0,0(s0)
     b86:	3405                	addiw	s0,s0,-31
     b88:	0a08                	addi	a0,sp,272
     b8a:	0002                	c.slli64	zero
     b8c:	0b00                	addi	s0,sp,400
     b8e:	035f 0000 3605      	0x36050000035f
     b94:	00020a13          	mv	s4,tp
     b98:	0000                	unimp
     b9a:	5f0e                	lw	t5,224(sp)
     b9c:	3705006b          	0x3705006b
     ba0:	00002d07          	flw	fs10,0(zero) # 0 <__boot_hart>
     ba4:	0800                	addi	s0,sp,16
     ba6:	0003a70b          	0x3a70b
     baa:	0500                	addi	s0,sp,640
     bac:	002d0b37          	lui	s6,0x2d0
     bb0:	0000                	unimp
     bb2:	0b0c                	addi	a1,sp,400
     bb4:	0145                	addi	sp,sp,17
     bb6:	0000                	unimp
     bb8:	3705                	addiw	a4,a4,-31
     bba:	2d14                	fld	fa3,24(a0)
     bbc:	0000                	unimp
     bbe:	1000                	addi	s0,sp,32
     bc0:	0004400b          	0x4400b
     bc4:	0500                	addi	s0,sp,640
     bc6:	002d1b37          	lui	s6,0x2d1
     bca:	0000                	unimp
     bcc:	0e14                	addi	a3,sp,784
     bce:	785f 0500 0b38      	0xb380500785f
     bd4:	0210                	addi	a2,sp,256
     bd6:	0000                	unimp
     bd8:	0018                	0x18
     bda:	01b0080f          	0x1b0080f
     bde:	0000                	unimp
     be0:	8c08                	0x8c08
     be2:	0001                	nop
     be4:	2000                	fld	fs0,0(s0)
     be6:	0002                	c.slli64	zero
     be8:	0900                	addi	s0,sp,144
     bea:	0000003b          	addw	zero,zero,zero
     bee:	0000                	unimp
     bf0:	830d                	srli	a4,a4,0x3
     bf2:	0001                	nop
     bf4:	2400                	fld	fs0,8(s0)
     bf6:	3c05                	addiw	s8,s8,-31
     bf8:	a308                	fsd	fa0,0(a4)
     bfa:	0002                	c.slli64	zero
     bfc:	0b00                	addi	s0,sp,400
     bfe:	0096                	slli	ra,ra,0x5
     c00:	0000                	unimp
     c02:	3e05                	addiw	t3,t3,-31
     c04:	2d09                	addiw	s10,s10,2
     c06:	0000                	unimp
     c08:	0000                	unimp
     c0a:	0003e10b          	0x3e10b
     c0e:	0500                	addi	s0,sp,640
     c10:	002d093f 0b040000 	0xb040000002d093f
     c18:	00b9                	addi	ra,ra,14
     c1a:	0000                	unimp
     c1c:	4005                	c.li	zero,1
     c1e:	2d09                	addiw	s10,s10,2
     c20:	0000                	unimp
     c22:	0800                	addi	s0,sp,16
     c24:	0004eb0b          	0x4eb0b
     c28:	0500                	addi	s0,sp,640
     c2a:	0941                	addi	s2,s2,16
     c2c:	002d                	c.nop	11
     c2e:	0000                	unimp
     c30:	0b0c                	addi	a1,sp,400
     c32:	02ad                	addi	t0,t0,11
     c34:	0000                	unimp
     c36:	4205                	li	tp,1
     c38:	2d09                	addiw	s10,s10,2
     c3a:	0000                	unimp
     c3c:	1000                	addi	s0,sp,32
     c3e:	0002870b          	0x2870b
     c42:	0500                	addi	s0,sp,640
     c44:	002d0943          	fmadd.s	fs2,fs10,ft2,ft0,rne
     c48:	0000                	unimp
     c4a:	0b14                	addi	a3,sp,400
     c4c:	0445                	addi	s0,s0,17
     c4e:	0000                	unimp
     c50:	4405                	li	s0,1
     c52:	2d09                	addiw	s10,s10,2
     c54:	0000                	unimp
     c56:	1800                	addi	s0,sp,48
     c58:	0003160b          	0x3160b
     c5c:	0500                	addi	s0,sp,640
     c5e:	0945                	addi	s2,s2,17
     c60:	002d                	c.nop	11
     c62:	0000                	unimp
     c64:	0b1c                	addi	a5,sp,400
     c66:	0480                	addi	s0,sp,576
     c68:	0000                	unimp
     c6a:	4605                	li	a2,1
     c6c:	2d09                	addiw	s10,s10,2
     c6e:	0000                	unimp
     c70:	2000                	fld	fs0,0(s0)
     c72:	1000                	addi	s0,sp,32
     c74:	00c8                	addi	a0,sp,68
     c76:	0000                	unimp
     c78:	0208                	addi	a0,sp,256
     c7a:	4f05                	li	t5,1
     c7c:	e908                	sd	a0,16(a0)
     c7e:	0002                	c.slli64	zero
     c80:	0b00                	addi	s0,sp,400
     c82:	0138                	addi	a4,sp,136
     c84:	0000                	unimp
     c86:	5005                	c.li	zero,-31
     c88:	e90a                	sd	sp,144(sp)
     c8a:	0002                	c.slli64	zero
     c8c:	0000                	unimp
     c8e:	0011                	c.nop	4
     c90:	0000                	unimp
     c92:	0500                	addi	s0,sp,640
     c94:	0951                	addi	s2,s2,20
     c96:	02e9                	addi	t0,t0,26
     c98:	0000                	unimp
     c9a:	0100                	addi	s0,sp,128
     c9c:	fd11                	bnez	a0,bb8 <__stack_align+0xba8>
     c9e:	05000003          	lb	zero,80(zero) # 50 <__stack_align+0x40>
     ca2:	018c0a53          	fadd.s	fs4,fs8,fs8,rne
     ca6:	0000                	unimp
     ca8:	0200                	addi	s0,sp,256
     caa:	f511                	bnez	a0,bb6 <__stack_align+0xba6>
     cac:	0000                	unimp
     cae:	0500                	addi	s0,sp,640
     cb0:	0a56                	slli	s4,s4,0x15
     cb2:	018c                	addi	a1,sp,192
     cb4:	0000                	unimp
     cb6:	0204                	addi	s1,sp,256
     cb8:	0800                	addi	s0,sp,16
     cba:	017e                	slli	sp,sp,0x1f
     cbc:	0000                	unimp
     cbe:	02f9                	addi	t0,t0,30
     cc0:	0000                	unimp
     cc2:	3b09                	addiw	s6,s6,-30
     cc4:	0000                	unimp
     cc6:	1f00                	addi	s0,sp,944
     cc8:	1000                	addi	s0,sp,32
     cca:	02b6                	slli	t0,t0,0xd
     ccc:	0000                	unimp
     cce:	0318                	addi	a4,sp,384
     cd0:	6205                	lui	tp,0x1
     cd2:	3d08                	fld	fa0,56(a0)
     cd4:	0b000003          	lb	zero,176(zero) # b0 <__stack_align+0xa0>
     cd8:	035f 0000 6305      	0x63050000035f
     cde:	3d12                	fld	fs10,288(sp)
     ce0:	00000003          	lb	zero,0(zero) # 0 <__boot_hart>
     ce4:	0003770b          	0x3770b
     ce8:	0500                	addi	s0,sp,640
     cea:	0664                	addi	s1,sp,780
     cec:	002d                	c.nop	11
     cee:	0000                	unimp
     cf0:	0b08                	addi	a0,sp,400
     cf2:	0140                	addi	s0,sp,132
     cf4:	0000                	unimp
     cf6:	6605                	lui	a2,0x1
     cf8:	4309                	li	t1,2
     cfa:	10000003          	lb	zero,256(zero) # 100 <__stack_align+0xf0>
     cfe:	c811                	beqz	s0,d12 <__stack_align+0xd02>
     d00:	0000                	unimp
     d02:	0500                	addi	s0,sp,640
     d04:	02a31e67          	0x2a31e67
     d08:	0000                	unimp
     d0a:	0110                	addi	a2,sp,128
     d0c:	0f00                	addi	s0,sp,912
     d0e:	f908                	sd	a0,48(a0)
     d10:	0002                	c.slli64	zero
     d12:	0800                	addi	s0,sp,16
     d14:	00000353          	fadd.s	ft6,ft0,ft0,rne
     d18:	00000353          	fadd.s	ft6,ft0,ft0,rne
     d1c:	3b09                	addiw	s6,s6,-30
     d1e:	0000                	unimp
     d20:	1f00                	addi	s0,sp,944
     d22:	0f00                	addi	s0,sp,912
     d24:	5908                	lw	a0,48(a0)
     d26:	12000003          	lb	zero,288(zero) # 120 <__stack_align+0x110>
     d2a:	200d                	0x200d
     d2c:	10000003          	lb	zero,256(zero) # 100 <__stack_align+0xf0>
     d30:	7a05                	lui	s4,0xfffe1
     d32:	8208                	0x8208
     d34:	0b000003          	lb	zero,176(zero) # b0 <__stack_align+0xa0>
     d38:	000000b3          	add	ra,zero,zero
     d3c:	7b05                	lui	s6,0xfffe1
     d3e:	8211                	srli	a2,a2,0x4
     d40:	00000003          	lb	zero,0(zero) # 0 <__boot_hart>
     d44:	00074e0b          	0x74e0b
     d48:	0500                	addi	s0,sp,640
     d4a:	067c                	addi	a5,sp,780
     d4c:	002d                	c.nop	11
     d4e:	0000                	unimp
     d50:	0008                	0x8
     d52:	006b080f          	0x6b080f
     d56:	0000                	unimp
     d58:	3f0d                	addiw	t5,t5,-29
     d5a:	b0000003          	lb	zero,-1280(zero) # fffffffffffffb00 <ali3_data.1515+0xffffffff7ffaf900>
     d5e:	ba05                	j	68e <__stack_align+0x67e>
     d60:	cb08                	sw	a0,16(a4)
     d62:	0004                	0x4
     d64:	0e00                	addi	s0,sp,784
     d66:	705f 0500 12bb      	0x12bb0500705f
     d6c:	0382                	c.slli64	t2
     d6e:	0000                	unimp
     d70:	0e00                	addi	s0,sp,784
     d72:	725f 0500 07bc      	0x7bc0500725f
     d78:	002d                	c.nop	11
     d7a:	0000                	unimp
     d7c:	0e08                	addi	a0,sp,784
     d7e:	775f 0500 07bd      	0x7bd0500775f
     d84:	002d                	c.nop	11
     d86:	0000                	unimp
     d88:	0b0c                	addi	a1,sp,400
     d8a:	00ee                	slli	ra,ra,0x1b
     d8c:	0000                	unimp
     d8e:	be05                	j	8be <__stack_align+0x8ae>
     d90:	7209                	lui	tp,0xfffe2
     d92:	0000                	unimp
     d94:	1000                	addi	s0,sp,32
     d96:	00019f0b          	0x19f0b
     d9a:	0500                	addi	s0,sp,640
     d9c:	007209bf 0e120000 	0xe120000007209bf
     da4:	625f 0066 c005      	0xc0050066625f
     daa:	5a11                	li	s4,-28
     dac:	18000003          	lb	zero,384(zero) # 180 <__stack_align+0x170>
     db0:	00005c0b          	0x5c0b
     db4:	0500                	addi	s0,sp,640
     db6:	07c1                	addi	a5,a5,16
     db8:	002d                	c.nop	11
     dba:	0000                	unimp
     dbc:	0b28                	addi	a0,sp,408
     dbe:	00d6                	slli	ra,ra,0x15
     dc0:	0000                	unimp
     dc2:	c805                	beqz	s0,df2 <__stack_align+0xde2>
     dc4:	7e0a                	ld	t3,160(sp)
     dc6:	0001                	nop
     dc8:	3000                	fld	fs0,32(s0)
     dca:	0001730b          	0x1730b
     dce:	0500                	addi	s0,sp,640
     dd0:	1dca                	slli	s11,s11,0x32
     dd2:	0000064f          	fnmadd.s	fa2,ft0,ft0,ft0,rne
     dd6:	0b38                	addi	a4,sp,408
     dd8:	0280                	addi	s0,sp,320
     dda:	0000                	unimp
     ddc:	cc05                	beqz	s0,e14 <__stack_align+0xe04>
     dde:	7e1d                	lui	t3,0xfffe7
     de0:	0006                	c.slli	zero,0x1
     de2:	4000                	lw	s0,0(s0)
     de4:	0003d30b          	0x3d30b
     de8:	0500                	addi	s0,sp,640
     dea:	06a20dcf          	fnmadd.q	fs11,ft4,fa0,ft0,rne
     dee:	0000                	unimp
     df0:	0b48                	addi	a0,sp,404
     df2:	049a                	slli	s1,s1,0x6
     df4:	0000                	unimp
     df6:	d005                	beqz	s0,d16 <__stack_align+0xd06>
     df8:	bc09                	j	80a <__stack_align+0x7fa>
     dfa:	0006                	c.slli	zero,0x1
     dfc:	5000                	lw	s0,32(s0)
     dfe:	5f0e                	lw	t5,224(sp)
     e00:	6275                	lui	tp,0x1d
     e02:	0500                	addi	s0,sp,640
     e04:	035a11d3          	fadd.d	ft3,fs4,fs5,rtz
     e08:	0000                	unimp
     e0a:	0e58                	addi	a4,sp,788
     e0c:	755f 0070 d405      	0xd4050070755f
     e12:	8212                	mv	tp,tp
     e14:	68000003          	lb	zero,1664(zero) # 680 <__stack_align+0x670>
     e18:	5f0e                	lw	t5,224(sp)
     e1a:	7275                	lui	tp,0xffffd
     e1c:	0500                	addi	s0,sp,640
     e1e:	07d5                	addi	a5,a5,21
     e20:	002d                	c.nop	11
     e22:	0000                	unimp
     e24:	0b70                	addi	a2,sp,412
     e26:	00ad                	addi	ra,ra,11
     e28:	0000                	unimp
     e2a:	d805                	beqz	s0,d5a <__stack_align+0xd4a>
     e2c:	c211                	beqz	a2,e30 <__stack_align+0xe20>
     e2e:	0006                	c.slli	zero,0x1
     e30:	7400                	ld	s0,40(s0)
     e32:	0004720b          	0x4720b
     e36:	0500                	addi	s0,sp,640
     e38:	11d9                	addi	gp,gp,-10
     e3a:	06d2                	slli	a3,a3,0x14
     e3c:	0000                	unimp
     e3e:	6c5f0e77          	0x6c5f0e77
     e42:	0062                	c.slli	zero,0x18
     e44:	dc05                	beqz	s0,d7c <__stack_align+0xd6c>
     e46:	5a11                	li	s4,-28
     e48:	78000003          	lb	zero,1920(zero) # 780 <__stack_align+0x770>
     e4c:	0005ac0b          	0x5ac0b
     e50:	0500                	addi	s0,sp,640
     e52:	07df 002d 0000      	0x2d07df
     e58:	0b88                	addi	a0,sp,464
     e5a:	0000077b          	0x77b
     e5e:	e005                	bnez	s0,e7e <__stack_align+0xe6e>
     e60:	b00a                	fsd	ft2,32(sp)
     e62:	0000                	unimp
     e64:	9000                	0x9000
     e66:	00001f0b          	0x1f0b
     e6a:	0500                	addi	s0,sp,640
     e6c:	04e912e3          	bne	s2,a4,16b0 <__stack_align+0x16a0>
     e70:	0000                	unimp
     e72:	0b98                	addi	a4,sp,464
     e74:	000007ef          	jal	a5,e74 <__stack_align+0xe64>
     e78:	e705                	bnez	a4,ea0 <__stack_align+0xe90>
     e7a:	a40c                	fsd	fa1,8(s0)
     e7c:	0001                	nop
     e7e:	a000                	fsd	fs0,0(s0)
     e80:	0003510b          	0x3510b
     e84:	0500                	addi	s0,sp,640
     e86:	0ee9                	addi	t4,t4,26
     e88:	0172                	slli	sp,sp,0x1c
     e8a:	0000                	unimp
     e8c:	0ba4                	addi	s1,sp,472
     e8e:	0205                	addi	tp,tp,1
     e90:	0000                	unimp
     e92:	ea05                	bnez	a2,ec2 <__stack_align+0xeb2>
     e94:	2d09                	addiw	s10,s10,2
     e96:	0000                	unimp
     e98:	ac00                	fsd	fs0,24(s0)
     e9a:	1300                	addi	s0,sp,416
     e9c:	0110                	addi	a2,sp,128
     e9e:	0000                	unimp
     ea0:	04e9                	addi	s1,s1,26
     ea2:	0000                	unimp
     ea4:	e914                	sd	a3,16(a0)
     ea6:	0004                	0x4
     ea8:	1400                	addi	s0,sp,544
     eaa:	017e                	slli	sp,sp,0x1f
     eac:	0000                	unimp
     eae:	3d14                	fld	fa3,56(a0)
     eb0:	0006                	c.slli	zero,0x1
     eb2:	1400                	addi	s0,sp,544
     eb4:	002d                	c.nop	11
     eb6:	0000                	unimp
     eb8:	0f00                	addi	s0,sp,912
     eba:	f408                	sd	a0,40(s0)
     ebc:	0004                	0x4
     ebe:	1500                	addi	s0,sp,672
     ec0:	04e9                	addi	s1,s1,26
     ec2:	0000                	unimp
     ec4:	af16                	fsd	ft5,408(sp)
     ec6:	48000003          	lb	zero,1152(zero) # 480 <__stack_align+0x470>
     eca:	02650507          	0x2650507
     ece:	3d08                	fld	fa0,56(a0)
     ed0:	0006                	c.slli	zero,0x1
     ed2:	1700                	addi	s0,sp,928
     ed4:	000000e7          	jalr	zero # 0 <__boot_hart>
     ed8:	6705                	lui	a4,0x1
     eda:	0702                	c.slli64	a4
     edc:	002d                	c.nop	11
     ede:	0000                	unimp
     ee0:	1700                	addi	s0,sp,928
     ee2:	00fd                	addi	ra,ra,31
     ee4:	0000                	unimp
     ee6:	6c05                	lui	s8,0x1
     ee8:	0b02                	c.slli64	s6
     eea:	072e                	slli	a4,a4,0xb
     eec:	0000                	unimp
     eee:	1708                	addi	a0,sp,928
     ef0:	0000018f          	0x18f
     ef4:	6c05                	lui	s8,0x1
     ef6:	1402                	slli	s0,s0,0x20
     ef8:	072e                	slli	a4,a4,0xb
     efa:	0000                	unimp
     efc:	1710                	addi	a2,sp,928
     efe:	0154                	addi	a3,sp,132
     f00:	0000                	unimp
     f02:	6c05                	lui	s8,0x1
     f04:	1e02                	slli	t3,t3,0x20
     f06:	072e                	slli	a4,a4,0xb
     f08:	0000                	unimp
     f0a:	1718                	addi	a4,sp,928
     f0c:	0372                	slli	t1,t1,0x1c
     f0e:	0000                	unimp
     f10:	6e05                	lui	t3,0x1
     f12:	0802                	c.slli64	a6
     f14:	002d                	c.nop	11
     f16:	0000                	unimp
     f18:	1720                	addi	s0,sp,936
     f1a:	0014                	0x14
     f1c:	0000                	unimp
     f1e:	6f05                	lui	t5,0x1
     f20:	0802                	c.slli64	a6
     f22:	00000937          	lui	s2,0x0
     f26:	1724                	addi	s1,sp,936
     f28:	038e                	slli	t2,t2,0x3
     f2a:	0000                	unimp
     f2c:	7205                	lui	tp,0xfffe1
     f2e:	0702                	c.slli64	a4
     f30:	002d                	c.nop	11
     f32:	0000                	unimp
     f34:	1740                	addi	s0,sp,932
     f36:	037c                	addi	a5,sp,396
     f38:	0000                	unimp
     f3a:	7305                	lui	t1,0xfffe1
     f3c:	1602                	slli	a2,a2,0x20
     f3e:	094c                	addi	a1,sp,148
     f40:	0000                	unimp
     f42:	1748                	addi	a0,sp,932
     f44:	02be                	slli	t0,t0,0xf
     f46:	0000                	unimp
     f48:	7505                	lui	a0,0xfffe1
     f4a:	0702                	c.slli64	a4
     f4c:	002d                	c.nop	11
     f4e:	0000                	unimp
     f50:	1750                	addi	a2,sp,932
     f52:	0384                	addi	s1,sp,448
     f54:	0000                	unimp
     f56:	7705                	lui	a4,0xfffe1
     f58:	0a02                	c.slli64	s4
     f5a:	095d                	addi	s2,s2,23
     f5c:	0000                	unimp
     f5e:	1758                	addi	a4,sp,932
     f60:	01f0                	addi	a2,sp,204
     f62:	0000                	unimp
     f64:	7a05                	lui	s4,0xfffe1
     f66:	1302                	slli	t1,t1,0x20
     f68:	020a                	slli	tp,tp,0x2
     f6a:	0000                	unimp
     f6c:	1760                	addi	s0,sp,940
     f6e:	0179                	addi	sp,sp,30
     f70:	0000                	unimp
     f72:	7b05                	lui	s6,0xfffe1
     f74:	0702                	c.slli64	a4
     f76:	002d                	c.nop	11
     f78:	0000                	unimp
     f7a:	1768                	addi	a0,sp,940
     f7c:	04b4                	addi	a3,sp,584
     f7e:	0000                	unimp
     f80:	7c05                	lui	s8,0xfffe1
     f82:	1302                	slli	t1,t1,0x20
     f84:	020a                	slli	tp,tp,0x2
     f86:	0000                	unimp
     f88:	1770                	addi	a2,sp,940
     f8a:	02d4                	addi	a3,sp,324
     f8c:	0000                	unimp
     f8e:	7d05                	lui	s10,0xfffe1
     f90:	1402                	slli	s0,s0,0x20
     f92:	00000963          	beqz	zero,fa4 <__stack_align+0xf94>
     f96:	1778                	addi	a4,sp,940
     f98:	00000197          	auipc	gp,0x0
     f9c:	8005                	srli	s0,s0,0x1
     f9e:	0702                	c.slli64	a4
     fa0:	002d                	c.nop	11
     fa2:	0000                	unimp
     fa4:	1780                	addi	s0,sp,992
     fa6:	0111                	addi	sp,sp,4
     fa8:	0000                	unimp
     faa:	8105                	srli	a0,a0,0x1
     fac:	0902                	c.slli64	s2
     fae:	063d                	addi	a2,a2,15
     fb0:	0000                	unimp
     fb2:	1788                	addi	a0,sp,992
     fb4:	02fe                	slli	t0,t0,0x1f
     fb6:	0000                	unimp
     fb8:	a405                	j	11d8 <__stack_align+0x11c8>
     fba:	0702                	c.slli64	a4
     fbc:	0911                	addi	s2,s2,4
     fbe:	0000                	unimp
     fc0:	1890                	addi	a2,sp,112
     fc2:	02b6                	slli	t0,t0,0xd
     fc4:	0000                	unimp
     fc6:	a805                	j	ff6 <__stack_align+0xfe6>
     fc8:	1302                	slli	t1,t1,0x20
     fca:	033d                	addi	t1,t1,15
     fcc:	0000                	unimp
     fce:	01f8                	addi	a4,sp,204
     fd0:	ce18                	sw	a4,24(a2)
     fd2:	0001                	nop
     fd4:	0500                	addi	s0,sp,640
     fd6:	02a9                	addi	t0,t0,10
     fd8:	f912                	sd	tp,176(sp)
     fda:	0002                	c.slli64	zero
     fdc:	0000                	unimp
     fde:	1802                	slli	a6,a6,0x20
     fe0:	0468                	addi	a0,sp,524
     fe2:	0000                	unimp
     fe4:	ad05                	j	1614 <__stack_align+0x1604>
     fe6:	0c02                	c.slli64	s8
     fe8:	0974                	addi	a3,sp,156
     fea:	0000                	unimp
     fec:	0518                	addi	a4,sp,640
     fee:	de18                	sw	a4,56(a2)
     ff0:	0000                	unimp
     ff2:	0500                	addi	s0,sp,640
     ff4:	02b2                	slli	t0,t0,0xc
     ff6:	ef10                	sd	a2,24(a4)
     ff8:	0006                	c.slli	zero,0x1
     ffa:	2000                	fld	fs0,0(s0)
     ffc:	1805                	addi	a6,a6,-31
     ffe:	000000c3          	fmadd.s	ft1,ft0,ft0,ft0,rne
    1002:	b405                	j	a22 <__stack_align+0xa12>
    1004:	0a02                	c.slli64	s4
    1006:	0980                	addi	s0,sp,208
    1008:	0000                	unimp
    100a:	0538                	addi	a4,sp,648
    100c:	0f00                	addi	s0,sp,912
    100e:	4308                	lw	a0,0(a4)
    1010:	0006                	c.slli	zero,0x1
    1012:	0300                	addi	s0,sp,384
    1014:	0801                	addi	a6,a6,0
    1016:	02f9                	addi	t0,t0,30
    1018:	0000                	unimp
    101a:	4315                	li	t1,5
    101c:	0006                	c.slli	zero,0x1
    101e:	0f00                	addi	s0,sp,912
    1020:	cb08                	sw	a0,16(a4)
    1022:	0004                	0x4
    1024:	1300                	addi	s0,sp,416
    1026:	0110                	addi	a2,sp,128
    1028:	0000                	unimp
    102a:	00000673          	0x673
    102e:	e914                	sd	a3,16(a0)
    1030:	0004                	0x4
    1032:	1400                	addi	s0,sp,544
    1034:	017e                	slli	sp,sp,0x1f
    1036:	0000                	unimp
    1038:	7314                	ld	a3,32(a4)
    103a:	0006                	c.slli	zero,0x1
    103c:	1400                	addi	s0,sp,544
    103e:	002d                	c.nop	11
    1040:	0000                	unimp
    1042:	0f00                	addi	s0,sp,912
    1044:	4a08                	lw	a0,16(a2)
    1046:	0006                	c.slli	zero,0x1
    1048:	1500                	addi	s0,sp,672
    104a:	00000673          	0x673
    104e:	0655080f          	0x655080f
    1052:	0000                	unimp
    1054:	00010413          	mv	s0,sp
    1058:	a200                	fsd	fs0,0(a2)
    105a:	0006                	c.slli	zero,0x1
    105c:	1400                	addi	s0,sp,544
    105e:	04e9                	addi	s1,s1,26
    1060:	0000                	unimp
    1062:	7e14                	ld	a3,56(a2)
    1064:	0001                	nop
    1066:	1400                	addi	s0,sp,544
    1068:	0104                	addi	s1,sp,128
    106a:	0000                	unimp
    106c:	2d14                	fld	fa3,24(a0)
    106e:	0000                	unimp
    1070:	0000                	unimp
    1072:	0684080f          	0x684080f
    1076:	0000                	unimp
    1078:	00002d13          	slti	s10,zero,0
    107c:	bc00                	fsd	fs0,56(s0)
    107e:	0006                	c.slli	zero,0x1
    1080:	1400                	addi	s0,sp,544
    1082:	04e9                	addi	s1,s1,26
    1084:	0000                	unimp
    1086:	7e14                	ld	a3,56(a2)
    1088:	0001                	nop
    108a:	0000                	unimp
    108c:	06a8080f          	0x6a8080f
    1090:	0000                	unimp
    1092:	6b08                	ld	a0,16(a4)
    1094:	0000                	unimp
    1096:	d200                	sw	s0,32(a2)
    1098:	0006                	c.slli	zero,0x1
    109a:	0900                	addi	s0,sp,144
    109c:	0000003b          	addw	zero,zero,zero
    10a0:	0002                	c.slli64	zero
    10a2:	6b08                	ld	a0,16(a4)
    10a4:	0000                	unimp
    10a6:	e200                	sd	s0,0(a2)
    10a8:	0006                	c.slli	zero,0x1
    10aa:	0900                	addi	s0,sp,144
    10ac:	0000003b          	addw	zero,zero,zero
    10b0:	0000                	unimp
    10b2:	2d04                	fld	fs1,24(a0)
    10b4:	05000003          	lb	zero,80(zero) # 50 <__stack_align+0x40>
    10b8:	0124                	addi	s1,sp,136
    10ba:	881a                	mv	a6,t1
    10bc:	19000003          	lb	zero,400(zero) # 190 <__stack_align+0x180>
    10c0:	0000044f          	fnmadd.s	fs0,ft0,ft0,ft0,rne
    10c4:	0518                	addi	a4,sp,640
    10c6:	0128                	addi	a0,sp,136
    10c8:	2808                	fld	fa0,16(s0)
    10ca:	17000007          	0x17000007
    10ce:	035f 0000 2a05      	0x2a050000035f
    10d4:	1101                	addi	sp,sp,-32
    10d6:	0728                	addi	a0,sp,904
    10d8:	0000                	unimp
    10da:	1700                	addi	s0,sp,928
    10dc:	01b4                	addi	a3,sp,200
    10de:	0000                	unimp
    10e0:	2b05                	addiw	s6,s6,1
    10e2:	0701                	addi	a4,a4,0
    10e4:	002d                	c.nop	11
    10e6:	0000                	unimp
    10e8:	1708                	addi	a0,sp,928
    10ea:	00000327          	0x327
    10ee:	2c05                	addiw	s8,s8,1
    10f0:	0b01                	addi	s6,s6,0
    10f2:	072e                	slli	a4,a4,0xb
    10f4:	0000                	unimp
    10f6:	0010                	0x10
    10f8:	06ef080f          	0x6ef080f
    10fc:	0000                	unimp
    10fe:	06e2080f          	0x6e2080f
    1102:	0000                	unimp
    1104:	0c19                	addi	s8,s8,6
    1106:	0000                	unimp
    1108:	0e00                	addi	s0,sp,784
    110a:	4405                	li	s0,1
    110c:	0801                	addi	a6,a6,0
    110e:	076d                	addi	a4,a4,27
    1110:	0000                	unimp
    1112:	0003b617          	auipc	a2,0x3b
    1116:	0500                	addi	s0,sp,640
    1118:	0145                	addi	sp,sp,17
    111a:	6d12                	ld	s10,256(sp)
    111c:	00000007          	0x7
    1120:	0003ea17          	auipc	s4,0x3e
    1124:	0500                	addi	s0,sp,640
    1126:	0146                	slli	sp,sp,0x11
    1128:	6d12                	ld	s10,256(sp)
    112a:	06000007          	0x6000007
    112e:	00040617          	auipc	a2,0x40
    1132:	0500                	addi	s0,sp,640
    1134:	79120147          	fmsub.s	ft2,ft4,fa7,fa5,rne
    1138:	0000                	unimp
    113a:	0c00                	addi	s0,sp,528
    113c:	0800                	addi	s0,sp,16
    113e:	0079                	c.nop	30
    1140:	0000                	unimp
    1142:	077d                	addi	a4,a4,31
    1144:	0000                	unimp
    1146:	3b09                	addiw	s6,s6,-30
    1148:	0000                	unimp
    114a:	0200                	addi	s0,sp,256
    114c:	1a00                	addi	s0,sp,304
    114e:	05d8                	addi	a4,sp,708
    1150:	0285                	addi	t0,t0,1
    1152:	00089207          	0x89207
    1156:	1700                	addi	s0,sp,928
    1158:	00000433          	add	s0,zero,zero
    115c:	8705                	srai	a4,a4,0x1
    115e:	1802                	slli	a6,a6,0x20
    1160:	005d                	c.nop	23
    1162:	0000                	unimp
    1164:	1700                	addi	s0,sp,928
    1166:	03f0                	addi	a2,sp,460
    1168:	0000                	unimp
    116a:	8805                	andi	s0,s0,1
    116c:	1202                	slli	tp,tp,0x20
    116e:	063d                	addi	a2,a2,15
    1170:	0000                	unimp
    1172:	1708                	addi	a0,sp,928
    1174:	000001e3          	beqz	zero,1976 <__stack_align+0x1966>
    1178:	8905                	andi	a0,a0,1
    117a:	1002                	c.slli	zero,0x20
    117c:	0892                	slli	a7,a7,0x4
    117e:	0000                	unimp
    1180:	1710                	addi	a2,sp,928
    1182:	0000048b          	0x48b
    1186:	8a05                	andi	a2,a2,1
    1188:	1702                	slli	a4,a4,0x20
    118a:	0220                	addi	s0,sp,264
    118c:	0000                	unimp
    118e:	172c                	addi	a1,sp,936
    1190:	0164                	addi	s1,sp,140
    1192:	0000                	unimp
    1194:	8b05                	andi	a4,a4,1
    1196:	0f02                	c.slli64	t5
    1198:	002d                	c.nop	11
    119a:	0000                	unimp
    119c:	1750                	addi	a2,sp,932
    119e:	035a                	slli	t1,t1,0x16
    11a0:	0000                	unimp
    11a2:	8c05                	sub	s0,s0,s1
    11a4:	2c02                	fld	fs8,0(sp)
    11a6:	08a2                	slli	a7,a7,0x8
    11a8:	0000                	unimp
    11aa:	1758                	addi	a4,sp,932
    11ac:	04a1                	addi	s1,s1,8
    11ae:	0000                	unimp
    11b0:	8d05                	sub	a0,a0,s1
    11b2:	1a02                	slli	s4,s4,0x20
    11b4:	0734                	addi	a3,sp,904
    11b6:	0000                	unimp
    11b8:	1760                	addi	s0,sp,940
    11ba:	0365                	addi	t1,t1,25
    11bc:	0000                	unimp
    11be:	8e05                	sub	a2,a2,s1
    11c0:	1602                	slli	a2,a2,0x20
    11c2:	0172                	slli	sp,sp,0x1c
    11c4:	0000                	unimp
    11c6:	1770                	addi	a2,sp,940
    11c8:	04a6                	slli	s1,s1,0x9
    11ca:	0000                	unimp
    11cc:	8f05                	sub	a4,a4,s1
    11ce:	1602                	slli	a2,a2,0x20
    11d0:	0172                	slli	sp,sp,0x1c
    11d2:	0000                	unimp
    11d4:	1778                	addi	a4,sp,940
    11d6:	0088                	addi	a0,sp,64
    11d8:	0000                	unimp
    11da:	9005                	srli	s0,s0,0x21
    11dc:	1602                	slli	a2,a2,0x20
    11de:	0172                	slli	sp,sp,0x1c
    11e0:	0000                	unimp
    11e2:	1780                	addi	s0,sp,992
    11e4:	045e                	slli	s0,s0,0x17
    11e6:	0000                	unimp
    11e8:	9105                	srli	a0,a0,0x21
    11ea:	1002                	c.slli	zero,0x20
    11ec:	08a9                	addi	a7,a7,10
    11ee:	0000                	unimp
    11f0:	1788                	addi	a0,sp,992
    11f2:	000001d7          	0x1d7
    11f6:	9205                	srli	a2,a2,0x21
    11f8:	1002                	c.slli	zero,0x20
    11fa:	08b9                	addi	a7,a7,14
    11fc:	0000                	unimp
    11fe:	1790                	addi	a2,sp,992
    1200:	00000413          	li	s0,0
    1204:	9305                	srli	a4,a4,0x21
    1206:	0f02                	c.slli64	t5
    1208:	002d                	c.nop	11
    120a:	0000                	unimp
    120c:	17a8                	addi	a0,sp,1000
    120e:	012a                	slli	sp,sp,0xa
    1210:	0000                	unimp
    1212:	9405                	srai	s0,s0,0x21
    1214:	1602                	slli	a2,a2,0x20
    1216:	0172                	slli	sp,sp,0x1c
    1218:	0000                	unimp
    121a:	17ac                	addi	a1,sp,1000
    121c:	0079                	c.nop	30
    121e:	0000                	unimp
    1220:	9505                	srai	a0,a0,0x21
    1222:	1602                	slli	a2,a2,0x20
    1224:	0172                	slli	sp,sp,0x1c
    1226:	0000                	unimp
    1228:	17b4                	addi	a3,sp,1000
    122a:	0119                	addi	sp,sp,6
    122c:	0000                	unimp
    122e:	9605                	srai	a2,a2,0x21
    1230:	1602                	slli	a2,a2,0x20
    1232:	0172                	slli	sp,sp,0x1c
    1234:	0000                	unimp
    1236:	17bc                	addi	a5,sp,1000
    1238:	0025                	c.nop	9
    123a:	0000                	unimp
    123c:	9705                	srai	a4,a4,0x21
    123e:	1602                	slli	a2,a2,0x20
    1240:	0172                	slli	sp,sp,0x1c
    1242:	0000                	unimp
    1244:	17c4                	addi	s1,sp,996
    1246:	0034                	addi	a3,sp,8
    1248:	0000                	unimp
    124a:	9805                	andi	s0,s0,-31
    124c:	1602                	slli	a2,a2,0x20
    124e:	0172                	slli	sp,sp,0x1c
    1250:	0000                	unimp
    1252:	17cc                	addi	a1,sp,996
    1254:	00000303          	lb	t1,0(zero) # 0 <__boot_hart>
    1258:	9905                	andi	a0,a0,-31
    125a:	0802                	c.slli64	a6
    125c:	002d                	c.nop	11
    125e:	0000                	unimp
    1260:	00d4                	addi	a3,sp,68
    1262:	4308                	lw	a0,0(a4)
    1264:	0006                	c.slli	zero,0x1
    1266:	a200                	fsd	fs0,0(a2)
    1268:	0008                	0x8
    126a:	0900                	addi	s0,sp,144
    126c:	0000003b          	addw	zero,zero,zero
    1270:	0019                	c.nop	6
    1272:	45070803          	lb	a6,1104(a4) # fffffffffffe1450 <ali3_data.1515+0xffffffff7ff91250>
    1276:	0000                	unimp
    1278:	0800                	addi	s0,sp,16
    127a:	00000643          	fmadd.s	fa2,ft0,ft0,ft0,rne
    127e:	08b9                	addi	a7,a7,14
    1280:	0000                	unimp
    1282:	3b09                	addiw	s6,s6,-30
    1284:	0000                	unimp
    1286:	0700                	addi	s0,sp,896
    1288:	0800                	addi	s0,sp,16
    128a:	00000643          	fmadd.s	fa2,ft0,ft0,ft0,rne
    128e:	08c9                	addi	a7,a7,18
    1290:	0000                	unimp
    1292:	3b09                	addiw	s6,s6,-30
    1294:	0000                	unimp
    1296:	1700                	addi	s0,sp,928
    1298:	1b00                	addi	s0,sp,432
    129a:	0168                	addi	a0,sp,140
    129c:	9e05                	subw	a2,a2,s1
    129e:	0702                	c.slli64	a4
    12a0:	08f1                	addi	a7,a7,28
    12a2:	0000                	unimp
    12a4:	0002a617          	auipc	a2,0x2a
    12a8:	0500                	addi	s0,sp,640
    12aa:	02a1                	addi	t0,t0,8
    12ac:	0008f11b          	0x8f11b
    12b0:	0000                	unimp
    12b2:	00029117          	auipc	sp,0x29
    12b6:	0500                	addi	s0,sp,640
    12b8:	02a2                	slli	t0,t0,0x8
    12ba:	0118                	addi	a4,sp,128
    12bc:	0009                	c.nop	2
    12be:	f000                	sd	s0,32(s0)
    12c0:	0800                	addi	s0,sp,16
    12c2:	0382                	c.slli64	t2
    12c4:	0000                	unimp
    12c6:	0901                	addi	s2,s2,0
    12c8:	0000                	unimp
    12ca:	3b09                	addiw	s6,s6,-30
    12cc:	0000                	unimp
    12ce:	1d00                	addi	s0,sp,688
    12d0:	0800                	addi	s0,sp,16
    12d2:	005d                	c.nop	23
    12d4:	0000                	unimp
    12d6:	0911                	addi	s2,s2,4
    12d8:	0000                	unimp
    12da:	3b09                	addiw	s6,s6,-30
    12dc:	0000                	unimp
    12de:	1d00                	addi	s0,sp,688
    12e0:	1c00                	addi	s0,sp,560
    12e2:	0168                	addi	a0,sp,140
    12e4:	8305                	srli	a4,a4,0x1
    12e6:	0302                	c.slli64	t1
    12e8:	00000937          	lui	s2,0x0
    12ec:	af1d                	j	1a22 <__stack_align+0x1a12>
    12ee:	05000003          	lb	zero,80(zero) # 50 <__stack_align+0x40>
    12f2:	029a                	slli	t0,t0,0x6
    12f4:	00077d0b          	0x77d0b
    12f8:	1d00                	addi	s0,sp,688
    12fa:	0478                	addi	a4,sp,524
    12fc:	0000                	unimp
    12fe:	a305                	j	181e <__stack_align+0x180e>
    1300:	0b02                	c.slli64	s6
    1302:	08c9                	addi	a7,a7,18
    1304:	0000                	unimp
    1306:	0800                	addi	s0,sp,16
    1308:	00000643          	fmadd.s	fa2,ft0,ft0,ft0,rne
    130c:	00000947          	fmsub.s	fs2,ft0,ft0,ft0,rne
    1310:	3b09                	addiw	s6,s6,-30
    1312:	0000                	unimp
    1314:	1800                	addi	s0,sp,48
    1316:	1e00                	addi	s0,sp,816
    1318:	006e                	c.slli	zero,0x1b
    131a:	0000                	unimp
    131c:	0947080f          	0x947080f
    1320:	0000                	unimp
    1322:	5d1f 0009 1400      	0x140000095d1f
    1328:	04e9                	addi	s1,s1,26
    132a:	0000                	unimp
    132c:	0f00                	addi	s0,sp,912
    132e:	5208                	lw	a0,32(a2)
    1330:	0009                	c.nop	2
    1332:	0f00                	addi	s0,sp,912
    1334:	0a08                	addi	a0,sp,272
    1336:	0002                	c.slli64	zero
    1338:	1f00                	addi	s0,sp,944
    133a:	0974                	addi	a3,sp,156
    133c:	0000                	unimp
    133e:	2d14                	fld	fa3,24(a0)
    1340:	0000                	unimp
    1342:	0000                	unimp
    1344:	097a080f          	0x97a080f
    1348:	0000                	unimp
    134a:	0969080f          	0x969080f
    134e:	0000                	unimp
    1350:	e208                	sd	a0,0(a2)
    1352:	0006                	c.slli	zero,0x1
    1354:	9000                	0x9000
    1356:	0009                	c.nop	2
    1358:	0900                	addi	s0,sp,144
    135a:	0000003b          	addw	zero,zero,zero
    135e:	0002                	c.slli64	zero
    1360:	2720                	fld	fs0,72(a4)
    1362:	0004                	0x4
    1364:	0500                	addi	s0,sp,640
    1366:	e9170333          	0xe9170333
    136a:	0004                	0x4
    136c:	2000                	fld	fs0,0(s0)
    136e:	0420                	addi	s0,sp,520
    1370:	0000                	unimp
    1372:	3405                	addiw	s0,s0,-31
    1374:	04ef1d03          	lh	s10,78(t5) # 104e <__stack_align+0x103e>
    1378:	0000                	unimp
    137a:	7908                	ld	a0,48(a0)
    137c:	0006                	c.slli	zero,0x1
    137e:	b500                	fsd	fs0,40(a0)
    1380:	0009                	c.nop	2
    1382:	2100                	fld	fs0,0(a0)
    1384:	1500                	addi	s0,sp,672
    1386:	09aa                	slli	s3,s3,0xa
    1388:	0000                	unimp
    138a:	0422                	slli	s0,s0,0x8
    138c:	0001                	nop
    138e:	0700                	addi	s0,sp,896
    1390:	2414                	fld	fa3,8(s0)
    1392:	09b5                	addi	s3,s3,13
    1394:	0000                	unimp
    1396:	4722                	lw	a4,8(sp)
    1398:	07000003          	lb	zero,112(zero) # 70 <__stack_align+0x60>
    139c:	1515                	addi	a0,a0,-27
    139e:	002d                	c.nop	11
    13a0:	0000                	unimp
    13a2:	cb05                	beqz	a4,13d2 <__stack_align+0x13c2>
    13a4:	0002                	c.slli64	zero
    13a6:	0800                	addi	s0,sp,16
    13a8:	143c                	addi	a5,sp,552
    13aa:	008c                	addi	a1,sp,64
    13ac:	0000                	unimp
    13ae:	0009d223          	0x9d223
    13b2:	0500                	addi	s0,sp,640
    13b4:	00000537          	lui	a0,0x0
    13b8:	6109                	addi	sp,sp,128
    13ba:	9814                	0x9814
    13bc:	0000                	unimp
    13be:	0500                	addi	s0,sp,640
    13c0:	0589                	addi	a1,a1,2
    13c2:	0000                	unimp
    13c4:	6609                	lui	a2,0x2
    13c6:	a415                	j	15ea <__stack_align+0x15da>
    13c8:	0000                	unimp
    13ca:	0500                	addi	s0,sp,640
    13cc:	00000593          	li	a1,0
    13d0:	7109                	addi	sp,sp,-384
    13d2:	3412                	fld	fs0,288(sp)
    13d4:	0000                	unimp
    13d6:	0500                	addi	s0,sp,640
    13d8:	05c0                	addi	s0,sp,708
    13da:	0000                	unimp
    13dc:	8b09                	andi	a4,a4,2
    13de:	e012                	sd	tp,0(sp)
    13e0:	0000                	unimp
    13e2:	0500                	addi	s0,sp,640
    13e4:	000004f7          	0x4f7
    13e8:	9d09                	subw	a0,a0,a0
    13ea:	f812                	sd	tp,48(sp)
    13ec:	0000                	unimp
    13ee:	0500                	addi	s0,sp,640
    13f0:	055e                	slli	a0,a0,0x17
    13f2:	0000                	unimp
    13f4:	a109                	j	17f6 <__stack_align+0x17e6>
    13f6:	bc12                	fsd	ft4,56(sp)
    13f8:	0000                	unimp
    13fa:	0500                	addi	s0,sp,640
    13fc:	000005db          	0x5db
    1400:	a509                	j	1a02 <__stack_align+0x19f2>
    1402:	c812                	sw	tp,16(sp)
    1404:	0000                	unimp
    1406:	0500                	addi	s0,sp,640
    1408:	04ff                	0x4ff
    140a:	0000                	unimp
    140c:	a909                	j	181e <__stack_align+0x180e>
    140e:	d412                	sw	tp,40(sp)
    1410:	0000                	unimp
    1412:	0500                	addi	s0,sp,640
    1414:	052e                	slli	a0,a0,0xb
    1416:	0000                	unimp
    1418:	bd09                	j	122a <__stack_align+0x121a>
    141a:	ec12                	sd	tp,24(sp)
    141c:	0000                	unimp
    141e:	0500                	addi	s0,sp,640
    1420:	000005f3          	0x5f3
    1424:	c209                	beqz	a2,1426 <__stack_align+0x1416>
    1426:	00018013          	mv	zero,gp
    142a:	0d00                	addi	s0,sp,656
    142c:	054c                	addi	a1,sp,644
    142e:	0000                	unimp
    1430:	0a68                	addi	a0,sp,284
    1432:	0b46081b          	addiw	a6,a2,180
    1436:	0000                	unimp
    1438:	0005050b          	0x5050b
    143c:	0a00                	addi	s0,sp,272
    143e:	0a1d                	addi	s4,s4,7
    1440:	0a1f 0000 0b00      	0xb0000000a1f
    1446:	000005a3          	sb	zero,11(zero) # b <__boot_hart+0xb>
    144a:	1e0a                	slli	t3,t3,0x22
    144c:	070a                	slli	a4,a4,0x2
    144e:	000a                	c.slli	zero,0x2
    1450:	0200                	addi	s0,sp,256
    1452:	0005e10b          	0x5e10b
    1456:	0a00                	addi	s0,sp,272
    1458:	0a1f 0a43 0000      	0xa430a1f
    145e:	0b04                	addi	s1,sp,400
    1460:	059a                	slli	a1,a1,0x6
    1462:	0000                	unimp
    1464:	200a                	fld	ft0,128(sp)
    1466:	000a4f0b          	0xa4f0b
    146a:	0800                	addi	s0,sp,16
    146c:	0005780b          	0x5780b
    1470:	0a00                	addi	s0,sp,272
    1472:	0a21                	addi	s4,s4,8
    1474:	00000a2b          	0xa2b
    1478:	0b0a                	slli	s6,s6,0x2
    147a:	050c                	addi	a1,sp,640
    147c:	0000                	unimp
    147e:	220a                	fld	ft4,128(sp)
    1480:	370a                	fld	fa4,160(sp)
    1482:	000a                	c.slli	zero,0x2
    1484:	0c00                	addi	s0,sp,528
    1486:	0005e90b          	0x5e90b
    148a:	0a00                	addi	s0,sp,272
    148c:	0a1f0a23          	sb	ra,180(t5)
    1490:	0000                	unimp
    1492:	0b0e                	slli	s6,s6,0x3
    1494:	057f                	0x57f
    1496:	0000                	unimp
    1498:	240a                	fld	fs0,128(sp)
    149a:	130a                	slli	t1,t1,0x22
    149c:	000a                	c.slli	zero,0x2
    149e:	1000                	addi	s0,sp,32
    14a0:	0005c60b          	0x5c60b
    14a4:	0a00                	addi	s0,sp,272
    14a6:	0a32                	slli	s4,s4,0xc
    14a8:	000009fb          	0x9fb
    14ac:	0b18                	addi	a4,sp,400
    14ae:	0564                	addi	s1,sp,652
    14b0:	0000                	unimp
    14b2:	330a                	fld	ft6,160(sp)
    14b4:	3409                	addiw	s0,s0,-30
    14b6:	0000                	unimp
    14b8:	2000                	fld	fs0,0(s0)
    14ba:	0005fb0b          	0x5fb0b
    14be:	0a00                	addi	s0,sp,272
    14c0:	0a34                	addi	a3,sp,280
    14c2:	000009fb          	0x9fb
    14c6:	0b28                	addi	a0,sp,408
    14c8:	056e                	slli	a0,a0,0x1b
    14ca:	0000                	unimp
    14cc:	350a                	fld	fa0,160(sp)
    14ce:	3409                	addiw	s0,s0,-30
    14d0:	0000                	unimp
    14d2:	3000                	fld	fs0,32(s0)
    14d4:	0005b50b          	0x5b50b
    14d8:	0a00                	addi	s0,sp,272
    14da:	0a36                	slli	s4,s4,0xd
    14dc:	000009fb          	0x9fb
    14e0:	0b38                	addi	a4,sp,408
    14e2:	0540                	addi	s0,sp,644
    14e4:	0000                	unimp
    14e6:	370a                	fld	fa4,160(sp)
    14e8:	3409                	addiw	s0,s0,-30
    14ea:	0000                	unimp
    14ec:	4000                	lw	s0,0(s0)
    14ee:	0005aa0b          	0x5aa0b
    14f2:	0a00                	addi	s0,sp,272
    14f4:	0d38                	addi	a4,sp,664
    14f6:	000009ef          	jal	s3,14f6 <__stack_align+0x14e6>
    14fa:	0b48                	addi	a0,sp,404
    14fc:	0522                	slli	a0,a0,0x8
    14fe:	0000                	unimp
    1500:	390a                	fld	fs2,160(sp)
    1502:	e30c                	sd	a1,0(a4)
    1504:	0009                	c.nop	2
    1506:	5000                	lw	s0,32(s0)
    1508:	0005cf0b          	0x5cf0b
    150c:	0a00                	addi	s0,sp,272
    150e:	083a                	slli	a6,a6,0xe
    1510:	0b46                	slli	s6,s6,0x11
    1512:	0000                	unimp
    1514:	0058                	addi	a4,sp,4
    1516:	3408                	fld	fa0,40(s0)
    1518:	0000                	unimp
    151a:	5600                	lw	s0,40(a2)
    151c:	0900000b          	0x900000b
    1520:	0000003b          	addw	zero,zero,zero
    1524:	0001                	nop
    1526:	bc22                	fsd	fs0,56(sp)
    1528:	0b000003          	lb	zero,176(zero) # b0 <__stack_align+0xa0>
    152c:	1a06                	slli	s4,s4,0x21
    152e:	09de                	slli	s3,s3,0x17
    1530:	0000                	unimp
    1532:	6522                	ld	a0,8(sp)
    1534:	0000                	unimp
    1536:	0b00                	addi	s0,sp,400
    1538:	09de1a07          	0x9de1a07
    153c:	0000                	unimp
    153e:	4a24                	lw	s1,80(a2)
    1540:	0005                	c.nop	1
    1542:	0100                	addi	s0,sp,128
    1544:	0505                	addi	a0,a0,1
    1546:	002d                	c.nop	11
    1548:	0000                	unimp
    154a:	1fb4                	addi	a3,sp,1016
    154c:	8000                	0x8000
    154e:	0000                	unimp
    1550:	0000                	unimp
    1552:	0014                	0x14
    1554:	0000                	unimp
    1556:	0000                	unimp
    1558:	0000                	unimp
    155a:	9c01                	subw	s0,s0,s0
    155c:	0bbd                	addi	s7,s7,15
    155e:	0000                	unimp
    1560:	a025                	j	1588 <__stack_align+0x1578>
    1562:	0001                	nop
    1564:	0100                	addi	s0,sp,128
    1566:	1005                	c.nop	-31
    1568:	002d                	c.nop	11
    156a:	0000                	unimp
    156c:	0039                	c.nop	14
    156e:	0000                	unimp
    1570:	7326                	ld	t1,104(sp)
    1572:	0074                	addi	a3,sp,12
    1574:	0501                	addi	a0,a0,0
    1576:	000bbd23          	sd	zero,26(s7)
    157a:	7200                	ld	s0,32(a2)
    157c:	0000                	unimp
    157e:	2700                	fld	fs0,8(a4)
    1580:	1fbc                	addi	a5,sp,1016
    1582:	8000                	0x8000
    1584:	0000                	unimp
    1586:	0000                	unimp
    1588:	00000bc3          	fmadd.s	fs7,ft0,ft0,ft0,rne
    158c:	0f00                	addi	s0,sp,912
    158e:	5b08                	lw	a0,48(a4)
    1590:	000a                	c.slli	zero,0x2
    1592:	2800                	fld	fs0,16(s0)
    1594:	00e6                	slli	ra,ra,0x19
    1596:	0000                	unimp
    1598:	00e6                	slli	ra,ra,0x19
    159a:	0000                	unimp
    159c:	000d0f07          	0xd0f07
    15a0:	0000012f          	0x12f
    15a4:	0004                	0x4
    15a6:	0000044b          	fnmsub.s	fs0,ft0,ft0,ft0,rne
    15aa:	0108                	addi	a0,sp,128
    15ac:	020d                	addi	tp,tp,3
    15ae:	0000                	unimp
    15b0:	0b0c                	addi	a1,sp,400
    15b2:	0006                	c.slli	zero,0x1
    15b4:	b900                	fsd	fs0,48(a0)
    15b6:	0004                	0x4
    15b8:	c800                	sw	s0,16(s0)
    15ba:	001f 0080 0000      	0x80001f
    15c0:	0800                	addi	s0,sp,16
    15c2:	0000                	unimp
    15c4:	0000                	unimp
    15c6:	0000                	unimp
    15c8:	d100                	sw	s0,32(a0)
    15ca:	02000003          	lb	zero,32(zero) # 20 <__stack_align+0x10>
    15ce:	0601                	addi	a2,a2,0
    15d0:	02f2                	slli	t0,t0,0x1c
    15d2:	0000                	unimp
    15d4:	0102                	c.slli64	sp
    15d6:	f008                	sd	a0,32(s0)
    15d8:	0002                	c.slli64	zero
    15da:	0200                	addi	s0,sp,256
    15dc:	0502                	c.slli64	a0
    15de:	030c                	addi	a1,sp,384
    15e0:	0000                	unimp
    15e2:	0202                	c.slli64	tp
    15e4:	0001bb07          	fld	fs6,0(gp) # f98 <__stack_align+0xf88>
    15e8:	0300                	addi	s0,sp,384
    15ea:	0504                	addi	s1,sp,640
    15ec:	6e69                	lui	t3,0x1a
    15ee:	0074                	addi	a3,sp,12
    15f0:	0402                	c.slli64	s0
    15f2:	00004f07          	flq	ft10,0(zero) # 0 <__boot_hart>
    15f6:	0200                	addi	s0,sp,256
    15f8:	0508                	addi	a0,sp,640
    15fa:	00a4                	addi	s1,sp,72
    15fc:	0000                	unimp
    15fe:	c904                	sw	s1,16(a0)
    1600:	0002                	c.slli64	zero
    1602:	0200                	addi	s0,sp,256
    1604:	1969                	addi	s2,s2,-6
    1606:	006a                	c.slli	zero,0x1a
    1608:	0000                	unimp
    160a:	0802                	c.slli64	a6
    160c:	00004a07          	flq	fs4,0(zero) # 0 <__boot_hart>
    1610:	0200                	addi	s0,sp,256
    1612:	0508                	addi	a0,sp,640
    1614:	009f 0000 cb04      	0xcb040000009f
    161a:	0002                	c.slli64	zero
    161c:	0300                	addi	s0,sp,384
    161e:	143c                	addi	a5,sp,552
    1620:	005e                	c.slli	zero,0x17
    1622:	0000                	unimp
    1624:	7805                	lui	a6,0xfffe1
    1626:	0000                	unimp
    1628:	0600                	addi	s0,sp,768
    162a:	8f08                	0x8f08
    162c:	0000                	unimp
    162e:	0200                	addi	s0,sp,256
    1630:	0801                	addi	a6,a6,0
    1632:	02f9                	addi	t0,t0,30
    1634:	0000                	unimp
    1636:	1002                	c.slli	zero,0x20
    1638:	9a04                	0x9a04
    163a:	0002                	c.slli64	zero
    163c:	0700                	addi	s0,sp,896
    163e:	0641                	addi	a2,a2,16
    1640:	0000                	unimp
    1642:	1004                	addi	s1,sp,32
    1644:	0000a90f          	0xa90f
    1648:	0600                	addi	s0,sp,768
    164a:	8908                	0x8908
    164c:	0000                	unimp
    164e:	0700                	addi	s0,sp,896
    1650:	063a                	slli	a2,a2,0xe
    1652:	0000                	unimp
    1654:	fc04                	sd	s1,56(s0)
    1656:	890e                	mv	s2,gp
    1658:	0000                	unimp
    165a:	0700                	addi	s0,sp,896
    165c:	0000061b          	sext.w	a2,zero
    1660:	fd04                	sd	s1,56(a0)
    1662:	490c                	lw	a1,16(a0)
    1664:	0000                	unimp
    1666:	0700                	addi	s0,sp,896
    1668:	0622                	slli	a2,a2,0x8
    166a:	0000                	unimp
    166c:	fd04                	sd	s1,56(a0)
    166e:	4914                	lw	a3,16(a0)
    1670:	0000                	unimp
    1672:	0700                	addi	s0,sp,896
    1674:	0604                	addi	s1,sp,768
    1676:	0000                	unimp
    1678:	fd04                	sd	s1,56(a0)
    167a:	491c                	lw	a5,16(a0)
    167c:	0000                	unimp
    167e:	0700                	addi	s0,sp,896
    1680:	0629                	addi	a2,a2,10
    1682:	0000                	unimp
    1684:	ff04                	sd	s1,56(a4)
    1686:	490c                	lw	a1,16(a0)
    1688:	0000                	unimp
    168a:	0700                	addi	s0,sp,896
    168c:	03bc                	addi	a5,sp,456
    168e:	0000                	unimp
    1690:	0605                	addi	a2,a2,1
    1692:	841a                	mv	s0,t1
    1694:	0000                	unimp
    1696:	0700                	addi	s0,sp,896
    1698:	0065                	c.nop	25
    169a:	0000                	unimp
    169c:	0705                	addi	a4,a4,1
    169e:	841a                	mv	s0,t1
    16a0:	0000                	unimp
    16a2:	0800                	addi	s0,sp,16
    16a4:	0632                	slli	a2,a2,0xc
    16a6:	0000                	unimp
    16a8:	0401                	addi	s0,s0,0
    16aa:	4905                	li	s2,1
    16ac:	0000                	unimp
    16ae:	c800                	sw	s0,16(s0)
    16b0:	001f 0080 0000      	0x80001f
    16b6:	0800                	addi	s0,sp,16
    16b8:	0000                	unimp
    16ba:	0000                	unimp
    16bc:	0000                	unimp
    16be:	0100                	addi	s0,sp,128
    16c0:	099c                	addi	a5,sp,208
    16c2:	01a0                	addi	s0,sp,200
    16c4:	0000                	unimp
    16c6:	0401                	addi	s0,s0,0
    16c8:	4911                	li	s2,4
    16ca:	0000                	unimp
    16cc:	ab00                	fsd	fs0,16(a4)
    16ce:	0000                	unimp
    16d0:	0000                	unimp
    16d2:	0400                	addi	s0,sp,512
    16d4:	000a                	c.slli	zero,0x2
    16d6:	0400                	addi	s0,sp,512
    16d8:	d400                	sw	s0,40(s0)
    16da:	0004                	0x4
    16dc:	0800                	addi	s0,sp,16
    16de:	0d01                	addi	s10,s10,0
    16e0:	0002                	c.slli64	zero
    16e2:	0c00                	addi	s0,sp,528
    16e4:	0650                	addi	a2,sp,772
    16e6:	0000                	unimp
    16e8:	04b9                	addi	s1,s1,14
    16ea:	0000                	unimp
    16ec:	1fd0                	addi	a2,sp,1012
    16ee:	8000                	0x8000
    16f0:	0000                	unimp
    16f2:	0000                	unimp
    16f4:	0014                	0x14
    16f6:	0000                	unimp
    16f8:	0000                	unimp
    16fa:	0000                	unimp
    16fc:	050c                	addi	a1,sp,640
    16fe:	0000                	unimp
    1700:	0402                	c.slli64	s0
    1702:	6905                	lui	s2,0x1
    1704:	746e                	ld	s0,248(sp)
    1706:	0300                	addi	s0,sp,384
    1708:	0508                	addi	a0,sp,640
    170a:	00a4                	addi	s1,sp,72
    170c:	0000                	unimp
    170e:	4a070803          	lb	a6,1184(a4)
    1712:	0000                	unimp
    1714:	0300                	addi	s0,sp,384
    1716:	0508                	addi	a0,sp,640
    1718:	009f 0000 1003      	0x10030000009f
    171e:	9a04                	0x9a04
    1720:	0002                	c.slli64	zero
    1722:	0400                	addi	s0,sp,512
    1724:	01fe                	slli	gp,gp,0x1f
    1726:	0000                	unimp
    1728:	5e02                	lw	t3,32(sp)
    172a:	1701                	addi	a4,a4,-32
    172c:	005d                	c.nop	23
    172e:	0000                	unimp
    1730:	4f070403          	lb	s0,1264(a4)
    1734:	0000                	unimp
    1736:	0300                	addi	s0,sp,384
    1738:	0601                	addi	a2,a2,0
    173a:	02f2                	slli	t0,t0,0x1c
    173c:	0000                	unimp
    173e:	f0080103          	lb	sp,-256(a6) # fffffffffffe0f00 <ali3_data.1515+0xffffffff7ff90d00>
    1742:	0002                	c.slli64	zero
    1744:	0300                	addi	s0,sp,384
    1746:	0502                	c.slli64	a0
    1748:	030c                	addi	a1,sp,384
    174a:	0000                	unimp
    174c:	bb070203          	lb	tp,-1104(a4)
    1750:	0001                	nop
    1752:	0500                	addi	s0,sp,640
    1754:	02c9                	addi	t0,t0,18
    1756:	0000                	unimp
    1758:	3b196903          	lwu	s2,945(s2) # 13b1 <__stack_align+0x13a1>
    175c:	0000                	unimp
    175e:	0500                	addi	s0,sp,640
    1760:	04f6                	slli	s1,s1,0x1d
    1762:	0000                	unimp
    1764:	2e04                	fld	fs1,24(a2)
    1766:	340e                	fld	fs0,224(sp)
    1768:	0000                	unimp
    176a:	0500                	addi	s0,sp,640
    176c:	04f5                	addi	s1,s1,29
    176e:	0000                	unimp
    1770:	6604                	ld	s1,8(a2)
    1772:	8c10                	0x8c10
    1774:	0000                	unimp
    1776:	0500                	addi	s0,sp,640
    1778:	03d9                	addi	t2,t2,22
    177a:	0000                	unimp
    177c:	7404                	ld	s1,40(s0)
    177e:	340e                	fld	fs0,224(sp)
    1780:	0000                	unimp
    1782:	0500                	addi	s0,sp,640
    1784:	0455                	addi	s0,s0,21
    1786:	0000                	unimp
    1788:	9304                	0x9304
    178a:	00003417          	auipc	s0,0x3
    178e:	0600                	addi	s0,sp,768
    1790:	0404                	addi	s1,sp,512
    1792:	03a5                	addi	t2,t2,9
    1794:	00de                	slli	ra,ra,0x17
    1796:	0000                	unimp
    1798:	0001f807          	0x1f807
    179c:	0400                	addi	s0,sp,512
    179e:	00500ca7          	0x500ca7
    17a2:	0000                	unimp
    17a4:	00018807          	0x18807
    17a8:	0400                	addi	s0,sp,512
    17aa:	13a8                	addi	a0,sp,488
    17ac:	00de                	slli	ra,ra,0x17
    17ae:	0000                	unimp
    17b0:	0800                	addi	s0,sp,16
    17b2:	0000006b          	0x6b
    17b6:	00ee                	slli	ra,ra,0x1b
    17b8:	0000                	unimp
    17ba:	3b09                	addiw	s6,s6,-30
    17bc:	0000                	unimp
    17be:	0300                	addi	s0,sp,384
    17c0:	0a00                	addi	s0,sp,272
    17c2:	0408                	addi	a0,sp,512
    17c4:	09a2                	slli	s3,s3,0x8
    17c6:	0112                	slli	sp,sp,0x4
    17c8:	0000                	unimp
    17ca:	0003c30b          	0x3c30b
    17ce:	0400                	addi	s0,sp,512
    17d0:	07a4                	addi	s1,sp,968
    17d2:	002d                	c.nop	11
    17d4:	0000                	unimp
    17d6:	0b00                	addi	s0,sp,400
    17d8:	000003cb          	fnmsub.s	ft7,ft0,ft0,ft0,rne
    17dc:	a904                	fsd	fs1,16(a0)
    17de:	bc05                	j	120e <__stack_align+0x11fe>
    17e0:	0000                	unimp
    17e2:	0400                	addi	s0,sp,512
    17e4:	0500                	addi	s0,sp,640
    17e6:	0334                	addi	a3,sp,392
    17e8:	0000                	unimp
    17ea:	aa04                	fsd	fs1,16(a2)
    17ec:	0000ee03          	lwu	t3,0(ra)
    17f0:	0c00                	addi	s0,sp,528
    17f2:	0508                	addi	a0,sp,640
    17f4:	0000040b          	0x40b
    17f8:	1905                	addi	s2,s2,-31
    17fa:	5d19                	li	s10,-26
    17fc:	0000                	unimp
    17fe:	0500                	addi	s0,sp,640
    1800:	02de                	slli	t0,t0,0x17
    1802:	0000                	unimp
    1804:	0c06                	slli	s8,s8,0x1
    1806:	2d0d                	addiw	s10,s10,3
    1808:	0000                	unimp
    180a:	0500                	addi	s0,sp,640
    180c:	0000014b          	fnmsub.s	ft2,ft0,ft0,ft0,rne
    1810:	2305                	addiw	t1,t1,1
    1812:	00012c1b          	0x12c1b
    1816:	0d00                	addi	s0,sp,656
    1818:	015c                	addi	a5,sp,132
    181a:	0000                	unimp
    181c:	0520                	addi	s0,sp,648
    181e:	0834                	addi	a3,sp,24
    1820:	019e                	slli	gp,gp,0x7
    1822:	0000                	unimp
    1824:	00035f0b          	0x35f0b
    1828:	0500                	addi	s0,sp,640
    182a:	1336                	slli	t1,t1,0x2d
    182c:	019e                	slli	gp,gp,0x7
    182e:	0000                	unimp
    1830:	0e00                	addi	s0,sp,784
    1832:	6b5f 0500 0737      	0x73705006b5f
    1838:	002d                	c.nop	11
    183a:	0000                	unimp
    183c:	0b08                	addi	a0,sp,400
    183e:	000003a7          	0x3a7
    1842:	3705                	addiw	a4,a4,-31
    1844:	00002d0b          	0x2d0b
    1848:	0c00                	addi	s0,sp,528
    184a:	0001450b          	0x1450b
    184e:	0500                	addi	s0,sp,640
    1850:	002d1437          	lui	s0,0x2d1
    1854:	0000                	unimp
    1856:	0b10                	addi	a2,sp,400
    1858:	0440                	addi	s0,sp,516
    185a:	0000                	unimp
    185c:	3705                	addiw	a4,a4,-31
    185e:	00002d1b          	0x2d1b
    1862:	1400                	addi	s0,sp,544
    1864:	5f0e                	lw	t5,224(sp)
    1866:	0078                	addi	a4,sp,12
    1868:	3805                	addiw	a6,a6,-31
    186a:	0001a40b          	0x1a40b
    186e:	1800                	addi	s0,sp,48
    1870:	0f00                	addi	s0,sp,912
    1872:	4408                	lw	a0,8(s0)
    1874:	0001                	nop
    1876:	0800                	addi	s0,sp,16
    1878:	0120                	addi	s0,sp,136
    187a:	0000                	unimp
    187c:	01b4                	addi	a3,sp,200
    187e:	0000                	unimp
    1880:	3b09                	addiw	s6,s6,-30
    1882:	0000                	unimp
    1884:	0000                	unimp
    1886:	0d00                	addi	s0,sp,656
    1888:	00000183          	lb	gp,0(zero) # 0 <__boot_hart>
    188c:	0524                	addi	s1,sp,648
    188e:	083c                	addi	a5,sp,24
    1890:	00000237          	lui	tp,0x0
    1894:	0000960b          	0x960b
    1898:	0500                	addi	s0,sp,640
    189a:	093e                	slli	s2,s2,0xf
    189c:	002d                	c.nop	11
    189e:	0000                	unimp
    18a0:	0b00                	addi	s0,sp,400
    18a2:	03e1                	addi	t2,t2,24
    18a4:	0000                	unimp
    18a6:	3f05                	addiw	t5,t5,-31
    18a8:	2d09                	addiw	s10,s10,2
    18aa:	0000                	unimp
    18ac:	0400                	addi	s0,sp,512
    18ae:	0000b90b          	0xb90b
    18b2:	0500                	addi	s0,sp,640
    18b4:	0940                	addi	s0,sp,148
    18b6:	002d                	c.nop	11
    18b8:	0000                	unimp
    18ba:	0b08                	addi	a0,sp,400
    18bc:	000004eb          	0x4eb
    18c0:	4105                	li	sp,1
    18c2:	2d09                	addiw	s10,s10,2
    18c4:	0000                	unimp
    18c6:	0c00                	addi	s0,sp,528
    18c8:	0002ad0b          	0x2ad0b
    18cc:	0500                	addi	s0,sp,640
    18ce:	0942                	slli	s2,s2,0x10
    18d0:	002d                	c.nop	11
    18d2:	0000                	unimp
    18d4:	0b10                	addi	a2,sp,400
    18d6:	00000287          	0x287
    18da:	4305                	li	t1,1
    18dc:	2d09                	addiw	s10,s10,2
    18de:	0000                	unimp
    18e0:	1400                	addi	s0,sp,544
    18e2:	0004450b          	0x4450b
    18e6:	0500                	addi	s0,sp,640
    18e8:	0944                	addi	s1,sp,148
    18ea:	002d                	c.nop	11
    18ec:	0000                	unimp
    18ee:	0b18                	addi	a4,sp,400
    18f0:	0316                	slli	t1,t1,0x5
    18f2:	0000                	unimp
    18f4:	4505                	li	a0,1
    18f6:	2d09                	addiw	s10,s10,2
    18f8:	0000                	unimp
    18fa:	1c00                	addi	s0,sp,560
    18fc:	0004800b          	0x4800b
    1900:	0500                	addi	s0,sp,640
    1902:	0946                	slli	s2,s2,0x11
    1904:	002d                	c.nop	11
    1906:	0000                	unimp
    1908:	0020                	addi	s0,sp,8
    190a:	c810                	sw	a2,16(s0)
    190c:	0000                	unimp
    190e:	0800                	addi	s0,sp,16
    1910:	0502                	c.slli64	a0
    1912:	027d084f          	fnmadd.d	fa6,fs10,ft7,ft0,rne
    1916:	0000                	unimp
    1918:	0001380b          	0x1380b
    191c:	0500                	addi	s0,sp,640
    191e:	0a50                	addi	a2,sp,276
    1920:	027d                	addi	tp,tp,31
    1922:	0000                	unimp
    1924:	1100                	addi	s0,sp,160
    1926:	0000                	unimp
    1928:	0000                	unimp
    192a:	5105                	li	sp,-31
    192c:	7d09                	lui	s10,0xfffe2
    192e:	0002                	c.slli64	zero
    1930:	0000                	unimp
    1932:	1101                	addi	sp,sp,-32
    1934:	03fd                	addi	t2,t2,31
    1936:	0000                	unimp
    1938:	5305                	li	t1,-31
    193a:	200a                	fld	ft0,128(sp)
    193c:	0001                	nop
    193e:	0000                	unimp
    1940:	1102                	slli	sp,sp,0x20
    1942:	00f5                	addi	ra,ra,29
    1944:	0000                	unimp
    1946:	5605                	li	a2,-31
    1948:	200a                	fld	ft0,128(sp)
    194a:	0001                	nop
    194c:	0400                	addi	s0,sp,512
    194e:	0002                	c.slli64	zero
    1950:	1e08                	addi	a0,sp,816
    1952:	0001                	nop
    1954:	8d00                	0x8d00
    1956:	0002                	c.slli64	zero
    1958:	0900                	addi	s0,sp,144
    195a:	0000003b          	addw	zero,zero,zero
    195e:	001f b610 0002      	0x2b610001f
    1964:	1800                	addi	s0,sp,48
    1966:	08620503          	lb	a0,134(tp) # 86 <__stack_align+0x76>
    196a:	02d1                	addi	t0,t0,20
    196c:	0000                	unimp
    196e:	00035f0b          	0x35f0b
    1972:	0500                	addi	s0,sp,640
    1974:	02d11263          	bne	sp,a3,1998 <__stack_align+0x1988>
    1978:	0000                	unimp
    197a:	0b00                	addi	s0,sp,400
    197c:	00000377          	0x377
    1980:	6405                	lui	s0,0x1
    1982:	2d06                	fld	fs10,64(sp)
    1984:	0000                	unimp
    1986:	0800                	addi	s0,sp,16
    1988:	0001400b          	0x1400b
    198c:	0500                	addi	s0,sp,640
    198e:	0966                	slli	s2,s2,0x19
    1990:	000002d7          	0x2d7
    1994:	1110                	addi	a2,sp,160
    1996:	00c8                	addi	a0,sp,68
    1998:	0000                	unimp
    199a:	6705                	lui	a4,0x1
    199c:	371e                	fld	fa4,480(sp)
    199e:	0002                	c.slli64	zero
    19a0:	1000                	addi	s0,sp,32
    19a2:	0001                	nop
    19a4:	028d080f          	0x28d080f
    19a8:	0000                	unimp
    19aa:	e708                	sd	a0,8(a4)
    19ac:	0002                	c.slli64	zero
    19ae:	e700                	sd	s0,8(a4)
    19b0:	0002                	c.slli64	zero
    19b2:	0900                	addi	s0,sp,144
    19b4:	0000003b          	addw	zero,zero,zero
    19b8:	001f 080f 02ed      	0x2ed080f001f
    19be:	0000                	unimp
    19c0:	0d12                	slli	s10,s10,0x4
    19c2:	0320                	addi	s0,sp,392
    19c4:	0000                	unimp
    19c6:	0510                	addi	a2,sp,640
    19c8:	087a                	slli	a6,a6,0x1e
    19ca:	0316                	slli	t1,t1,0x5
    19cc:	0000                	unimp
    19ce:	0000b30b          	0xb30b
    19d2:	0500                	addi	s0,sp,640
    19d4:	0316117b          	0x316117b
    19d8:	0000                	unimp
    19da:	0b00                	addi	s0,sp,400
    19dc:	074e                	slli	a4,a4,0x13
    19de:	0000                	unimp
    19e0:	7c05                	lui	s8,0xfffe1
    19e2:	2d06                	fld	fs10,64(sp)
    19e4:	0000                	unimp
    19e6:	0800                	addi	s0,sp,16
    19e8:	0f00                	addi	s0,sp,912
    19ea:	6b08                	ld	a0,16(a4)
    19ec:	0000                	unimp
    19ee:	0d00                	addi	s0,sp,656
    19f0:	0000033f 08ba05b0 	0x8ba05b00000033f
    19f8:	045f 0000 5f0e      	0x5f0e0000045f
    19fe:	0070                	addi	a2,sp,12
    1a00:	bb05                	j	1730 <__stack_align+0x1720>
    1a02:	1612                	slli	a2,a2,0x24
    1a04:	00000003          	lb	zero,0(zero) # 0 <__boot_hart>
    1a08:	5f0e                	lw	t5,224(sp)
    1a0a:	0072                	c.slli	zero,0x1c
    1a0c:	bc05                	j	143c <__stack_align+0x142c>
    1a0e:	00002d07          	flw	fs10,0(zero) # 0 <__boot_hart>
    1a12:	0800                	addi	s0,sp,16
    1a14:	5f0e                	lw	t5,224(sp)
    1a16:	bd050077          	0xbd050077
    1a1a:	00002d07          	flw	fs10,0(zero) # 0 <__boot_hart>
    1a1e:	0c00                	addi	s0,sp,528
    1a20:	0000ee0b          	0xee0b
    1a24:	0500                	addi	s0,sp,640
    1a26:	09be                	slli	s3,s3,0xf
    1a28:	0072                	c.slli	zero,0x1c
    1a2a:	0000                	unimp
    1a2c:	0b10                	addi	a2,sp,400
    1a2e:	019f 0000 bf05      	0xbf050000019f
    1a34:	7209                	lui	tp,0xfffe2
    1a36:	0000                	unimp
    1a38:	1200                	addi	s0,sp,288
    1a3a:	5f0e                	lw	t5,224(sp)
    1a3c:	6662                	ld	a2,24(sp)
    1a3e:	0500                	addi	s0,sp,640
    1a40:	11c0                	addi	s0,sp,228
    1a42:	02ee                	slli	t0,t0,0x1b
    1a44:	0000                	unimp
    1a46:	0b18                	addi	a4,sp,400
    1a48:	005c                	addi	a5,sp,4
    1a4a:	0000                	unimp
    1a4c:	c105                	beqz	a0,1a6c <__stack_align+0x1a5c>
    1a4e:	00002d07          	flw	fs10,0(zero) # 0 <__boot_hart>
    1a52:	2800                	fld	fs0,16(s0)
    1a54:	0000d60b          	0xd60b
    1a58:	0500                	addi	s0,sp,640
    1a5a:	0ac8                	addi	a0,sp,340
    1a5c:	011e                	slli	sp,sp,0x7
    1a5e:	0000                	unimp
    1a60:	0b30                	addi	a2,sp,408
    1a62:	00000173          	0x173
    1a66:	ca05                	beqz	a2,1a96 <__stack_align+0x1a86>
    1a68:	e31d                	bnez	a4,1a8e <__stack_align+0x1a7e>
    1a6a:	0005                	c.nop	1
    1a6c:	3800                	fld	fs0,48(s0)
    1a6e:	0002800b          	0x2800b
    1a72:	0500                	addi	s0,sp,640
    1a74:	1dcc                	addi	a1,sp,756
    1a76:	0612                	slli	a2,a2,0x4
    1a78:	0000                	unimp
    1a7a:	0b40                	addi	s0,sp,404
    1a7c:	000003d3          	fadd.s	ft7,ft0,ft0,rne
    1a80:	cf05                	beqz	a4,1ab8 <__stack_align+0x1aa8>
    1a82:	360d                	addiw	a2,a2,-29
    1a84:	0006                	c.slli	zero,0x1
    1a86:	4800                	lw	s0,16(s0)
    1a88:	00049a0b          	0x49a0b
    1a8c:	0500                	addi	s0,sp,640
    1a8e:	09d0                	addi	a2,sp,212
    1a90:	0650                	addi	a2,sp,772
    1a92:	0000                	unimp
    1a94:	0e50                	addi	a2,sp,788
    1a96:	755f 0062 d305      	0xd3050062755f
    1a9c:	ee11                	bnez	a2,1ab8 <__stack_align+0x1aa8>
    1a9e:	0002                	c.slli64	zero
    1aa0:	5800                	lw	s0,48(s0)
    1aa2:	5f0e                	lw	t5,224(sp)
    1aa4:	7075                	c.lui	zero,0xffffd
    1aa6:	0500                	addi	s0,sp,640
    1aa8:	12d4                	addi	a3,sp,356
    1aaa:	0316                	slli	t1,t1,0x5
    1aac:	0000                	unimp
    1aae:	0e68                	addi	a0,sp,796
    1ab0:	755f 0072 d505      	0xd5050072755f
    1ab6:	00002d07          	flw	fs10,0(zero) # 0 <__boot_hart>
    1aba:	7000                	ld	s0,32(s0)
    1abc:	0000ad0b          	0xad0b
    1ac0:	0500                	addi	s0,sp,640
    1ac2:	11d8                	addi	a4,sp,228
    1ac4:	0656                	slli	a2,a2,0x15
    1ac6:	0000                	unimp
    1ac8:	0b74                	addi	a3,sp,412
    1aca:	0472                	slli	s0,s0,0x1c
    1acc:	0000                	unimp
    1ace:	d905                	beqz	a0,19fe <__stack_align+0x19ee>
    1ad0:	6611                	lui	a2,0x4
    1ad2:	0006                	c.slli	zero,0x1
    1ad4:	7700                	ld	s0,40(a4)
    1ad6:	5f0e                	lw	t5,224(sp)
    1ad8:	626c                	ld	a1,192(a2)
    1ada:	0500                	addi	s0,sp,640
    1adc:	11dc                	addi	a5,sp,228
    1ade:	02ee                	slli	t0,t0,0x1b
    1ae0:	0000                	unimp
    1ae2:	0b78                	addi	a4,sp,412
    1ae4:	05ac                	addi	a1,sp,712
    1ae6:	0000                	unimp
    1ae8:	df05                	beqz	a4,1a20 <__stack_align+0x1a10>
    1aea:	00002d07          	flw	fs10,0(zero) # 0 <__boot_hart>
    1aee:	8800                	0x8800
    1af0:	00077b0b          	0x77b0b
    1af4:	0500                	addi	s0,sp,640
    1af6:	0ae0                	addi	s0,sp,348
    1af8:	008c                	addi	a1,sp,64
    1afa:	0000                	unimp
    1afc:	0b90                	addi	a2,sp,464
    1afe:	001f 0000 e305      	0xe3050000001f
    1b04:	7d12                	ld	s10,288(sp)
    1b06:	0004                	0x4
    1b08:	9800                	0x9800
    1b0a:	0007ef0b          	0x7ef0b
    1b0e:	0500                	addi	s0,sp,640
    1b10:	01380ce7          	jalr	s9,19(a6)
    1b14:	0000                	unimp
    1b16:	0ba0                	addi	s0,sp,472
    1b18:	0351                	addi	t1,t1,20
    1b1a:	0000                	unimp
    1b1c:	e905                	bnez	a0,1b4c <__stack_align+0x1b3c>
    1b1e:	120e                	slli	tp,tp,0x23
    1b20:	0001                	nop
    1b22:	a400                	fsd	fs0,8(s0)
    1b24:	0002050b          	0x2050b
    1b28:	0500                	addi	s0,sp,640
    1b2a:	09ea                	slli	s3,s3,0x1a
    1b2c:	002d                	c.nop	11
    1b2e:	0000                	unimp
    1b30:	00ac                	addi	a1,sp,72
    1b32:	0000b013          	sltiu	zero,ra,0
    1b36:	7d00                	ld	s0,56(a0)
    1b38:	0004                	0x4
    1b3a:	1400                	addi	s0,sp,544
    1b3c:	047d                	addi	s0,s0,31
    1b3e:	0000                	unimp
    1b40:	1e14                	addi	a3,sp,816
    1b42:	0001                	nop
    1b44:	1400                	addi	s0,sp,544
    1b46:	05d1                	addi	a1,a1,20
    1b48:	0000                	unimp
    1b4a:	2d14                	fld	fa3,24(a0)
    1b4c:	0000                	unimp
    1b4e:	0000                	unimp
    1b50:	0488080f          	0x488080f
    1b54:	0000                	unimp
    1b56:	7d15                	lui	s10,0xfffe5
    1b58:	0004                	0x4
    1b5a:	1600                	addi	s0,sp,800
    1b5c:	000003af          	0x3af
    1b60:	0748                	addi	a0,sp,900
    1b62:	6505                	lui	a0,0x1
    1b64:	0802                	c.slli64	a6
    1b66:	05d1                	addi	a1,a1,20
    1b68:	0000                	unimp
    1b6a:	0000e717          	auipc	a4,0xe
    1b6e:	0500                	addi	s0,sp,640
    1b70:	2d070267          	jalr	tp,720(a4) # fe3a <__stack_size+0x7e3a>
    1b74:	0000                	unimp
    1b76:	0000                	unimp
    1b78:	0000fd17          	auipc	s10,0xf
    1b7c:	0500                	addi	s0,sp,640
    1b7e:	026c                	addi	a1,sp,268
    1b80:	0006c20b          	0x6c20b
    1b84:	0800                	addi	s0,sp,16
    1b86:	00018f17          	auipc	t5,0x18
    1b8a:	0500                	addi	s0,sp,640
    1b8c:	026c                	addi	a1,sp,268
    1b8e:	c214                	sw	a3,0(a2)
    1b90:	0006                	c.slli	zero,0x1
    1b92:	1000                	addi	s0,sp,32
    1b94:	00015417          	auipc	s0,0x15
    1b98:	0500                	addi	s0,sp,640
    1b9a:	026c                	addi	a1,sp,268
    1b9c:	c21e                	sw	t2,4(sp)
    1b9e:	0006                	c.slli	zero,0x1
    1ba0:	1800                	addi	s0,sp,48
    1ba2:	00037217          	auipc	tp,0x37
    1ba6:	0500                	addi	s0,sp,640
    1ba8:	026e                	slli	tp,tp,0x1b
    1baa:	2d08                	fld	fa0,24(a0)
    1bac:	0000                	unimp
    1bae:	2000                	fld	fs0,0(s0)
    1bb0:	00001417          	auipc	s0,0x1
    1bb4:	0500                	addi	s0,sp,640
    1bb6:	cb08026f          	jal	tp,fffffffffff82066 <ali3_data.1515+0xffffffff7ff31e66>
    1bba:	0008                	0x8
    1bbc:	2400                	fld	fs0,8(s0)
    1bbe:	00038e17          	auipc	t3,0x38
    1bc2:	0500                	addi	s0,sp,640
    1bc4:	0272                	slli	tp,tp,0x1c
    1bc6:	00002d07          	flw	fs10,0(zero) # 0 <__boot_hart>
    1bca:	4000                	lw	s0,0(s0)
    1bcc:	00037c17          	auipc	s8,0x37
    1bd0:	0500                	addi	s0,sp,640
    1bd2:	e0160273          	0xe0160273
    1bd6:	0008                	0x8
    1bd8:	4800                	lw	s0,16(s0)
    1bda:	0002be17          	auipc	t3,0x2b
    1bde:	0500                	addi	s0,sp,640
    1be0:	0275                	addi	tp,tp,29
    1be2:	00002d07          	flw	fs10,0(zero) # 0 <__boot_hart>
    1be6:	5000                	lw	s0,32(s0)
    1be8:	00038417          	auipc	s0,0x38
    1bec:	0500                	addi	s0,sp,640
    1bee:	f10a0277          	0xf10a0277
    1bf2:	0008                	0x8
    1bf4:	5800                	lw	s0,48(s0)
    1bf6:	0001f017          	auipc	zero,0x1f
    1bfa:	0500                	addi	s0,sp,640
    1bfc:	027a                	slli	tp,tp,0x1e
    1bfe:	00019e13          	slli	t3,gp,0x0
    1c02:	6000                	ld	s0,0(s0)
    1c04:	00017917          	auipc	s2,0x17
    1c08:	0500                	addi	s0,sp,640
    1c0a:	2d07027b          	0x2d07027b
    1c0e:	0000                	unimp
    1c10:	6800                	ld	s0,16(s0)
    1c12:	0004b417          	auipc	s0,0x4b
    1c16:	0500                	addi	s0,sp,640
    1c18:	027c                	addi	a5,sp,268
    1c1a:	00019e13          	slli	t3,gp,0x0
    1c1e:	7000                	ld	s0,32(s0)
    1c20:	0002d417          	auipc	s0,0x2d
    1c24:	0500                	addi	s0,sp,640
    1c26:	027d                	addi	tp,tp,31
    1c28:	f714                	sd	a3,40(a4)
    1c2a:	0008                	0x8
    1c2c:	7800                	ld	s0,48(s0)
    1c2e:	00019717          	auipc	a4,0x19
    1c32:	0500                	addi	s0,sp,640
    1c34:	0280                	addi	s0,sp,320
    1c36:	00002d07          	flw	fs10,0(zero) # 0 <__boot_hart>
    1c3a:	8000                	0x8000
    1c3c:	00011117          	auipc	sp,0x11
    1c40:	0500                	addi	s0,sp,640
    1c42:	0281                	addi	t0,t0,0
    1c44:	d109                	beqz	a0,1b46 <__stack_align+0x1b36>
    1c46:	0005                	c.nop	1
    1c48:	8800                	0x8800
    1c4a:	0002fe17          	auipc	t3,0x2f
    1c4e:	0500                	addi	s0,sp,640
    1c50:	02a4                	addi	s1,sp,328
    1c52:	0008a507          	flw	fa0,0(a7)
    1c56:	9000                	0x9000
    1c58:	b618                	fsd	fa4,40(a2)
    1c5a:	0002                	c.slli64	zero
    1c5c:	0500                	addi	s0,sp,640
    1c5e:	02a8                	addi	a0,sp,328
    1c60:	0002d113          	srli	sp,t0,0x0
    1c64:	f800                	sd	s0,48(s0)
    1c66:	1801                	addi	a6,a6,-32
    1c68:	01ce                	slli	gp,gp,0x13
    1c6a:	0000                	unimp
    1c6c:	a905                	j	209c <__stack_align+0x208c>
    1c6e:	1202                	slli	tp,tp,0x20
    1c70:	028d                	addi	t0,t0,3
    1c72:	0000                	unimp
    1c74:	0200                	addi	s0,sp,256
    1c76:	6818                	ld	a4,16(s0)
    1c78:	0004                	0x4
    1c7a:	0500                	addi	s0,sp,640
    1c7c:	02ad                	addi	t0,t0,11
    1c7e:	080c                	addi	a1,sp,16
    1c80:	0009                	c.nop	2
    1c82:	1800                	addi	s0,sp,48
    1c84:	1805                	addi	a6,a6,-31
    1c86:	00de                	slli	ra,ra,0x17
    1c88:	0000                	unimp
    1c8a:	b205                	j	15aa <__stack_align+0x159a>
    1c8c:	1002                	c.slli	zero,0x20
    1c8e:	00000683          	lb	a3,0(zero) # 0 <__boot_hart>
    1c92:	0520                	addi	s0,sp,648
    1c94:	c318                	sw	a4,0(a4)
    1c96:	0000                	unimp
    1c98:	0500                	addi	s0,sp,640
    1c9a:	02b4                	addi	a3,sp,328
    1c9c:	140a                	slli	s0,s0,0x22
    1c9e:	0009                	c.nop	2
    1ca0:	3800                	fld	fs0,48(s0)
    1ca2:	0005                	c.nop	1
    1ca4:	05d7080f          	0x5d7080f
    1ca8:	0000                	unimp
    1caa:	f9080103          	lb	sp,-112(a6)
    1cae:	0002                	c.slli64	zero
    1cb0:	1500                	addi	s0,sp,672
    1cb2:	000005d7          	0x5d7
    1cb6:	045f080f          	0x45f080f
    1cba:	0000                	unimp
    1cbc:	0000b013          	sltiu	zero,ra,0
    1cc0:	0700                	addi	s0,sp,896
    1cc2:	0006                	c.slli	zero,0x1
    1cc4:	1400                	addi	s0,sp,544
    1cc6:	047d                	addi	s0,s0,31
    1cc8:	0000                	unimp
    1cca:	1e14                	addi	a3,sp,816
    1ccc:	0001                	nop
    1cce:	1400                	addi	s0,sp,544
    1cd0:	00000607          	0x607
    1cd4:	2d14                	fld	fa3,24(a0)
    1cd6:	0000                	unimp
    1cd8:	0000                	unimp
    1cda:	05de080f          	0x5de080f
    1cde:	0000                	unimp
    1ce0:	0715                	addi	a4,a4,5
    1ce2:	0006                	c.slli	zero,0x1
    1ce4:	0f00                	addi	s0,sp,912
    1ce6:	e908                	sd	a0,16(a0)
    1ce8:	0005                	c.nop	1
    1cea:	1300                	addi	s0,sp,416
    1cec:	00a4                	addi	s1,sp,72
    1cee:	0000                	unimp
    1cf0:	0636                	slli	a2,a2,0xd
    1cf2:	0000                	unimp
    1cf4:	7d14                	ld	a3,56(a0)
    1cf6:	0004                	0x4
    1cf8:	1400                	addi	s0,sp,544
    1cfa:	011e                	slli	sp,sp,0x7
    1cfc:	0000                	unimp
    1cfe:	a414                	fsd	fa3,8(s0)
    1d00:	0000                	unimp
    1d02:	1400                	addi	s0,sp,544
    1d04:	002d                	c.nop	11
    1d06:	0000                	unimp
    1d08:	0f00                	addi	s0,sp,912
    1d0a:	1808                	addi	a0,sp,48
    1d0c:	0006                	c.slli	zero,0x1
    1d0e:	1300                	addi	s0,sp,416
    1d10:	002d                	c.nop	11
    1d12:	0000                	unimp
    1d14:	0650                	addi	a2,sp,772
    1d16:	0000                	unimp
    1d18:	7d14                	ld	a3,56(a0)
    1d1a:	0004                	0x4
    1d1c:	1400                	addi	s0,sp,544
    1d1e:	011e                	slli	sp,sp,0x7
    1d20:	0000                	unimp
    1d22:	0f00                	addi	s0,sp,912
    1d24:	3c08                	fld	fa0,56(s0)
    1d26:	0006                	c.slli	zero,0x1
    1d28:	0800                	addi	s0,sp,16
    1d2a:	0000006b          	0x6b
    1d2e:	0666                	slli	a2,a2,0x19
    1d30:	0000                	unimp
    1d32:	3b09                	addiw	s6,s6,-30
    1d34:	0000                	unimp
    1d36:	0200                	addi	s0,sp,256
    1d38:	0800                	addi	s0,sp,16
    1d3a:	0000006b          	0x6b
    1d3e:	0676                	slli	a2,a2,0x1d
    1d40:	0000                	unimp
    1d42:	3b09                	addiw	s6,s6,-30
    1d44:	0000                	unimp
    1d46:	0000                	unimp
    1d48:	0400                	addi	s0,sp,512
    1d4a:	032d                	addi	t1,t1,11
    1d4c:	0000                	unimp
    1d4e:	2405                	addiw	s0,s0,1
    1d50:	1a01                	addi	s4,s4,-32
    1d52:	031c                	addi	a5,sp,384
    1d54:	0000                	unimp
    1d56:	4f19                	li	t5,6
    1d58:	0004                	0x4
    1d5a:	1800                	addi	s0,sp,48
    1d5c:	2805                	addiw	a6,a6,1
    1d5e:	0801                	addi	a6,a6,0
    1d60:	06bc                	addi	a5,sp,840
    1d62:	0000                	unimp
    1d64:	00035f17          	auipc	t5,0x35
    1d68:	0500                	addi	s0,sp,640
    1d6a:	012a                	slli	sp,sp,0xa
    1d6c:	bc11                	j	1780 <__stack_align+0x1770>
    1d6e:	0006                	c.slli	zero,0x1
    1d70:	0000                	unimp
    1d72:	0001b417          	auipc	s0,0x1b
    1d76:	0500                	addi	s0,sp,640
    1d78:	2d07012b          	0x2d07012b
    1d7c:	0000                	unimp
    1d7e:	0800                	addi	s0,sp,16
    1d80:	00032717          	auipc	a4,0x32
    1d84:	0500                	addi	s0,sp,640
    1d86:	012c                	addi	a1,sp,136
    1d88:	0006c20b          	0x6c20b
    1d8c:	1000                	addi	s0,sp,32
    1d8e:	0f00                	addi	s0,sp,912
    1d90:	8308                	0x8308
    1d92:	0006                	c.slli	zero,0x1
    1d94:	0f00                	addi	s0,sp,912
    1d96:	7608                	ld	a0,40(a2)
    1d98:	0006                	c.slli	zero,0x1
    1d9a:	1900                	addi	s0,sp,176
    1d9c:	000c                	0xc
    1d9e:	0000                	unimp
    1da0:	050e                	slli	a0,a0,0x3
    1da2:	0144                	addi	s1,sp,132
    1da4:	0108                	addi	a0,sp,128
    1da6:	17000007          	0x17000007
    1daa:	03b6                	slli	t2,t2,0xd
    1dac:	0000                	unimp
    1dae:	4505                	li	a0,1
    1db0:	1201                	addi	tp,tp,-32
    1db2:	0701                	addi	a4,a4,0
    1db4:	0000                	unimp
    1db6:	1700                	addi	s0,sp,928
    1db8:	03ea                	slli	t2,t2,0x1a
    1dba:	0000                	unimp
    1dbc:	4605                	li	a2,1
    1dbe:	1201                	addi	tp,tp,-32
    1dc0:	0701                	addi	a4,a4,0
    1dc2:	0000                	unimp
    1dc4:	1706                	slli	a4,a4,0x21
    1dc6:	0406                	slli	s0,s0,0x1
    1dc8:	0000                	unimp
    1dca:	4705                	li	a4,1
    1dcc:	1201                	addi	tp,tp,-32
    1dce:	0079                	c.nop	30
    1dd0:	0000                	unimp
    1dd2:	000c                	0xc
    1dd4:	7908                	ld	a0,48(a0)
    1dd6:	0000                	unimp
    1dd8:	1100                	addi	s0,sp,160
    1dda:	09000007          	0x9000007
    1dde:	0000003b          	addw	zero,zero,zero
    1de2:	0002                	c.slli64	zero
    1de4:	d81a                	sw	t1,48(sp)
    1de6:	8505                	srai	a0,a0,0x1
    1de8:	0702                	c.slli64	a4
    1dea:	0826                	slli	a6,a6,0x9
    1dec:	0000                	unimp
    1dee:	00043317          	auipc	t1,0x43
    1df2:	0500                	addi	s0,sp,640
    1df4:	5d180287          	0x5d180287
    1df8:	0000                	unimp
    1dfa:	0000                	unimp
    1dfc:	0003f017          	auipc	zero,0x3f
    1e00:	0500                	addi	s0,sp,640
    1e02:	0288                	addi	a0,sp,320
    1e04:	d112                	sw	tp,160(sp)
    1e06:	0005                	c.nop	1
    1e08:	0800                	addi	s0,sp,16
    1e0a:	0001e317          	auipc	t1,0x1e
    1e0e:	0500                	addi	s0,sp,640
    1e10:	0289                	addi	t0,t0,2
    1e12:	2610                	fld	fa2,8(a2)
    1e14:	0008                	0x8
    1e16:	1000                	addi	s0,sp,32
    1e18:	00048b17          	auipc	s6,0x48
    1e1c:	0500                	addi	s0,sp,640
    1e1e:	028a                	slli	t0,t0,0x2
    1e20:	0001b417          	auipc	s0,0x1b
    1e24:	2c00                	fld	fs0,24(s0)
    1e26:	00016417          	auipc	s0,0x16
    1e2a:	0500                	addi	s0,sp,640
    1e2c:	2d0f028b          	0x2d0f028b
    1e30:	0000                	unimp
    1e32:	5000                	lw	s0,32(s0)
    1e34:	00035a17          	auipc	s4,0x35
    1e38:	0500                	addi	s0,sp,640
    1e3a:	028c                	addi	a1,sp,320
    1e3c:	362c                	fld	fa1,104(a2)
    1e3e:	0008                	0x8
    1e40:	5800                	lw	s0,48(s0)
    1e42:	0004a117          	auipc	sp,0x4a
    1e46:	0500                	addi	s0,sp,640
    1e48:	028d                	addi	t0,t0,3
    1e4a:	c81a                	sw	t1,16(sp)
    1e4c:	0006                	c.slli	zero,0x1
    1e4e:	6000                	ld	s0,0(s0)
    1e50:	00036517          	auipc	a0,0x36
    1e54:	0500                	addi	s0,sp,640
    1e56:	028e                	slli	t0,t0,0x3
    1e58:	1216                	slli	tp,tp,0x25
    1e5a:	0001                	nop
    1e5c:	7000                	ld	s0,32(s0)
    1e5e:	0004a617          	auipc	a2,0x4a
    1e62:	0500                	addi	s0,sp,640
    1e64:	1216028f          	0x1216028f
    1e68:	0001                	nop
    1e6a:	7800                	ld	s0,48(s0)
    1e6c:	00008817          	auipc	a6,0x8
    1e70:	0500                	addi	s0,sp,640
    1e72:	0290                	addi	a2,sp,320
    1e74:	1216                	slli	tp,tp,0x25
    1e76:	0001                	nop
    1e78:	8000                	0x8000
    1e7a:	00045e17          	auipc	t3,0x45
    1e7e:	0500                	addi	s0,sp,640
    1e80:	0291                	addi	t0,t0,4
    1e82:	3d10                	fld	fa2,56(a0)
    1e84:	0008                	0x8
    1e86:	8800                	0x8800
    1e88:	0001d717          	auipc	a4,0x1d
    1e8c:	0500                	addi	s0,sp,640
    1e8e:	0292                	slli	t0,t0,0x4
    1e90:	4d10                	lw	a2,24(a0)
    1e92:	0008                	0x8
    1e94:	9000                	0x9000
    1e96:	00041317          	auipc	t1,0x41
    1e9a:	0500                	addi	s0,sp,640
    1e9c:	2d0f0293          	addi	t0,t5,720 # 37034 <__stack_size+0x2f034>
    1ea0:	0000                	unimp
    1ea2:	a800                	fsd	fs0,16(s0)
    1ea4:	00012a17          	auipc	s4,0x12
    1ea8:	0500                	addi	s0,sp,640
    1eaa:	0294                	addi	a3,sp,320
    1eac:	1216                	slli	tp,tp,0x25
    1eae:	0001                	nop
    1eb0:	ac00                	fsd	fs0,24(s0)
    1eb2:	00007917          	auipc	s2,0x7
    1eb6:	0500                	addi	s0,sp,640
    1eb8:	0295                	addi	t0,t0,5
    1eba:	1216                	slli	tp,tp,0x25
    1ebc:	0001                	nop
    1ebe:	b400                	fsd	fs0,40(s0)
    1ec0:	00011917          	auipc	s2,0x11
    1ec4:	0500                	addi	s0,sp,640
    1ec6:	0296                	slli	t0,t0,0x5
    1ec8:	1216                	slli	tp,tp,0x25
    1eca:	0001                	nop
    1ecc:	bc00                	fsd	fs0,56(s0)
    1ece:	00002517          	auipc	a0,0x2
    1ed2:	0500                	addi	s0,sp,640
    1ed4:	12160297          	auipc	t0,0x12160
    1ed8:	0001                	nop
    1eda:	c400                	sw	s0,8(s0)
    1edc:	00003417          	auipc	s0,0x3
    1ee0:	0500                	addi	s0,sp,640
    1ee2:	0298                	addi	a4,sp,320
    1ee4:	1216                	slli	tp,tp,0x25
    1ee6:	0001                	nop
    1ee8:	cc00                	sw	s0,24(s0)
    1eea:	00030317          	auipc	t1,0x30
    1eee:	0500                	addi	s0,sp,640
    1ef0:	0299                	addi	t0,t0,6
    1ef2:	2d08                	fld	fa0,24(a0)
    1ef4:	0000                	unimp
    1ef6:	d400                	sw	s0,40(s0)
    1ef8:	0800                	addi	s0,sp,16
    1efa:	000005d7          	0x5d7
    1efe:	0836                	slli	a6,a6,0xd
    1f00:	0000                	unimp
    1f02:	3b09                	addiw	s6,s6,-30
    1f04:	0000                	unimp
    1f06:	1900                	addi	s0,sp,176
    1f08:	0300                	addi	s0,sp,384
    1f0a:	0708                	addi	a0,sp,896
    1f0c:	0045                	c.nop	17
    1f0e:	0000                	unimp
    1f10:	d708                	sw	a0,40(a4)
    1f12:	0005                	c.nop	1
    1f14:	4d00                	lw	s0,24(a0)
    1f16:	0008                	0x8
    1f18:	0900                	addi	s0,sp,144
    1f1a:	0000003b          	addw	zero,zero,zero
    1f1e:	d7080007          	0xd7080007
    1f22:	0005                	c.nop	1
    1f24:	5d00                	lw	s0,56(a0)
    1f26:	0008                	0x8
    1f28:	0900                	addi	s0,sp,144
    1f2a:	0000003b          	addw	zero,zero,zero
    1f2e:	681b0017          	auipc	zero,0x681b0
    1f32:	0501                	addi	a0,a0,0
    1f34:	029e                	slli	t0,t0,0x7
    1f36:	00088507          	0x88507
    1f3a:	1700                	addi	s0,sp,928
    1f3c:	02a6                	slli	t0,t0,0x9
    1f3e:	0000                	unimp
    1f40:	a105                	j	2360 <__stack_align+0x2350>
    1f42:	1b02                	slli	s6,s6,0x20
    1f44:	0885                	addi	a7,a7,1
    1f46:	0000                	unimp
    1f48:	1700                	addi	s0,sp,928
    1f4a:	0291                	addi	t0,t0,4
    1f4c:	0000                	unimp
    1f4e:	a205                	j	206e <__stack_align+0x205e>
    1f50:	1802                	slli	a6,a6,0x20
    1f52:	0895                	addi	a7,a7,5
    1f54:	0000                	unimp
    1f56:	00f0                	addi	a2,sp,76
    1f58:	1608                	addi	a0,sp,800
    1f5a:	95000003          	lb	zero,-1712(zero) # fffffffffffff950 <ali3_data.1515+0xffffffff7ffaf750>
    1f5e:	0008                	0x8
    1f60:	0900                	addi	s0,sp,144
    1f62:	0000003b          	addw	zero,zero,zero
    1f66:	001d                	c.nop	7
    1f68:	5d08                	lw	a0,56(a0)
    1f6a:	0000                	unimp
    1f6c:	a500                	fsd	fs0,8(a0)
    1f6e:	0008                	0x8
    1f70:	0900                	addi	s0,sp,144
    1f72:	0000003b          	addw	zero,zero,zero
    1f76:	001d                	c.nop	7
    1f78:	681c                	ld	a5,16(s0)
    1f7a:	0501                	addi	a0,a0,0
    1f7c:	cb030283          	lb	t0,-848(t1) # 31b9a <__stack_size+0x29b9a>
    1f80:	0008                	0x8
    1f82:	1d00                	addi	s0,sp,688
    1f84:	000003af          	0x3af
    1f88:	9a05                	andi	a2,a2,-31
    1f8a:	0b02                	c.slli64	s6
    1f8c:	0711                	addi	a4,a4,4
    1f8e:	0000                	unimp
    1f90:	781d                	lui	a6,0xfffe7
    1f92:	0004                	0x4
    1f94:	0500                	addi	s0,sp,640
    1f96:	5d0b02a3          	sb	a6,1477(s6) # 4a3dd <__stack_size+0x423dd>
    1f9a:	0008                	0x8
    1f9c:	0000                	unimp
    1f9e:	d708                	sw	a0,40(a4)
    1fa0:	0005                	c.nop	1
    1fa2:	db00                	sw	s0,48(a4)
    1fa4:	0008                	0x8
    1fa6:	0900                	addi	s0,sp,144
    1fa8:	0000003b          	addw	zero,zero,zero
    1fac:	0018                	0x18
    1fae:	6e1e                	ld	t3,448(sp)
    1fb0:	0000                	unimp
    1fb2:	0f00                	addi	s0,sp,912
    1fb4:	db08                	sw	a0,48(a4)
    1fb6:	0008                	0x8
    1fb8:	1f00                	addi	s0,sp,944
    1fba:	08f1                	addi	a7,a7,28
    1fbc:	0000                	unimp
    1fbe:	7d14                	ld	a3,56(a0)
    1fc0:	0004                	0x4
    1fc2:	0000                	unimp
    1fc4:	08e6080f          	0x8e6080f
    1fc8:	0000                	unimp
    1fca:	019e080f          	0x19e080f
    1fce:	0000                	unimp
    1fd0:	081f 0009 1400      	0x14000009081f
    1fd6:	002d                	c.nop	11
    1fd8:	0000                	unimp
    1fda:	0f00                	addi	s0,sp,912
    1fdc:	0e08                	addi	a0,sp,784
    1fde:	0009                	c.nop	2
    1fe0:	0f00                	addi	s0,sp,912
    1fe2:	fd08                	sd	a0,56(a0)
    1fe4:	0008                	0x8
    1fe6:	0800                	addi	s0,sp,16
    1fe8:	0676                	slli	a2,a2,0x1d
    1fea:	0000                	unimp
    1fec:	0924                	addi	s1,sp,152
    1fee:	0000                	unimp
    1ff0:	3b09                	addiw	s6,s6,-30
    1ff2:	0000                	unimp
    1ff4:	0200                	addi	s0,sp,256
    1ff6:	2000                	fld	fs0,0(s0)
    1ff8:	00000427          	0x427
    1ffc:	3305                	addiw	t1,t1,-31
    1ffe:	047d1703          	lh	a4,71(s10) # 10bbf <__stack_size+0x8bbf>
    2002:	0000                	unimp
    2004:	2020                	fld	fs0,64(s0)
    2006:	0004                	0x4
    2008:	0500                	addi	s0,sp,640
    200a:	0334                	addi	a3,sp,392
    200c:	831d                	srli	a4,a4,0x7
    200e:	0004                	0x4
    2010:	0800                	addi	s0,sp,16
    2012:	060d                	addi	a2,a2,3
    2014:	0000                	unimp
    2016:	0949                	addi	s2,s2,18
    2018:	0000                	unimp
    201a:	0021                	c.nop	8
    201c:	3e15                	addiw	t3,t3,-27
    201e:	0009                	c.nop	2
    2020:	2200                	fld	fs0,0(a2)
    2022:	0104                	addi	s1,sp,128
    2024:	0000                	unimp
    2026:	49241407          	0x49241407
    202a:	0009                	c.nop	2
    202c:	2200                	fld	fs0,0(a2)
    202e:	00000347          	fmsub.s	ft6,ft0,ft0,ft0,rne
    2032:	2d151507          	0x2d151507
    2036:	0000                	unimp
    2038:	0500                	addi	s0,sp,640
    203a:	000002cb          	fnmsub.s	ft5,ft0,ft0,ft0,rne
    203e:	3c08                	fld	fa0,56(s0)
    2040:	8014                	0x8014
    2042:	0000                	unimp
    2044:	2300                	fld	fs0,0(a4)
    2046:	0966                	slli	s2,s2,0x19
    2048:	0000                	unimp
    204a:	f705                	bnez	a4,1f72 <__stack_align+0x1f62>
    204c:	0004                	0x4
    204e:	0900                	addi	s0,sp,144
    2050:	129d                	addi	t0,t0,-25
    2052:	0098                	addi	a4,sp,64
    2054:	0000                	unimp
    2056:	bc22                	fsd	fs0,56(sp)
    2058:	0a000003          	lb	zero,160(zero) # a0 <__stack_align+0x90>
    205c:	1a06                	slli	s4,s4,0x21
    205e:	0972                	slli	s2,s2,0x1c
    2060:	0000                	unimp
    2062:	6522                	ld	a0,8(sp)
    2064:	0000                	unimp
    2066:	0a00                	addi	s0,sp,272
    2068:	09721a07          	0x9721a07
    206c:	0000                	unimp
    206e:	4924                	lw	s1,80(a0)
    2070:	0006                	c.slli	zero,0x1
    2072:	0100                	addi	s0,sp,128
    2074:	0705                	addi	a4,a4,1
    2076:	00000977          	0x977
    207a:	1fd0                	addi	a2,sp,1012
    207c:	8000                	0x8000
    207e:	0000                	unimp
    2080:	0000                	unimp
    2082:	0014                	0x14
    2084:	0000                	unimp
    2086:	0000                	unimp
    2088:	0000                	unimp
    208a:	9c01                	subw	s0,s0,s0
    208c:	000009fb          	0x9fb
    2090:	a025                	j	20b8 <__stack_align+0x20a8>
    2092:	0001                	nop
    2094:	0100                	addi	s0,sp,128
    2096:	1205                	addi	tp,tp,-31
    2098:	002d                	c.nop	11
    209a:	0000                	unimp
    209c:	00e4                	addi	s1,sp,76
    209e:	0000                	unimp
    20a0:	7026                	0x7026
    20a2:	7274                	ld	a3,224(a2)
    20a4:	0100                	addi	s0,sp,128
    20a6:	1e05                	addi	t3,t3,-31
    20a8:	00000977          	0x977
    20ac:	011d                	addi	sp,sp,7
    20ae:	0000                	unimp
    20b0:	6426                	ld	s0,72(sp)
    20b2:	7269                	lui	tp,0xffffa
    20b4:	0100                	addi	s0,sp,128
    20b6:	2705                	addiw	a4,a4,1
    20b8:	002d                	c.nop	11
    20ba:	0000                	unimp
    20bc:	0156                	slli	sp,sp,0x15
    20be:	0000                	unimp
    20c0:	001fd827          	0x1fd827
    20c4:	0080                	addi	s0,sp,64
    20c6:	0000                	unimp
    20c8:	fb00                	sd	s0,48(a4)
    20ca:	0009                	c.nop	2
    20cc:	0000                	unimp
    20ce:	e628                	sd	a0,72(a2)
    20d0:	0000                	unimp
    20d2:	e600                	sd	s0,8(a2)
    20d4:	0000                	unimp
    20d6:	0700                	addi	s0,sp,896
    20d8:	04000d0f          	0x4000d0f
    20dc:	000a                	c.slli	zero,0x2
    20de:	0400                	addi	s0,sp,512
    20e0:	0200                	addi	s0,sp,256
    20e2:	08000007          	0x8000007
    20e6:	0d01                	addi	s10,s10,0
    20e8:	0002                	c.slli64	zero
    20ea:	0c00                	addi	s0,sp,528
    20ec:	065f 0000 04b9      	0x4b90000065f
    20f2:	0000                	unimp
    20f4:	1fe4                	addi	s1,sp,1020
    20f6:	8000                	0x8000
    20f8:	0000                	unimp
    20fa:	0000                	unimp
    20fc:	0016                	c.slli	zero,0x5
    20fe:	0000                	unimp
    2100:	0000                	unimp
    2102:	0000                	unimp
    2104:	06f5                	addi	a3,a3,29
    2106:	0000                	unimp
    2108:	0402                	c.slli64	s0
    210a:	6905                	lui	s2,0x1
    210c:	746e                	ld	s0,248(sp)
    210e:	0300                	addi	s0,sp,384
    2110:	0508                	addi	a0,sp,640
    2112:	00a4                	addi	s1,sp,72
    2114:	0000                	unimp
    2116:	8c04                	0x8c04
    2118:	0005                	c.nop	1
    211a:	0200                	addi	s0,sp,256
    211c:	17d1                	addi	a5,a5,-12
    211e:	00000047          	fmsub.s	ft0,ft0,ft0,ft0,rne
    2122:	4a070803          	lb	a6,1184(a4) # 1f328 <__stack_size+0x17328>
    2126:	0000                	unimp
    2128:	0300                	addi	s0,sp,384
    212a:	0508                	addi	a0,sp,640
    212c:	009f 0000 1003      	0x10030000009f
    2132:	9a04                	0x9a04
    2134:	0002                	c.slli64	zero
    2136:	0500                	addi	s0,sp,640
    2138:	01fe                	slli	gp,gp,0x1f
    213a:	0000                	unimp
    213c:	5e02                	lw	t3,32(sp)
    213e:	1701                	addi	a4,a4,-32
    2140:	0069                	c.nop	26
    2142:	0000                	unimp
    2144:	4f070403          	lb	s0,1264(a4)
    2148:	0000                	unimp
    214a:	0300                	addi	s0,sp,384
    214c:	0601                	addi	a2,a2,0
    214e:	02f2                	slli	t0,t0,0x1c
    2150:	0000                	unimp
    2152:	f0080103          	lb	sp,-256(a6) # fffffffffffe6f00 <ali3_data.1515+0xffffffff7ff96d00>
    2156:	0002                	c.slli64	zero
    2158:	0300                	addi	s0,sp,384
    215a:	0502                	c.slli64	a0
    215c:	030c                	addi	a1,sp,384
    215e:	0000                	unimp
    2160:	bb070203          	lb	tp,-1104(a4)
    2164:	0001                	nop
    2166:	0400                	addi	s0,sp,512
    2168:	02c9                	addi	t0,t0,18
    216a:	0000                	unimp
    216c:	47196903          	lwu	s2,1137(s2) # 1471 <__stack_align+0x1461>
    2170:	0000                	unimp
    2172:	0400                	addi	s0,sp,512
    2174:	04f6                	slli	s1,s1,0x1d
    2176:	0000                	unimp
    2178:	2e04                	fld	fs1,24(a2)
    217a:	340e                	fld	fs0,224(sp)
    217c:	0000                	unimp
    217e:	0400                	addi	s0,sp,512
    2180:	03d9                	addi	t2,t2,22
    2182:	0000                	unimp
    2184:	7404                	ld	s1,40(s0)
    2186:	340e                	fld	fs0,224(sp)
    2188:	0000                	unimp
    218a:	0400                	addi	s0,sp,512
    218c:	0455                	addi	s0,s0,21
    218e:	0000                	unimp
    2190:	9304                	0x9304
    2192:	00003417          	auipc	s0,0x3
    2196:	0600                	addi	s0,sp,768
    2198:	0404                	addi	s1,sp,512
    219a:	03a5                	addi	t2,t2,9
    219c:	00de                	slli	ra,ra,0x17
    219e:	0000                	unimp
    21a0:	0001f807          	0x1f807
    21a4:	0400                	addi	s0,sp,512
    21a6:	005c0ca7          	0x5c0ca7
    21aa:	0000                	unimp
    21ac:	00018807          	0x18807
    21b0:	0400                	addi	s0,sp,512
    21b2:	13a8                	addi	a0,sp,488
    21b4:	00de                	slli	ra,ra,0x17
    21b6:	0000                	unimp
    21b8:	0800                	addi	s0,sp,16
    21ba:	00000077          	0x77
    21be:	00ee                	slli	ra,ra,0x1b
    21c0:	0000                	unimp
    21c2:	4709                	li	a4,2
    21c4:	0000                	unimp
    21c6:	0300                	addi	s0,sp,384
    21c8:	0a00                	addi	s0,sp,272
    21ca:	0408                	addi	a0,sp,512
    21cc:	09a2                	slli	s3,s3,0x8
    21ce:	0112                	slli	sp,sp,0x4
    21d0:	0000                	unimp
    21d2:	0003c30b          	0x3c30b
    21d6:	0400                	addi	s0,sp,512
    21d8:	07a4                	addi	s1,sp,968
    21da:	002d                	c.nop	11
    21dc:	0000                	unimp
    21de:	0b00                	addi	s0,sp,400
    21e0:	000003cb          	fnmsub.s	ft7,ft0,ft0,ft0,rne
    21e4:	a904                	fsd	fs1,16(a0)
    21e6:	bc05                	j	1c16 <__stack_align+0x1c06>
    21e8:	0000                	unimp
    21ea:	0400                	addi	s0,sp,512
    21ec:	0400                	addi	s0,sp,512
    21ee:	0334                	addi	a3,sp,392
    21f0:	0000                	unimp
    21f2:	aa04                	fsd	fs1,16(a2)
    21f4:	0000ee03          	lwu	t3,0(ra)
    21f8:	0c00                	addi	s0,sp,528
    21fa:	0408                	addi	a0,sp,512
    21fc:	0000040b          	0x40b
    2200:	1905                	addi	s2,s2,-31
    2202:	6919                	lui	s2,0x6
    2204:	0000                	unimp
    2206:	0400                	addi	s0,sp,512
    2208:	02de                	slli	t0,t0,0x17
    220a:	0000                	unimp
    220c:	0c06                	slli	s8,s8,0x1
    220e:	2d0d                	addiw	s10,s10,3
    2210:	0000                	unimp
    2212:	0400                	addi	s0,sp,512
    2214:	0000014b          	fnmsub.s	ft2,ft0,ft0,ft0,rne
    2218:	2305                	addiw	t1,t1,1
    221a:	00012c1b          	0x12c1b
    221e:	0d00                	addi	s0,sp,656
    2220:	015c                	addi	a5,sp,132
    2222:	0000                	unimp
    2224:	0520                	addi	s0,sp,648
    2226:	0834                	addi	a3,sp,24
    2228:	019e                	slli	gp,gp,0x7
    222a:	0000                	unimp
    222c:	00035f0b          	0x35f0b
    2230:	0500                	addi	s0,sp,640
    2232:	1336                	slli	t1,t1,0x2d
    2234:	019e                	slli	gp,gp,0x7
    2236:	0000                	unimp
    2238:	0e00                	addi	s0,sp,784
    223a:	6b5f 0500 0737      	0x73705006b5f
    2240:	002d                	c.nop	11
    2242:	0000                	unimp
    2244:	0b08                	addi	a0,sp,400
    2246:	000003a7          	0x3a7
    224a:	3705                	addiw	a4,a4,-31
    224c:	00002d0b          	0x2d0b
    2250:	0c00                	addi	s0,sp,528
    2252:	0001450b          	0x1450b
    2256:	0500                	addi	s0,sp,640
    2258:	002d1437          	lui	s0,0x2d1
    225c:	0000                	unimp
    225e:	0b10                	addi	a2,sp,400
    2260:	0440                	addi	s0,sp,516
    2262:	0000                	unimp
    2264:	3705                	addiw	a4,a4,-31
    2266:	00002d1b          	0x2d1b
    226a:	1400                	addi	s0,sp,544
    226c:	5f0e                	lw	t5,224(sp)
    226e:	0078                	addi	a4,sp,12
    2270:	3805                	addiw	a6,a6,-31
    2272:	0001a40b          	0x1a40b
    2276:	1800                	addi	s0,sp,48
    2278:	0f00                	addi	s0,sp,912
    227a:	4408                	lw	a0,8(s0)
    227c:	0001                	nop
    227e:	0800                	addi	s0,sp,16
    2280:	0120                	addi	s0,sp,136
    2282:	0000                	unimp
    2284:	01b4                	addi	a3,sp,200
    2286:	0000                	unimp
    2288:	4709                	li	a4,2
    228a:	0000                	unimp
    228c:	0000                	unimp
    228e:	0d00                	addi	s0,sp,656
    2290:	00000183          	lb	gp,0(zero) # 0 <__boot_hart>
    2294:	0524                	addi	s1,sp,648
    2296:	083c                	addi	a5,sp,24
    2298:	00000237          	lui	tp,0x0
    229c:	0000960b          	0x960b
    22a0:	0500                	addi	s0,sp,640
    22a2:	093e                	slli	s2,s2,0xf
    22a4:	002d                	c.nop	11
    22a6:	0000                	unimp
    22a8:	0b00                	addi	s0,sp,400
    22aa:	03e1                	addi	t2,t2,24
    22ac:	0000                	unimp
    22ae:	3f05                	addiw	t5,t5,-31
    22b0:	2d09                	addiw	s10,s10,2
    22b2:	0000                	unimp
    22b4:	0400                	addi	s0,sp,512
    22b6:	0000b90b          	0xb90b
    22ba:	0500                	addi	s0,sp,640
    22bc:	0940                	addi	s0,sp,148
    22be:	002d                	c.nop	11
    22c0:	0000                	unimp
    22c2:	0b08                	addi	a0,sp,400
    22c4:	000004eb          	0x4eb
    22c8:	4105                	li	sp,1
    22ca:	2d09                	addiw	s10,s10,2
    22cc:	0000                	unimp
    22ce:	0c00                	addi	s0,sp,528
    22d0:	0002ad0b          	0x2ad0b
    22d4:	0500                	addi	s0,sp,640
    22d6:	0942                	slli	s2,s2,0x10
    22d8:	002d                	c.nop	11
    22da:	0000                	unimp
    22dc:	0b10                	addi	a2,sp,400
    22de:	00000287          	0x287
    22e2:	4305                	li	t1,1
    22e4:	2d09                	addiw	s10,s10,2
    22e6:	0000                	unimp
    22e8:	1400                	addi	s0,sp,544
    22ea:	0004450b          	0x4450b
    22ee:	0500                	addi	s0,sp,640
    22f0:	0944                	addi	s1,sp,148
    22f2:	002d                	c.nop	11
    22f4:	0000                	unimp
    22f6:	0b18                	addi	a4,sp,400
    22f8:	0316                	slli	t1,t1,0x5
    22fa:	0000                	unimp
    22fc:	4505                	li	a0,1
    22fe:	2d09                	addiw	s10,s10,2
    2300:	0000                	unimp
    2302:	1c00                	addi	s0,sp,560
    2304:	0004800b          	0x4800b
    2308:	0500                	addi	s0,sp,640
    230a:	0946                	slli	s2,s2,0x11
    230c:	002d                	c.nop	11
    230e:	0000                	unimp
    2310:	0020                	addi	s0,sp,8
    2312:	c810                	sw	a2,16(s0)
    2314:	0000                	unimp
    2316:	0800                	addi	s0,sp,16
    2318:	0502                	c.slli64	a0
    231a:	027d084f          	fnmadd.d	fa6,fs10,ft7,ft0,rne
    231e:	0000                	unimp
    2320:	0001380b          	0x1380b
    2324:	0500                	addi	s0,sp,640
    2326:	0a50                	addi	a2,sp,276
    2328:	027d                	addi	tp,tp,31
    232a:	0000                	unimp
    232c:	1100                	addi	s0,sp,160
    232e:	0000                	unimp
    2330:	0000                	unimp
    2332:	5105                	li	sp,-31
    2334:	7d09                	lui	s10,0xfffe2
    2336:	0002                	c.slli64	zero
    2338:	0000                	unimp
    233a:	1101                	addi	sp,sp,-32
    233c:	03fd                	addi	t2,t2,31
    233e:	0000                	unimp
    2340:	5305                	li	t1,-31
    2342:	200a                	fld	ft0,128(sp)
    2344:	0001                	nop
    2346:	0000                	unimp
    2348:	1102                	slli	sp,sp,0x20
    234a:	00f5                	addi	ra,ra,29
    234c:	0000                	unimp
    234e:	5605                	li	a2,-31
    2350:	200a                	fld	ft0,128(sp)
    2352:	0001                	nop
    2354:	0400                	addi	s0,sp,512
    2356:	0002                	c.slli64	zero
    2358:	1e08                	addi	a0,sp,816
    235a:	0001                	nop
    235c:	8d00                	0x8d00
    235e:	0002                	c.slli64	zero
    2360:	0900                	addi	s0,sp,144
    2362:	00000047          	fmsub.s	ft0,ft0,ft0,ft0,rne
    2366:	001f b610 0002      	0x2b610001f
    236c:	1800                	addi	s0,sp,48
    236e:	08620503          	lb	a0,134(tp) # 86 <__stack_align+0x76>
    2372:	02d1                	addi	t0,t0,20
    2374:	0000                	unimp
    2376:	00035f0b          	0x35f0b
    237a:	0500                	addi	s0,sp,640
    237c:	02d11263          	bne	sp,a3,23a0 <__stack_align+0x2390>
    2380:	0000                	unimp
    2382:	0b00                	addi	s0,sp,400
    2384:	00000377          	0x377
    2388:	6405                	lui	s0,0x1
    238a:	2d06                	fld	fs10,64(sp)
    238c:	0000                	unimp
    238e:	0800                	addi	s0,sp,16
    2390:	0001400b          	0x1400b
    2394:	0500                	addi	s0,sp,640
    2396:	0966                	slli	s2,s2,0x19
    2398:	000002d7          	0x2d7
    239c:	1110                	addi	a2,sp,160
    239e:	00c8                	addi	a0,sp,68
    23a0:	0000                	unimp
    23a2:	6705                	lui	a4,0x1
    23a4:	371e                	fld	fa4,480(sp)
    23a6:	0002                	c.slli64	zero
    23a8:	1000                	addi	s0,sp,32
    23aa:	0001                	nop
    23ac:	028d080f          	0x28d080f
    23b0:	0000                	unimp
    23b2:	e708                	sd	a0,8(a4)
    23b4:	0002                	c.slli64	zero
    23b6:	e700                	sd	s0,8(a4)
    23b8:	0002                	c.slli64	zero
    23ba:	0900                	addi	s0,sp,144
    23bc:	00000047          	fmsub.s	ft0,ft0,ft0,ft0,rne
    23c0:	001f 080f 02ed      	0x2ed080f001f
    23c6:	0000                	unimp
    23c8:	0d12                	slli	s10,s10,0x4
    23ca:	0320                	addi	s0,sp,392
    23cc:	0000                	unimp
    23ce:	0510                	addi	a2,sp,640
    23d0:	087a                	slli	a6,a6,0x1e
    23d2:	0316                	slli	t1,t1,0x5
    23d4:	0000                	unimp
    23d6:	0000b30b          	0xb30b
    23da:	0500                	addi	s0,sp,640
    23dc:	0316117b          	0x316117b
    23e0:	0000                	unimp
    23e2:	0b00                	addi	s0,sp,400
    23e4:	074e                	slli	a4,a4,0x13
    23e6:	0000                	unimp
    23e8:	7c05                	lui	s8,0xfffe1
    23ea:	2d06                	fld	fs10,64(sp)
    23ec:	0000                	unimp
    23ee:	0800                	addi	s0,sp,16
    23f0:	0f00                	addi	s0,sp,912
    23f2:	7708                	ld	a0,40(a4)
    23f4:	0000                	unimp
    23f6:	0d00                	addi	s0,sp,656
    23f8:	0000033f 08ba05b0 	0x8ba05b00000033f
    2400:	045f 0000 5f0e      	0x5f0e0000045f
    2406:	0070                	addi	a2,sp,12
    2408:	bb05                	j	2138 <__stack_align+0x2128>
    240a:	1612                	slli	a2,a2,0x24
    240c:	00000003          	lb	zero,0(zero) # 0 <__boot_hart>
    2410:	5f0e                	lw	t5,224(sp)
    2412:	0072                	c.slli	zero,0x1c
    2414:	bc05                	j	1e44 <__stack_align+0x1e34>
    2416:	00002d07          	flw	fs10,0(zero) # 0 <__boot_hart>
    241a:	0800                	addi	s0,sp,16
    241c:	5f0e                	lw	t5,224(sp)
    241e:	bd050077          	0xbd050077
    2422:	00002d07          	flw	fs10,0(zero) # 0 <__boot_hart>
    2426:	0c00                	addi	s0,sp,528
    2428:	0000ee0b          	0xee0b
    242c:	0500                	addi	s0,sp,640
    242e:	09be                	slli	s3,s3,0xf
    2430:	007e                	c.slli	zero,0x1f
    2432:	0000                	unimp
    2434:	0b10                	addi	a2,sp,400
    2436:	019f 0000 bf05      	0xbf050000019f
    243c:	7e09                	lui	t3,0xfffe2
    243e:	0000                	unimp
    2440:	1200                	addi	s0,sp,288
    2442:	5f0e                	lw	t5,224(sp)
    2444:	6662                	ld	a2,24(sp)
    2446:	0500                	addi	s0,sp,640
    2448:	11c0                	addi	s0,sp,228
    244a:	02ee                	slli	t0,t0,0x1b
    244c:	0000                	unimp
    244e:	0b18                	addi	a4,sp,400
    2450:	005c                	addi	a5,sp,4
    2452:	0000                	unimp
    2454:	c105                	beqz	a0,2474 <__stack_align+0x2464>
    2456:	00002d07          	flw	fs10,0(zero) # 0 <__boot_hart>
    245a:	2800                	fld	fs0,16(s0)
    245c:	0000d60b          	0xd60b
    2460:	0500                	addi	s0,sp,640
    2462:	0ac8                	addi	a0,sp,340
    2464:	011e                	slli	sp,sp,0x7
    2466:	0000                	unimp
    2468:	0b30                	addi	a2,sp,408
    246a:	00000173          	0x173
    246e:	ca05                	beqz	a2,249e <__stack_align+0x248e>
    2470:	e31d                	bnez	a4,2496 <__stack_align+0x2486>
    2472:	0005                	c.nop	1
    2474:	3800                	fld	fs0,48(s0)
    2476:	0002800b          	0x2800b
    247a:	0500                	addi	s0,sp,640
    247c:	1dcc                	addi	a1,sp,756
    247e:	0612                	slli	a2,a2,0x4
    2480:	0000                	unimp
    2482:	0b40                	addi	s0,sp,404
    2484:	000003d3          	fadd.s	ft7,ft0,ft0,rne
    2488:	cf05                	beqz	a4,24c0 <__stack_align+0x24b0>
    248a:	360d                	addiw	a2,a2,-29
    248c:	0006                	c.slli	zero,0x1
    248e:	4800                	lw	s0,16(s0)
    2490:	00049a0b          	0x49a0b
    2494:	0500                	addi	s0,sp,640
    2496:	09d0                	addi	a2,sp,212
    2498:	0650                	addi	a2,sp,772
    249a:	0000                	unimp
    249c:	0e50                	addi	a2,sp,788
    249e:	755f 0062 d305      	0xd3050062755f
    24a4:	ee11                	bnez	a2,24c0 <__stack_align+0x24b0>
    24a6:	0002                	c.slli64	zero
    24a8:	5800                	lw	s0,48(s0)
    24aa:	5f0e                	lw	t5,224(sp)
    24ac:	7075                	c.lui	zero,0xffffd
    24ae:	0500                	addi	s0,sp,640
    24b0:	12d4                	addi	a3,sp,356
    24b2:	0316                	slli	t1,t1,0x5
    24b4:	0000                	unimp
    24b6:	0e68                	addi	a0,sp,796
    24b8:	755f 0072 d505      	0xd5050072755f
    24be:	00002d07          	flw	fs10,0(zero) # 0 <__boot_hart>
    24c2:	7000                	ld	s0,32(s0)
    24c4:	0000ad0b          	0xad0b
    24c8:	0500                	addi	s0,sp,640
    24ca:	11d8                	addi	a4,sp,228
    24cc:	0656                	slli	a2,a2,0x15
    24ce:	0000                	unimp
    24d0:	0b74                	addi	a3,sp,412
    24d2:	0472                	slli	s0,s0,0x1c
    24d4:	0000                	unimp
    24d6:	d905                	beqz	a0,2406 <__stack_align+0x23f6>
    24d8:	6611                	lui	a2,0x4
    24da:	0006                	c.slli	zero,0x1
    24dc:	7700                	ld	s0,40(a4)
    24de:	5f0e                	lw	t5,224(sp)
    24e0:	626c                	ld	a1,192(a2)
    24e2:	0500                	addi	s0,sp,640
    24e4:	11dc                	addi	a5,sp,228
    24e6:	02ee                	slli	t0,t0,0x1b
    24e8:	0000                	unimp
    24ea:	0b78                	addi	a4,sp,412
    24ec:	05ac                	addi	a1,sp,712
    24ee:	0000                	unimp
    24f0:	df05                	beqz	a4,2428 <__stack_align+0x2418>
    24f2:	00002d07          	flw	fs10,0(zero) # 0 <__boot_hart>
    24f6:	8800                	0x8800
    24f8:	00077b0b          	0x77b0b
    24fc:	0500                	addi	s0,sp,640
    24fe:	0ae0                	addi	s0,sp,348
    2500:	0098                	addi	a4,sp,64
    2502:	0000                	unimp
    2504:	0b90                	addi	a2,sp,464
    2506:	001f 0000 e305      	0xe3050000001f
    250c:	7d12                	ld	s10,288(sp)
    250e:	0004                	0x4
    2510:	9800                	0x9800
    2512:	0007ef0b          	0x7ef0b
    2516:	0500                	addi	s0,sp,640
    2518:	01380ce7          	jalr	s9,19(a6)
    251c:	0000                	unimp
    251e:	0ba0                	addi	s0,sp,472
    2520:	0351                	addi	t1,t1,20
    2522:	0000                	unimp
    2524:	e905                	bnez	a0,2554 <__stack_align+0x2544>
    2526:	120e                	slli	tp,tp,0x23
    2528:	0001                	nop
    252a:	a400                	fsd	fs0,8(s0)
    252c:	0002050b          	0x2050b
    2530:	0500                	addi	s0,sp,640
    2532:	09ea                	slli	s3,s3,0x1a
    2534:	002d                	c.nop	11
    2536:	0000                	unimp
    2538:	00ac                	addi	a1,sp,72
    253a:	0000b013          	sltiu	zero,ra,0
    253e:	7d00                	ld	s0,56(a0)
    2540:	0004                	0x4
    2542:	1400                	addi	s0,sp,544
    2544:	047d                	addi	s0,s0,31
    2546:	0000                	unimp
    2548:	1e14                	addi	a3,sp,816
    254a:	0001                	nop
    254c:	1400                	addi	s0,sp,544
    254e:	05d1                	addi	a1,a1,20
    2550:	0000                	unimp
    2552:	2d14                	fld	fa3,24(a0)
    2554:	0000                	unimp
    2556:	0000                	unimp
    2558:	0488080f          	0x488080f
    255c:	0000                	unimp
    255e:	7d15                	lui	s10,0xfffe5
    2560:	0004                	0x4
    2562:	1600                	addi	s0,sp,800
    2564:	000003af          	0x3af
    2568:	0748                	addi	a0,sp,900
    256a:	6505                	lui	a0,0x1
    256c:	0802                	c.slli64	a6
    256e:	05d1                	addi	a1,a1,20
    2570:	0000                	unimp
    2572:	0000e717          	auipc	a4,0xe
    2576:	0500                	addi	s0,sp,640
    2578:	2d070267          	jalr	tp,720(a4) # 10842 <__stack_size+0x8842>
    257c:	0000                	unimp
    257e:	0000                	unimp
    2580:	0000fd17          	auipc	s10,0xf
    2584:	0500                	addi	s0,sp,640
    2586:	026c                	addi	a1,sp,268
    2588:	0006c20b          	0x6c20b
    258c:	0800                	addi	s0,sp,16
    258e:	00018f17          	auipc	t5,0x18
    2592:	0500                	addi	s0,sp,640
    2594:	026c                	addi	a1,sp,268
    2596:	c214                	sw	a3,0(a2)
    2598:	0006                	c.slli	zero,0x1
    259a:	1000                	addi	s0,sp,32
    259c:	00015417          	auipc	s0,0x15
    25a0:	0500                	addi	s0,sp,640
    25a2:	026c                	addi	a1,sp,268
    25a4:	c21e                	sw	t2,4(sp)
    25a6:	0006                	c.slli	zero,0x1
    25a8:	1800                	addi	s0,sp,48
    25aa:	00037217          	auipc	tp,0x37
    25ae:	0500                	addi	s0,sp,640
    25b0:	026e                	slli	tp,tp,0x1b
    25b2:	2d08                	fld	fa0,24(a0)
    25b4:	0000                	unimp
    25b6:	2000                	fld	fs0,0(s0)
    25b8:	00001417          	auipc	s0,0x1
    25bc:	0500                	addi	s0,sp,640
    25be:	cb08026f          	jal	tp,fffffffffff82a6e <ali3_data.1515+0xffffffff7ff3286e>
    25c2:	0008                	0x8
    25c4:	2400                	fld	fs0,8(s0)
    25c6:	00038e17          	auipc	t3,0x38
    25ca:	0500                	addi	s0,sp,640
    25cc:	0272                	slli	tp,tp,0x1c
    25ce:	00002d07          	flw	fs10,0(zero) # 0 <__boot_hart>
    25d2:	4000                	lw	s0,0(s0)
    25d4:	00037c17          	auipc	s8,0x37
    25d8:	0500                	addi	s0,sp,640
    25da:	e0160273          	0xe0160273
    25de:	0008                	0x8
    25e0:	4800                	lw	s0,16(s0)
    25e2:	0002be17          	auipc	t3,0x2b
    25e6:	0500                	addi	s0,sp,640
    25e8:	0275                	addi	tp,tp,29
    25ea:	00002d07          	flw	fs10,0(zero) # 0 <__boot_hart>
    25ee:	5000                	lw	s0,32(s0)
    25f0:	00038417          	auipc	s0,0x38
    25f4:	0500                	addi	s0,sp,640
    25f6:	f10a0277          	0xf10a0277
    25fa:	0008                	0x8
    25fc:	5800                	lw	s0,48(s0)
    25fe:	0001f017          	auipc	zero,0x1f
    2602:	0500                	addi	s0,sp,640
    2604:	027a                	slli	tp,tp,0x1e
    2606:	00019e13          	slli	t3,gp,0x0
    260a:	6000                	ld	s0,0(s0)
    260c:	00017917          	auipc	s2,0x17
    2610:	0500                	addi	s0,sp,640
    2612:	2d07027b          	0x2d07027b
    2616:	0000                	unimp
    2618:	6800                	ld	s0,16(s0)
    261a:	0004b417          	auipc	s0,0x4b
    261e:	0500                	addi	s0,sp,640
    2620:	027c                	addi	a5,sp,268
    2622:	00019e13          	slli	t3,gp,0x0
    2626:	7000                	ld	s0,32(s0)
    2628:	0002d417          	auipc	s0,0x2d
    262c:	0500                	addi	s0,sp,640
    262e:	027d                	addi	tp,tp,31
    2630:	f714                	sd	a3,40(a4)
    2632:	0008                	0x8
    2634:	7800                	ld	s0,48(s0)
    2636:	00019717          	auipc	a4,0x19
    263a:	0500                	addi	s0,sp,640
    263c:	0280                	addi	s0,sp,320
    263e:	00002d07          	flw	fs10,0(zero) # 0 <__boot_hart>
    2642:	8000                	0x8000
    2644:	00011117          	auipc	sp,0x11
    2648:	0500                	addi	s0,sp,640
    264a:	0281                	addi	t0,t0,0
    264c:	d109                	beqz	a0,254e <__stack_align+0x253e>
    264e:	0005                	c.nop	1
    2650:	8800                	0x8800
    2652:	0002fe17          	auipc	t3,0x2f
    2656:	0500                	addi	s0,sp,640
    2658:	02a4                	addi	s1,sp,328
    265a:	0008a507          	flw	fa0,0(a7)
    265e:	9000                	0x9000
    2660:	b618                	fsd	fa4,40(a2)
    2662:	0002                	c.slli64	zero
    2664:	0500                	addi	s0,sp,640
    2666:	02a8                	addi	a0,sp,328
    2668:	0002d113          	srli	sp,t0,0x0
    266c:	f800                	sd	s0,48(s0)
    266e:	1801                	addi	a6,a6,-32
    2670:	01ce                	slli	gp,gp,0x13
    2672:	0000                	unimp
    2674:	a905                	j	2aa4 <__stack_align+0x2a94>
    2676:	1202                	slli	tp,tp,0x20
    2678:	028d                	addi	t0,t0,3
    267a:	0000                	unimp
    267c:	0200                	addi	s0,sp,256
    267e:	6818                	ld	a4,16(s0)
    2680:	0004                	0x4
    2682:	0500                	addi	s0,sp,640
    2684:	02ad                	addi	t0,t0,11
    2686:	080c                	addi	a1,sp,16
    2688:	0009                	c.nop	2
    268a:	1800                	addi	s0,sp,48
    268c:	1805                	addi	a6,a6,-31
    268e:	00de                	slli	ra,ra,0x17
    2690:	0000                	unimp
    2692:	b205                	j	1fb2 <__stack_align+0x1fa2>
    2694:	1002                	c.slli	zero,0x20
    2696:	00000683          	lb	a3,0(zero) # 0 <__boot_hart>
    269a:	0520                	addi	s0,sp,648
    269c:	c318                	sw	a4,0(a4)
    269e:	0000                	unimp
    26a0:	0500                	addi	s0,sp,640
    26a2:	02b4                	addi	a3,sp,328
    26a4:	140a                	slli	s0,s0,0x22
    26a6:	0009                	c.nop	2
    26a8:	3800                	fld	fs0,48(s0)
    26aa:	0005                	c.nop	1
    26ac:	05d7080f          	0x5d7080f
    26b0:	0000                	unimp
    26b2:	f9080103          	lb	sp,-112(a6)
    26b6:	0002                	c.slli64	zero
    26b8:	1500                	addi	s0,sp,672
    26ba:	000005d7          	0x5d7
    26be:	045f080f          	0x45f080f
    26c2:	0000                	unimp
    26c4:	0000b013          	sltiu	zero,ra,0
    26c8:	0700                	addi	s0,sp,896
    26ca:	0006                	c.slli	zero,0x1
    26cc:	1400                	addi	s0,sp,544
    26ce:	047d                	addi	s0,s0,31
    26d0:	0000                	unimp
    26d2:	1e14                	addi	a3,sp,816
    26d4:	0001                	nop
    26d6:	1400                	addi	s0,sp,544
    26d8:	00000607          	0x607
    26dc:	2d14                	fld	fa3,24(a0)
    26de:	0000                	unimp
    26e0:	0000                	unimp
    26e2:	05de080f          	0x5de080f
    26e6:	0000                	unimp
    26e8:	0715                	addi	a4,a4,5
    26ea:	0006                	c.slli	zero,0x1
    26ec:	0f00                	addi	s0,sp,912
    26ee:	e908                	sd	a0,16(a0)
    26f0:	0005                	c.nop	1
    26f2:	1300                	addi	s0,sp,416
    26f4:	00a4                	addi	s1,sp,72
    26f6:	0000                	unimp
    26f8:	0636                	slli	a2,a2,0xd
    26fa:	0000                	unimp
    26fc:	7d14                	ld	a3,56(a0)
    26fe:	0004                	0x4
    2700:	1400                	addi	s0,sp,544
    2702:	011e                	slli	sp,sp,0x7
    2704:	0000                	unimp
    2706:	a414                	fsd	fa3,8(s0)
    2708:	0000                	unimp
    270a:	1400                	addi	s0,sp,544
    270c:	002d                	c.nop	11
    270e:	0000                	unimp
    2710:	0f00                	addi	s0,sp,912
    2712:	1808                	addi	a0,sp,48
    2714:	0006                	c.slli	zero,0x1
    2716:	1300                	addi	s0,sp,416
    2718:	002d                	c.nop	11
    271a:	0000                	unimp
    271c:	0650                	addi	a2,sp,772
    271e:	0000                	unimp
    2720:	7d14                	ld	a3,56(a0)
    2722:	0004                	0x4
    2724:	1400                	addi	s0,sp,544
    2726:	011e                	slli	sp,sp,0x7
    2728:	0000                	unimp
    272a:	0f00                	addi	s0,sp,912
    272c:	3c08                	fld	fa0,56(s0)
    272e:	0006                	c.slli	zero,0x1
    2730:	0800                	addi	s0,sp,16
    2732:	00000077          	0x77
    2736:	0666                	slli	a2,a2,0x19
    2738:	0000                	unimp
    273a:	4709                	li	a4,2
    273c:	0000                	unimp
    273e:	0200                	addi	s0,sp,256
    2740:	0800                	addi	s0,sp,16
    2742:	00000077          	0x77
    2746:	0676                	slli	a2,a2,0x1d
    2748:	0000                	unimp
    274a:	4709                	li	a4,2
    274c:	0000                	unimp
    274e:	0000                	unimp
    2750:	0500                	addi	s0,sp,640
    2752:	032d                	addi	t1,t1,11
    2754:	0000                	unimp
    2756:	2405                	addiw	s0,s0,1
    2758:	1a01                	addi	s4,s4,-32
    275a:	031c                	addi	a5,sp,384
    275c:	0000                	unimp
    275e:	4f19                	li	t5,6
    2760:	0004                	0x4
    2762:	1800                	addi	s0,sp,48
    2764:	2805                	addiw	a6,a6,1
    2766:	0801                	addi	a6,a6,0
    2768:	06bc                	addi	a5,sp,840
    276a:	0000                	unimp
    276c:	00035f17          	auipc	t5,0x35
    2770:	0500                	addi	s0,sp,640
    2772:	012a                	slli	sp,sp,0xa
    2774:	bc11                	j	2188 <__stack_align+0x2178>
    2776:	0006                	c.slli	zero,0x1
    2778:	0000                	unimp
    277a:	0001b417          	auipc	s0,0x1b
    277e:	0500                	addi	s0,sp,640
    2780:	2d07012b          	0x2d07012b
    2784:	0000                	unimp
    2786:	0800                	addi	s0,sp,16
    2788:	00032717          	auipc	a4,0x32
    278c:	0500                	addi	s0,sp,640
    278e:	012c                	addi	a1,sp,136
    2790:	0006c20b          	0x6c20b
    2794:	1000                	addi	s0,sp,32
    2796:	0f00                	addi	s0,sp,912
    2798:	8308                	0x8308
    279a:	0006                	c.slli	zero,0x1
    279c:	0f00                	addi	s0,sp,912
    279e:	7608                	ld	a0,40(a2)
    27a0:	0006                	c.slli	zero,0x1
    27a2:	1900                	addi	s0,sp,176
    27a4:	000c                	0xc
    27a6:	0000                	unimp
    27a8:	050e                	slli	a0,a0,0x3
    27aa:	0144                	addi	s1,sp,132
    27ac:	0108                	addi	a0,sp,128
    27ae:	17000007          	0x17000007
    27b2:	03b6                	slli	t2,t2,0xd
    27b4:	0000                	unimp
    27b6:	4505                	li	a0,1
    27b8:	1201                	addi	tp,tp,-32
    27ba:	0701                	addi	a4,a4,0
    27bc:	0000                	unimp
    27be:	1700                	addi	s0,sp,928
    27c0:	03ea                	slli	t2,t2,0x1a
    27c2:	0000                	unimp
    27c4:	4605                	li	a2,1
    27c6:	1201                	addi	tp,tp,-32
    27c8:	0701                	addi	a4,a4,0
    27ca:	0000                	unimp
    27cc:	1706                	slli	a4,a4,0x21
    27ce:	0406                	slli	s0,s0,0x1
    27d0:	0000                	unimp
    27d2:	4705                	li	a4,1
    27d4:	1201                	addi	tp,tp,-32
    27d6:	0085                	addi	ra,ra,1
    27d8:	0000                	unimp
    27da:	000c                	0xc
    27dc:	8508                	0x8508
    27de:	0000                	unimp
    27e0:	1100                	addi	s0,sp,160
    27e2:	09000007          	0x9000007
    27e6:	00000047          	fmsub.s	ft0,ft0,ft0,ft0,rne
    27ea:	0002                	c.slli64	zero
    27ec:	d81a                	sw	t1,48(sp)
    27ee:	8505                	srai	a0,a0,0x1
    27f0:	0702                	c.slli64	a4
    27f2:	0826                	slli	a6,a6,0x9
    27f4:	0000                	unimp
    27f6:	00043317          	auipc	t1,0x43
    27fa:	0500                	addi	s0,sp,640
    27fc:	69180287          	0x69180287
    2800:	0000                	unimp
    2802:	0000                	unimp
    2804:	0003f017          	auipc	zero,0x3f
    2808:	0500                	addi	s0,sp,640
    280a:	0288                	addi	a0,sp,320
    280c:	d112                	sw	tp,160(sp)
    280e:	0005                	c.nop	1
    2810:	0800                	addi	s0,sp,16
    2812:	0001e317          	auipc	t1,0x1e
    2816:	0500                	addi	s0,sp,640
    2818:	0289                	addi	t0,t0,2
    281a:	2610                	fld	fa2,8(a2)
    281c:	0008                	0x8
    281e:	1000                	addi	s0,sp,32
    2820:	00048b17          	auipc	s6,0x48
    2824:	0500                	addi	s0,sp,640
    2826:	028a                	slli	t0,t0,0x2
    2828:	0001b417          	auipc	s0,0x1b
    282c:	2c00                	fld	fs0,24(s0)
    282e:	00016417          	auipc	s0,0x16
    2832:	0500                	addi	s0,sp,640
    2834:	2d0f028b          	0x2d0f028b
    2838:	0000                	unimp
    283a:	5000                	lw	s0,32(s0)
    283c:	00035a17          	auipc	s4,0x35
    2840:	0500                	addi	s0,sp,640
    2842:	028c                	addi	a1,sp,320
    2844:	362c                	fld	fa1,104(a2)
    2846:	0008                	0x8
    2848:	5800                	lw	s0,48(s0)
    284a:	0004a117          	auipc	sp,0x4a
    284e:	0500                	addi	s0,sp,640
    2850:	028d                	addi	t0,t0,3
    2852:	c81a                	sw	t1,16(sp)
    2854:	0006                	c.slli	zero,0x1
    2856:	6000                	ld	s0,0(s0)
    2858:	00036517          	auipc	a0,0x36
    285c:	0500                	addi	s0,sp,640
    285e:	028e                	slli	t0,t0,0x3
    2860:	1216                	slli	tp,tp,0x25
    2862:	0001                	nop
    2864:	7000                	ld	s0,32(s0)
    2866:	0004a617          	auipc	a2,0x4a
    286a:	0500                	addi	s0,sp,640
    286c:	1216028f          	0x1216028f
    2870:	0001                	nop
    2872:	7800                	ld	s0,48(s0)
    2874:	00008817          	auipc	a6,0x8
    2878:	0500                	addi	s0,sp,640
    287a:	0290                	addi	a2,sp,320
    287c:	1216                	slli	tp,tp,0x25
    287e:	0001                	nop
    2880:	8000                	0x8000
    2882:	00045e17          	auipc	t3,0x45
    2886:	0500                	addi	s0,sp,640
    2888:	0291                	addi	t0,t0,4
    288a:	3d10                	fld	fa2,56(a0)
    288c:	0008                	0x8
    288e:	8800                	0x8800
    2890:	0001d717          	auipc	a4,0x1d
    2894:	0500                	addi	s0,sp,640
    2896:	0292                	slli	t0,t0,0x4
    2898:	4d10                	lw	a2,24(a0)
    289a:	0008                	0x8
    289c:	9000                	0x9000
    289e:	00041317          	auipc	t1,0x41
    28a2:	0500                	addi	s0,sp,640
    28a4:	2d0f0293          	addi	t0,t5,720 # 37a3c <__stack_size+0x2fa3c>
    28a8:	0000                	unimp
    28aa:	a800                	fsd	fs0,16(s0)
    28ac:	00012a17          	auipc	s4,0x12
    28b0:	0500                	addi	s0,sp,640
    28b2:	0294                	addi	a3,sp,320
    28b4:	1216                	slli	tp,tp,0x25
    28b6:	0001                	nop
    28b8:	ac00                	fsd	fs0,24(s0)
    28ba:	00007917          	auipc	s2,0x7
    28be:	0500                	addi	s0,sp,640
    28c0:	0295                	addi	t0,t0,5
    28c2:	1216                	slli	tp,tp,0x25
    28c4:	0001                	nop
    28c6:	b400                	fsd	fs0,40(s0)
    28c8:	00011917          	auipc	s2,0x11
    28cc:	0500                	addi	s0,sp,640
    28ce:	0296                	slli	t0,t0,0x5
    28d0:	1216                	slli	tp,tp,0x25
    28d2:	0001                	nop
    28d4:	bc00                	fsd	fs0,56(s0)
    28d6:	00002517          	auipc	a0,0x2
    28da:	0500                	addi	s0,sp,640
    28dc:	12160297          	auipc	t0,0x12160
    28e0:	0001                	nop
    28e2:	c400                	sw	s0,8(s0)
    28e4:	00003417          	auipc	s0,0x3
    28e8:	0500                	addi	s0,sp,640
    28ea:	0298                	addi	a4,sp,320
    28ec:	1216                	slli	tp,tp,0x25
    28ee:	0001                	nop
    28f0:	cc00                	sw	s0,24(s0)
    28f2:	00030317          	auipc	t1,0x30
    28f6:	0500                	addi	s0,sp,640
    28f8:	0299                	addi	t0,t0,6
    28fa:	2d08                	fld	fa0,24(a0)
    28fc:	0000                	unimp
    28fe:	d400                	sw	s0,40(s0)
    2900:	0800                	addi	s0,sp,16
    2902:	000005d7          	0x5d7
    2906:	0836                	slli	a6,a6,0xd
    2908:	0000                	unimp
    290a:	4709                	li	a4,2
    290c:	0000                	unimp
    290e:	1900                	addi	s0,sp,176
    2910:	0300                	addi	s0,sp,384
    2912:	0708                	addi	a0,sp,896
    2914:	0045                	c.nop	17
    2916:	0000                	unimp
    2918:	d708                	sw	a0,40(a4)
    291a:	0005                	c.nop	1
    291c:	4d00                	lw	s0,24(a0)
    291e:	0008                	0x8
    2920:	0900                	addi	s0,sp,144
    2922:	00000047          	fmsub.s	ft0,ft0,ft0,ft0,rne
    2926:	d7080007          	0xd7080007
    292a:	0005                	c.nop	1
    292c:	5d00                	lw	s0,56(a0)
    292e:	0008                	0x8
    2930:	0900                	addi	s0,sp,144
    2932:	00000047          	fmsub.s	ft0,ft0,ft0,ft0,rne
    2936:	681b0017          	auipc	zero,0x681b0
    293a:	0501                	addi	a0,a0,0
    293c:	029e                	slli	t0,t0,0x7
    293e:	00088507          	0x88507
    2942:	1700                	addi	s0,sp,928
    2944:	02a6                	slli	t0,t0,0x9
    2946:	0000                	unimp
    2948:	a105                	j	2d68 <__stack_align+0x2d58>
    294a:	1b02                	slli	s6,s6,0x20
    294c:	0885                	addi	a7,a7,1
    294e:	0000                	unimp
    2950:	1700                	addi	s0,sp,928
    2952:	0291                	addi	t0,t0,4
    2954:	0000                	unimp
    2956:	a205                	j	2a76 <__stack_align+0x2a66>
    2958:	1802                	slli	a6,a6,0x20
    295a:	0895                	addi	a7,a7,5
    295c:	0000                	unimp
    295e:	00f0                	addi	a2,sp,76
    2960:	1608                	addi	a0,sp,800
    2962:	95000003          	lb	zero,-1712(zero) # fffffffffffff950 <ali3_data.1515+0xffffffff7ffaf750>
    2966:	0008                	0x8
    2968:	0900                	addi	s0,sp,144
    296a:	00000047          	fmsub.s	ft0,ft0,ft0,ft0,rne
    296e:	001d                	c.nop	7
    2970:	6908                	ld	a0,16(a0)
    2972:	0000                	unimp
    2974:	a500                	fsd	fs0,8(a0)
    2976:	0008                	0x8
    2978:	0900                	addi	s0,sp,144
    297a:	00000047          	fmsub.s	ft0,ft0,ft0,ft0,rne
    297e:	001d                	c.nop	7
    2980:	681c                	ld	a5,16(s0)
    2982:	0501                	addi	a0,a0,0
    2984:	cb030283          	lb	t0,-848(t1) # 325a2 <__stack_size+0x2a5a2>
    2988:	0008                	0x8
    298a:	1d00                	addi	s0,sp,688
    298c:	000003af          	0x3af
    2990:	9a05                	andi	a2,a2,-31
    2992:	0b02                	c.slli64	s6
    2994:	0711                	addi	a4,a4,4
    2996:	0000                	unimp
    2998:	781d                	lui	a6,0xfffe7
    299a:	0004                	0x4
    299c:	0500                	addi	s0,sp,640
    299e:	5d0b02a3          	sb	a6,1477(s6) # 4ade5 <__stack_size+0x42de5>
    29a2:	0008                	0x8
    29a4:	0000                	unimp
    29a6:	d708                	sw	a0,40(a4)
    29a8:	0005                	c.nop	1
    29aa:	db00                	sw	s0,48(a4)
    29ac:	0008                	0x8
    29ae:	0900                	addi	s0,sp,144
    29b0:	00000047          	fmsub.s	ft0,ft0,ft0,ft0,rne
    29b4:	0018                	0x18
    29b6:	6e1e                	ld	t3,448(sp)
    29b8:	0000                	unimp
    29ba:	0f00                	addi	s0,sp,912
    29bc:	db08                	sw	a0,48(a4)
    29be:	0008                	0x8
    29c0:	1f00                	addi	s0,sp,944
    29c2:	08f1                	addi	a7,a7,28
    29c4:	0000                	unimp
    29c6:	7d14                	ld	a3,56(a0)
    29c8:	0004                	0x4
    29ca:	0000                	unimp
    29cc:	08e6080f          	0x8e6080f
    29d0:	0000                	unimp
    29d2:	019e080f          	0x19e080f
    29d6:	0000                	unimp
    29d8:	081f 0009 1400      	0x14000009081f
    29de:	002d                	c.nop	11
    29e0:	0000                	unimp
    29e2:	0f00                	addi	s0,sp,912
    29e4:	0e08                	addi	a0,sp,784
    29e6:	0009                	c.nop	2
    29e8:	0f00                	addi	s0,sp,912
    29ea:	fd08                	sd	a0,56(a0)
    29ec:	0008                	0x8
    29ee:	0800                	addi	s0,sp,16
    29f0:	0676                	slli	a2,a2,0x1d
    29f2:	0000                	unimp
    29f4:	0924                	addi	s1,sp,152
    29f6:	0000                	unimp
    29f8:	4709                	li	a4,2
    29fa:	0000                	unimp
    29fc:	0200                	addi	s0,sp,256
    29fe:	2000                	fld	fs0,0(s0)
    2a00:	00000427          	0x427
    2a04:	3305                	addiw	t1,t1,-31
    2a06:	047d1703          	lh	a4,71(s10) # 115c7 <__stack_size+0x95c7>
    2a0a:	0000                	unimp
    2a0c:	2020                	fld	fs0,64(s0)
    2a0e:	0004                	0x4
    2a10:	0500                	addi	s0,sp,640
    2a12:	0334                	addi	a3,sp,392
    2a14:	831d                	srli	a4,a4,0x7
    2a16:	0004                	0x4
    2a18:	0800                	addi	s0,sp,16
    2a1a:	060d                	addi	a2,a2,3
    2a1c:	0000                	unimp
    2a1e:	0949                	addi	s2,s2,18
    2a20:	0000                	unimp
    2a22:	0021                	c.nop	8
    2a24:	3e15                	addiw	t3,t3,-27
    2a26:	0009                	c.nop	2
    2a28:	2200                	fld	fs0,0(a2)
    2a2a:	0104                	addi	s1,sp,128
    2a2c:	0000                	unimp
    2a2e:	49241407          	0x49241407
    2a32:	0009                	c.nop	2
    2a34:	2200                	fld	fs0,0(a2)
    2a36:	00000347          	fmsub.s	ft6,ft0,ft0,ft0,rne
    2a3a:	2d151507          	0x2d151507
    2a3e:	0000                	unimp
    2a40:	0400                	addi	s0,sp,512
    2a42:	000002cb          	fnmsub.s	ft5,ft0,ft0,ft0,rne
    2a46:	3c08                	fld	fa0,56(s0)
    2a48:	8c14                	0x8c14
    2a4a:	0000                	unimp
    2a4c:	2300                	fld	fs0,0(a4)
    2a4e:	0966                	slli	s2,s2,0x19
    2a50:	0000                	unimp
    2a52:	5604                	lw	s1,40(a2)
    2a54:	0004                	0x4
    2a56:	0900                	addi	s0,sp,144
    2a58:	12b8                	addi	a4,sp,360
    2a5a:	00b0                	addi	a2,sp,72
    2a5c:	0000                	unimp
    2a5e:	bc22                	fsd	fs0,56(sp)
    2a60:	0a000003          	lb	zero,160(zero) # a0 <__stack_align+0x90>
    2a64:	1a06                	slli	s4,s4,0x21
    2a66:	0972                	slli	s2,s2,0x1c
    2a68:	0000                	unimp
    2a6a:	6522                	ld	a0,8(sp)
    2a6c:	0000                	unimp
    2a6e:	0a00                	addi	s0,sp,272
    2a70:	09721a07          	0x9721a07
    2a74:	0000                	unimp
    2a76:	7324                	ld	s1,96(a4)
    2a78:	0001                	nop
    2a7a:	0100                	addi	s0,sp,128
    2a7c:	0905                	addi	s2,s2,1
    2a7e:	00000977          	0x977
    2a82:	1fe4                	addi	s1,sp,1020
    2a84:	8000                	0x8000
    2a86:	0000                	unimp
    2a88:	0000                	unimp
    2a8a:	0016                	c.slli	zero,0x5
    2a8c:	0000                	unimp
    2a8e:	0000                	unimp
    2a90:	0000                	unimp
    2a92:	9c01                	subw	s0,s0,s0
    2a94:	000009fb          	0x9fb
    2a98:	a025                	j	2ac0 <__stack_align+0x2ab0>
    2a9a:	0001                	nop
    2a9c:	0100                	addi	s0,sp,128
    2a9e:	1305                	addi	t1,t1,-31
    2aa0:	002d                	c.nop	11
    2aa2:	0000                	unimp
    2aa4:	0000018f          	0x18f
    2aa8:	7026                	0x7026
    2aaa:	7274                	ld	a3,224(a2)
    2aac:	0100                	addi	s0,sp,128
    2aae:	1f05                	addi	t5,t5,-31
    2ab0:	011e                	slli	sp,sp,0x7
    2ab2:	0000                	unimp
    2ab4:	01c8                	addi	a0,sp,196
    2ab6:	0000                	unimp
    2ab8:	6c26                	ld	s8,72(sp)
    2aba:	6e65                	lui	t3,0x19
    2abc:	0100                	addi	s0,sp,128
    2abe:	2b05                	addiw	s6,s6,1
    2ac0:	0000003b          	addw	zero,zero,zero
    2ac4:	0201                	addi	tp,tp,0
    2ac6:	0000                	unimp
    2ac8:	001fec27          	0x1fec27
    2acc:	0080                	addi	s0,sp,64
    2ace:	0000                	unimp
    2ad0:	fb00                	sd	s0,48(a4)
    2ad2:	0009                	c.nop	2
    2ad4:	0000                	unimp
    2ad6:	e628                	sd	a0,72(a2)
    2ad8:	0000                	unimp
    2ada:	e600                	sd	s0,8(a2)
    2adc:	0000                	unimp
    2ade:	0700                	addi	s0,sp,896
    2ae0:	31000d0f          	0x31000d0f
    2ae4:	000a                	c.slli	zero,0x2
    2ae6:	0400                	addi	s0,sp,512
    2ae8:	3000                	fld	fs0,32(s0)
    2aea:	0009                	c.nop	2
    2aec:	0800                	addi	s0,sp,16
    2aee:	0d01                	addi	s10,s10,0
    2af0:	0002                	c.slli64	zero
    2af2:	0c00                	addi	s0,sp,528
    2af4:	0684                	addi	s1,sp,832
    2af6:	0000                	unimp
    2af8:	04b9                	addi	s1,s1,14
    2afa:	0000                	unimp
    2afc:	1ffa                	slli	t6,t6,0x3e
    2afe:	8000                	0x8000
    2b00:	0000                	unimp
    2b02:	0000                	unimp
    2b04:	003c                	addi	a5,sp,8
    2b06:	0000                	unimp
    2b08:	0000                	unimp
    2b0a:	0000                	unimp
    2b0c:	08dd                	addi	a7,a7,23
    2b0e:	0000                	unimp
    2b10:	9202                	jalr	tp
    2b12:	0006                	c.slli	zero,0x1
    2b14:	0200                	addi	s0,sp,256
    2b16:	00391a8f          	0x391a8f
    2b1a:	0000                	unimp
    2b1c:	a4050803          	lb	a6,-1472(a0) # 4316 <__stack_align+0x4306>
    2b20:	0000                	unimp
    2b22:	0300                	addi	s0,sp,384
    2b24:	0708                	addi	a0,sp,896
    2b26:	004a                	c.slli	zero,0x12
    2b28:	0000                	unimp
    2b2a:	0404                	addi	s1,sp,512
    2b2c:	6905                	lui	s2,0x1
    2b2e:	746e                	ld	s0,248(sp)
    2b30:	0300                	addi	s0,sp,384
    2b32:	0508                	addi	a0,sp,640
    2b34:	009f 0000 1003      	0x10030000009f
    2b3a:	9a04                	0x9a04
    2b3c:	0002                	c.slli64	zero
    2b3e:	0500                	addi	s0,sp,640
    2b40:	01fe                	slli	gp,gp,0x1f
    2b42:	0000                	unimp
    2b44:	5e02                	lw	t3,32(sp)
    2b46:	1701                	addi	a4,a4,-32
    2b48:	0069                	c.nop	26
    2b4a:	0000                	unimp
    2b4c:	4f070403          	lb	s0,1264(a4) # 1fd80 <__stack_size+0x17d80>
    2b50:	0000                	unimp
    2b52:	0300                	addi	s0,sp,384
    2b54:	0601                	addi	a2,a2,0
    2b56:	02f2                	slli	t0,t0,0x1c
    2b58:	0000                	unimp
    2b5a:	f0080103          	lb	sp,-256(a6) # fffffffffffe6f00 <ali3_data.1515+0xffffffff7ff96d00>
    2b5e:	0002                	c.slli64	zero
    2b60:	0300                	addi	s0,sp,384
    2b62:	0502                	c.slli64	a0
    2b64:	030c                	addi	a1,sp,384
    2b66:	0000                	unimp
    2b68:	bb070203          	lb	tp,-1104(a4)
    2b6c:	0001                	nop
    2b6e:	0200                	addi	s0,sp,256
    2b70:	02c9                	addi	t0,t0,18
    2b72:	0000                	unimp
    2b74:	40196903          	lwu	s2,1025(s2) # 1401 <__stack_align+0x13f1>
    2b78:	0000                	unimp
    2b7a:	0200                	addi	s0,sp,256
    2b7c:	04f6                	slli	s1,s1,0x1d
    2b7e:	0000                	unimp
    2b80:	2e04                	fld	fs1,24(a2)
    2b82:	390e                	fld	fs2,224(sp)
    2b84:	0000                	unimp
    2b86:	0200                	addi	s0,sp,256
    2b88:	03d9                	addi	t2,t2,22
    2b8a:	0000                	unimp
    2b8c:	7404                	ld	s1,40(s0)
    2b8e:	390e                	fld	fs2,224(sp)
    2b90:	0000                	unimp
    2b92:	0200                	addi	s0,sp,256
    2b94:	0455                	addi	s0,s0,21
    2b96:	0000                	unimp
    2b98:	9304                	0x9304
    2b9a:	00003917          	auipc	s2,0x3
    2b9e:	0600                	addi	s0,sp,768
    2ba0:	0404                	addi	s1,sp,512
    2ba2:	03a5                	addi	t2,t2,9
    2ba4:	00de                	slli	ra,ra,0x17
    2ba6:	0000                	unimp
    2ba8:	0001f807          	0x1f807
    2bac:	0400                	addi	s0,sp,512
    2bae:	005c0ca7          	0x5c0ca7
    2bb2:	0000                	unimp
    2bb4:	00018807          	0x18807
    2bb8:	0400                	addi	s0,sp,512
    2bba:	13a8                	addi	a0,sp,488
    2bbc:	00de                	slli	ra,ra,0x17
    2bbe:	0000                	unimp
    2bc0:	0800                	addi	s0,sp,16
    2bc2:	00000077          	0x77
    2bc6:	00ee                	slli	ra,ra,0x1b
    2bc8:	0000                	unimp
    2bca:	4009                	c.li	zero,2
    2bcc:	0000                	unimp
    2bce:	0300                	addi	s0,sp,384
    2bd0:	0a00                	addi	s0,sp,272
    2bd2:	0408                	addi	a0,sp,512
    2bd4:	09a2                	slli	s3,s3,0x8
    2bd6:	0112                	slli	sp,sp,0x4
    2bd8:	0000                	unimp
    2bda:	0003c30b          	0x3c30b
    2bde:	0400                	addi	s0,sp,512
    2be0:	07a4                	addi	s1,sp,968
    2be2:	00000047          	fmsub.s	ft0,ft0,ft0,ft0,rne
    2be6:	0b00                	addi	s0,sp,400
    2be8:	000003cb          	fnmsub.s	ft7,ft0,ft0,ft0,rne
    2bec:	a904                	fsd	fs1,16(a0)
    2bee:	bc05                	j	261e <__stack_align+0x260e>
    2bf0:	0000                	unimp
    2bf2:	0400                	addi	s0,sp,512
    2bf4:	0200                	addi	s0,sp,256
    2bf6:	0334                	addi	a3,sp,392
    2bf8:	0000                	unimp
    2bfa:	aa04                	fsd	fs1,16(a2)
    2bfc:	0000ee03          	lwu	t3,0(ra)
    2c00:	0c00                	addi	s0,sp,528
    2c02:	0208                	addi	a0,sp,256
    2c04:	0000040b          	0x40b
    2c08:	1905                	addi	s2,s2,-31
    2c0a:	6919                	lui	s2,0x6
    2c0c:	0000                	unimp
    2c0e:	0200                	addi	s0,sp,256
    2c10:	02de                	slli	t0,t0,0x17
    2c12:	0000                	unimp
    2c14:	0c06                	slli	s8,s8,0x1
    2c16:	470d                	li	a4,3
    2c18:	0000                	unimp
    2c1a:	0200                	addi	s0,sp,256
    2c1c:	0000014b          	fnmsub.s	ft2,ft0,ft0,ft0,rne
    2c20:	2305                	addiw	t1,t1,1
    2c22:	00012c1b          	0x12c1b
    2c26:	0d00                	addi	s0,sp,656
    2c28:	015c                	addi	a5,sp,132
    2c2a:	0000                	unimp
    2c2c:	0520                	addi	s0,sp,648
    2c2e:	0834                	addi	a3,sp,24
    2c30:	019e                	slli	gp,gp,0x7
    2c32:	0000                	unimp
    2c34:	00035f0b          	0x35f0b
    2c38:	0500                	addi	s0,sp,640
    2c3a:	1336                	slli	t1,t1,0x2d
    2c3c:	019e                	slli	gp,gp,0x7
    2c3e:	0000                	unimp
    2c40:	0e00                	addi	s0,sp,784
    2c42:	6b5f 0500 0737      	0x73705006b5f
    2c48:	00000047          	fmsub.s	ft0,ft0,ft0,ft0,rne
    2c4c:	0b08                	addi	a0,sp,400
    2c4e:	000003a7          	0x3a7
    2c52:	3705                	addiw	a4,a4,-31
    2c54:	0000470b          	0x470b
    2c58:	0c00                	addi	s0,sp,528
    2c5a:	0001450b          	0x1450b
    2c5e:	0500                	addi	s0,sp,640
    2c60:	00471437          	lui	s0,0x471
    2c64:	0000                	unimp
    2c66:	0b10                	addi	a2,sp,400
    2c68:	0440                	addi	s0,sp,516
    2c6a:	0000                	unimp
    2c6c:	3705                	addiw	a4,a4,-31
    2c6e:	0000471b          	0x471b
    2c72:	1400                	addi	s0,sp,544
    2c74:	5f0e                	lw	t5,224(sp)
    2c76:	0078                	addi	a4,sp,12
    2c78:	3805                	addiw	a6,a6,-31
    2c7a:	0001a40b          	0x1a40b
    2c7e:	1800                	addi	s0,sp,48
    2c80:	0f00                	addi	s0,sp,912
    2c82:	4408                	lw	a0,8(s0)
    2c84:	0001                	nop
    2c86:	0800                	addi	s0,sp,16
    2c88:	0120                	addi	s0,sp,136
    2c8a:	0000                	unimp
    2c8c:	01b4                	addi	a3,sp,200
    2c8e:	0000                	unimp
    2c90:	4009                	c.li	zero,2
    2c92:	0000                	unimp
    2c94:	0000                	unimp
    2c96:	0d00                	addi	s0,sp,656
    2c98:	00000183          	lb	gp,0(zero) # 0 <__boot_hart>
    2c9c:	0524                	addi	s1,sp,648
    2c9e:	083c                	addi	a5,sp,24
    2ca0:	00000237          	lui	tp,0x0
    2ca4:	0000960b          	0x960b
    2ca8:	0500                	addi	s0,sp,640
    2caa:	093e                	slli	s2,s2,0xf
    2cac:	00000047          	fmsub.s	ft0,ft0,ft0,ft0,rne
    2cb0:	0b00                	addi	s0,sp,400
    2cb2:	03e1                	addi	t2,t2,24
    2cb4:	0000                	unimp
    2cb6:	3f05                	addiw	t5,t5,-31
    2cb8:	4709                	li	a4,2
    2cba:	0000                	unimp
    2cbc:	0400                	addi	s0,sp,512
    2cbe:	0000b90b          	0xb90b
    2cc2:	0500                	addi	s0,sp,640
    2cc4:	0940                	addi	s0,sp,148
    2cc6:	00000047          	fmsub.s	ft0,ft0,ft0,ft0,rne
    2cca:	0b08                	addi	a0,sp,400
    2ccc:	000004eb          	0x4eb
    2cd0:	4105                	li	sp,1
    2cd2:	4709                	li	a4,2
    2cd4:	0000                	unimp
    2cd6:	0c00                	addi	s0,sp,528
    2cd8:	0002ad0b          	0x2ad0b
    2cdc:	0500                	addi	s0,sp,640
    2cde:	0942                	slli	s2,s2,0x10
    2ce0:	00000047          	fmsub.s	ft0,ft0,ft0,ft0,rne
    2ce4:	0b10                	addi	a2,sp,400
    2ce6:	00000287          	0x287
    2cea:	4305                	li	t1,1
    2cec:	4709                	li	a4,2
    2cee:	0000                	unimp
    2cf0:	1400                	addi	s0,sp,544
    2cf2:	0004450b          	0x4450b
    2cf6:	0500                	addi	s0,sp,640
    2cf8:	0944                	addi	s1,sp,148
    2cfa:	00000047          	fmsub.s	ft0,ft0,ft0,ft0,rne
    2cfe:	0b18                	addi	a4,sp,400
    2d00:	0316                	slli	t1,t1,0x5
    2d02:	0000                	unimp
    2d04:	4505                	li	a0,1
    2d06:	4709                	li	a4,2
    2d08:	0000                	unimp
    2d0a:	1c00                	addi	s0,sp,560
    2d0c:	0004800b          	0x4800b
    2d10:	0500                	addi	s0,sp,640
    2d12:	0946                	slli	s2,s2,0x11
    2d14:	00000047          	fmsub.s	ft0,ft0,ft0,ft0,rne
    2d18:	0020                	addi	s0,sp,8
    2d1a:	c810                	sw	a2,16(s0)
    2d1c:	0000                	unimp
    2d1e:	0800                	addi	s0,sp,16
    2d20:	0502                	c.slli64	a0
    2d22:	027d084f          	fnmadd.d	fa6,fs10,ft7,ft0,rne
    2d26:	0000                	unimp
    2d28:	0001380b          	0x1380b
    2d2c:	0500                	addi	s0,sp,640
    2d2e:	0a50                	addi	a2,sp,276
    2d30:	027d                	addi	tp,tp,31
    2d32:	0000                	unimp
    2d34:	1100                	addi	s0,sp,160
    2d36:	0000                	unimp
    2d38:	0000                	unimp
    2d3a:	5105                	li	sp,-31
    2d3c:	7d09                	lui	s10,0xfffe2
    2d3e:	0002                	c.slli64	zero
    2d40:	0000                	unimp
    2d42:	1101                	addi	sp,sp,-32
    2d44:	03fd                	addi	t2,t2,31
    2d46:	0000                	unimp
    2d48:	5305                	li	t1,-31
    2d4a:	200a                	fld	ft0,128(sp)
    2d4c:	0001                	nop
    2d4e:	0000                	unimp
    2d50:	1102                	slli	sp,sp,0x20
    2d52:	00f5                	addi	ra,ra,29
    2d54:	0000                	unimp
    2d56:	5605                	li	a2,-31
    2d58:	200a                	fld	ft0,128(sp)
    2d5a:	0001                	nop
    2d5c:	0400                	addi	s0,sp,512
    2d5e:	0002                	c.slli64	zero
    2d60:	1e08                	addi	a0,sp,816
    2d62:	0001                	nop
    2d64:	8d00                	0x8d00
    2d66:	0002                	c.slli64	zero
    2d68:	0900                	addi	s0,sp,144
    2d6a:	0040                	addi	s0,sp,4
    2d6c:	0000                	unimp
    2d6e:	001f b610 0002      	0x2b610001f
    2d74:	1800                	addi	s0,sp,48
    2d76:	08620503          	lb	a0,134(tp) # 86 <__stack_align+0x76>
    2d7a:	02d1                	addi	t0,t0,20
    2d7c:	0000                	unimp
    2d7e:	00035f0b          	0x35f0b
    2d82:	0500                	addi	s0,sp,640
    2d84:	02d11263          	bne	sp,a3,2da8 <__stack_align+0x2d98>
    2d88:	0000                	unimp
    2d8a:	0b00                	addi	s0,sp,400
    2d8c:	00000377          	0x377
    2d90:	6405                	lui	s0,0x1
    2d92:	4706                	lw	a4,64(sp)
    2d94:	0000                	unimp
    2d96:	0800                	addi	s0,sp,16
    2d98:	0001400b          	0x1400b
    2d9c:	0500                	addi	s0,sp,640
    2d9e:	0966                	slli	s2,s2,0x19
    2da0:	000002d7          	0x2d7
    2da4:	1110                	addi	a2,sp,160
    2da6:	00c8                	addi	a0,sp,68
    2da8:	0000                	unimp
    2daa:	6705                	lui	a4,0x1
    2dac:	371e                	fld	fa4,480(sp)
    2dae:	0002                	c.slli64	zero
    2db0:	1000                	addi	s0,sp,32
    2db2:	0001                	nop
    2db4:	028d080f          	0x28d080f
    2db8:	0000                	unimp
    2dba:	e708                	sd	a0,8(a4)
    2dbc:	0002                	c.slli64	zero
    2dbe:	e700                	sd	s0,8(a4)
    2dc0:	0002                	c.slli64	zero
    2dc2:	0900                	addi	s0,sp,144
    2dc4:	0040                	addi	s0,sp,4
    2dc6:	0000                	unimp
    2dc8:	001f 080f 02ed      	0x2ed080f001f
    2dce:	0000                	unimp
    2dd0:	0d12                	slli	s10,s10,0x4
    2dd2:	0320                	addi	s0,sp,392
    2dd4:	0000                	unimp
    2dd6:	0510                	addi	a2,sp,640
    2dd8:	087a                	slli	a6,a6,0x1e
    2dda:	0316                	slli	t1,t1,0x5
    2ddc:	0000                	unimp
    2dde:	0000b30b          	0xb30b
    2de2:	0500                	addi	s0,sp,640
    2de4:	0316117b          	0x316117b
    2de8:	0000                	unimp
    2dea:	0b00                	addi	s0,sp,400
    2dec:	074e                	slli	a4,a4,0x13
    2dee:	0000                	unimp
    2df0:	7c05                	lui	s8,0xfffe1
    2df2:	4706                	lw	a4,64(sp)
    2df4:	0000                	unimp
    2df6:	0800                	addi	s0,sp,16
    2df8:	0f00                	addi	s0,sp,912
    2dfa:	7708                	ld	a0,40(a4)
    2dfc:	0000                	unimp
    2dfe:	0d00                	addi	s0,sp,656
    2e00:	0000033f 08ba05b0 	0x8ba05b00000033f
    2e08:	045f 0000 5f0e      	0x5f0e0000045f
    2e0e:	0070                	addi	a2,sp,12
    2e10:	bb05                	j	2b40 <__stack_align+0x2b30>
    2e12:	1612                	slli	a2,a2,0x24
    2e14:	00000003          	lb	zero,0(zero) # 0 <__boot_hart>
    2e18:	5f0e                	lw	t5,224(sp)
    2e1a:	0072                	c.slli	zero,0x1c
    2e1c:	bc05                	j	284c <__stack_align+0x283c>
    2e1e:	00004707          	flq	fa4,0(zero) # 0 <__boot_hart>
    2e22:	0800                	addi	s0,sp,16
    2e24:	5f0e                	lw	t5,224(sp)
    2e26:	bd050077          	0xbd050077
    2e2a:	00004707          	flq	fa4,0(zero) # 0 <__boot_hart>
    2e2e:	0c00                	addi	s0,sp,528
    2e30:	0000ee0b          	0xee0b
    2e34:	0500                	addi	s0,sp,640
    2e36:	09be                	slli	s3,s3,0xf
    2e38:	007e                	c.slli	zero,0x1f
    2e3a:	0000                	unimp
    2e3c:	0b10                	addi	a2,sp,400
    2e3e:	019f 0000 bf05      	0xbf050000019f
    2e44:	7e09                	lui	t3,0xfffe2
    2e46:	0000                	unimp
    2e48:	1200                	addi	s0,sp,288
    2e4a:	5f0e                	lw	t5,224(sp)
    2e4c:	6662                	ld	a2,24(sp)
    2e4e:	0500                	addi	s0,sp,640
    2e50:	11c0                	addi	s0,sp,228
    2e52:	02ee                	slli	t0,t0,0x1b
    2e54:	0000                	unimp
    2e56:	0b18                	addi	a4,sp,400
    2e58:	005c                	addi	a5,sp,4
    2e5a:	0000                	unimp
    2e5c:	c105                	beqz	a0,2e7c <__stack_align+0x2e6c>
    2e5e:	00004707          	flq	fa4,0(zero) # 0 <__boot_hart>
    2e62:	2800                	fld	fs0,16(s0)
    2e64:	0000d60b          	0xd60b
    2e68:	0500                	addi	s0,sp,640
    2e6a:	0ac8                	addi	a0,sp,340
    2e6c:	011e                	slli	sp,sp,0x7
    2e6e:	0000                	unimp
    2e70:	0b30                	addi	a2,sp,408
    2e72:	00000173          	0x173
    2e76:	ca05                	beqz	a2,2ea6 <__stack_align+0x2e96>
    2e78:	e31d                	bnez	a4,2e9e <__stack_align+0x2e8e>
    2e7a:	0005                	c.nop	1
    2e7c:	3800                	fld	fs0,48(s0)
    2e7e:	0002800b          	0x2800b
    2e82:	0500                	addi	s0,sp,640
    2e84:	1dcc                	addi	a1,sp,756
    2e86:	0612                	slli	a2,a2,0x4
    2e88:	0000                	unimp
    2e8a:	0b40                	addi	s0,sp,404
    2e8c:	000003d3          	fadd.s	ft7,ft0,ft0,rne
    2e90:	cf05                	beqz	a4,2ec8 <__stack_align+0x2eb8>
    2e92:	360d                	addiw	a2,a2,-29
    2e94:	0006                	c.slli	zero,0x1
    2e96:	4800                	lw	s0,16(s0)
    2e98:	00049a0b          	0x49a0b
    2e9c:	0500                	addi	s0,sp,640
    2e9e:	09d0                	addi	a2,sp,212
    2ea0:	0650                	addi	a2,sp,772
    2ea2:	0000                	unimp
    2ea4:	0e50                	addi	a2,sp,788
    2ea6:	755f 0062 d305      	0xd3050062755f
    2eac:	ee11                	bnez	a2,2ec8 <__stack_align+0x2eb8>
    2eae:	0002                	c.slli64	zero
    2eb0:	5800                	lw	s0,48(s0)
    2eb2:	5f0e                	lw	t5,224(sp)
    2eb4:	7075                	c.lui	zero,0xffffd
    2eb6:	0500                	addi	s0,sp,640
    2eb8:	12d4                	addi	a3,sp,356
    2eba:	0316                	slli	t1,t1,0x5
    2ebc:	0000                	unimp
    2ebe:	0e68                	addi	a0,sp,796
    2ec0:	755f 0072 d505      	0xd5050072755f
    2ec6:	00004707          	flq	fa4,0(zero) # 0 <__boot_hart>
    2eca:	7000                	ld	s0,32(s0)
    2ecc:	0000ad0b          	0xad0b
    2ed0:	0500                	addi	s0,sp,640
    2ed2:	11d8                	addi	a4,sp,228
    2ed4:	0656                	slli	a2,a2,0x15
    2ed6:	0000                	unimp
    2ed8:	0b74                	addi	a3,sp,412
    2eda:	0472                	slli	s0,s0,0x1c
    2edc:	0000                	unimp
    2ede:	d905                	beqz	a0,2e0e <__stack_align+0x2dfe>
    2ee0:	6611                	lui	a2,0x4
    2ee2:	0006                	c.slli	zero,0x1
    2ee4:	7700                	ld	s0,40(a4)
    2ee6:	5f0e                	lw	t5,224(sp)
    2ee8:	626c                	ld	a1,192(a2)
    2eea:	0500                	addi	s0,sp,640
    2eec:	11dc                	addi	a5,sp,228
    2eee:	02ee                	slli	t0,t0,0x1b
    2ef0:	0000                	unimp
    2ef2:	0b78                	addi	a4,sp,412
    2ef4:	05ac                	addi	a1,sp,712
    2ef6:	0000                	unimp
    2ef8:	df05                	beqz	a4,2e30 <__stack_align+0x2e20>
    2efa:	00004707          	flq	fa4,0(zero) # 0 <__boot_hart>
    2efe:	8800                	0x8800
    2f00:	00077b0b          	0x77b0b
    2f04:	0500                	addi	s0,sp,640
    2f06:	0ae0                	addi	s0,sp,348
    2f08:	0098                	addi	a4,sp,64
    2f0a:	0000                	unimp
    2f0c:	0b90                	addi	a2,sp,464
    2f0e:	001f 0000 e305      	0xe3050000001f
    2f14:	7d12                	ld	s10,288(sp)
    2f16:	0004                	0x4
    2f18:	9800                	0x9800
    2f1a:	0007ef0b          	0x7ef0b
    2f1e:	0500                	addi	s0,sp,640
    2f20:	01380ce7          	jalr	s9,19(a6)
    2f24:	0000                	unimp
    2f26:	0ba0                	addi	s0,sp,472
    2f28:	0351                	addi	t1,t1,20
    2f2a:	0000                	unimp
    2f2c:	e905                	bnez	a0,2f5c <__stack_align+0x2f4c>
    2f2e:	120e                	slli	tp,tp,0x23
    2f30:	0001                	nop
    2f32:	a400                	fsd	fs0,8(s0)
    2f34:	0002050b          	0x2050b
    2f38:	0500                	addi	s0,sp,640
    2f3a:	09ea                	slli	s3,s3,0x1a
    2f3c:	00000047          	fmsub.s	ft0,ft0,ft0,ft0,rne
    2f40:	00ac                	addi	a1,sp,72
    2f42:	0000b013          	sltiu	zero,ra,0
    2f46:	7d00                	ld	s0,56(a0)
    2f48:	0004                	0x4
    2f4a:	1400                	addi	s0,sp,544
    2f4c:	047d                	addi	s0,s0,31
    2f4e:	0000                	unimp
    2f50:	1e14                	addi	a3,sp,816
    2f52:	0001                	nop
    2f54:	1400                	addi	s0,sp,544
    2f56:	05d1                	addi	a1,a1,20
    2f58:	0000                	unimp
    2f5a:	4714                	lw	a3,8(a4)
    2f5c:	0000                	unimp
    2f5e:	0000                	unimp
    2f60:	0488080f          	0x488080f
    2f64:	0000                	unimp
    2f66:	7d15                	lui	s10,0xfffe5
    2f68:	0004                	0x4
    2f6a:	1600                	addi	s0,sp,800
    2f6c:	000003af          	0x3af
    2f70:	0748                	addi	a0,sp,900
    2f72:	6505                	lui	a0,0x1
    2f74:	0802                	c.slli64	a6
    2f76:	05d1                	addi	a1,a1,20
    2f78:	0000                	unimp
    2f7a:	0000e717          	auipc	a4,0xe
    2f7e:	0500                	addi	s0,sp,640
    2f80:	47070267          	jalr	tp,1136(a4) # 113ea <__stack_size+0x93ea>
    2f84:	0000                	unimp
    2f86:	0000                	unimp
    2f88:	0000fd17          	auipc	s10,0xf
    2f8c:	0500                	addi	s0,sp,640
    2f8e:	026c                	addi	a1,sp,268
    2f90:	0006c20b          	0x6c20b
    2f94:	0800                	addi	s0,sp,16
    2f96:	00018f17          	auipc	t5,0x18
    2f9a:	0500                	addi	s0,sp,640
    2f9c:	026c                	addi	a1,sp,268
    2f9e:	c214                	sw	a3,0(a2)
    2fa0:	0006                	c.slli	zero,0x1
    2fa2:	1000                	addi	s0,sp,32
    2fa4:	00015417          	auipc	s0,0x15
    2fa8:	0500                	addi	s0,sp,640
    2faa:	026c                	addi	a1,sp,268
    2fac:	c21e                	sw	t2,4(sp)
    2fae:	0006                	c.slli	zero,0x1
    2fb0:	1800                	addi	s0,sp,48
    2fb2:	00037217          	auipc	tp,0x37
    2fb6:	0500                	addi	s0,sp,640
    2fb8:	026e                	slli	tp,tp,0x1b
    2fba:	4708                	lw	a0,8(a4)
    2fbc:	0000                	unimp
    2fbe:	2000                	fld	fs0,0(s0)
    2fc0:	00001417          	auipc	s0,0x1
    2fc4:	0500                	addi	s0,sp,640
    2fc6:	cb08026f          	jal	tp,fffffffffff83476 <ali3_data.1515+0xffffffff7ff33276>
    2fca:	0008                	0x8
    2fcc:	2400                	fld	fs0,8(s0)
    2fce:	00038e17          	auipc	t3,0x38
    2fd2:	0500                	addi	s0,sp,640
    2fd4:	0272                	slli	tp,tp,0x1c
    2fd6:	00004707          	flq	fa4,0(zero) # 0 <__boot_hart>
    2fda:	4000                	lw	s0,0(s0)
    2fdc:	00037c17          	auipc	s8,0x37
    2fe0:	0500                	addi	s0,sp,640
    2fe2:	e0160273          	0xe0160273
    2fe6:	0008                	0x8
    2fe8:	4800                	lw	s0,16(s0)
    2fea:	0002be17          	auipc	t3,0x2b
    2fee:	0500                	addi	s0,sp,640
    2ff0:	0275                	addi	tp,tp,29
    2ff2:	00004707          	flq	fa4,0(zero) # 0 <__boot_hart>
    2ff6:	5000                	lw	s0,32(s0)
    2ff8:	00038417          	auipc	s0,0x38
    2ffc:	0500                	addi	s0,sp,640
    2ffe:	f10a0277          	0xf10a0277
    3002:	0008                	0x8
    3004:	5800                	lw	s0,48(s0)
    3006:	0001f017          	auipc	zero,0x1f
    300a:	0500                	addi	s0,sp,640
    300c:	027a                	slli	tp,tp,0x1e
    300e:	00019e13          	slli	t3,gp,0x0
    3012:	6000                	ld	s0,0(s0)
    3014:	00017917          	auipc	s2,0x17
    3018:	0500                	addi	s0,sp,640
    301a:	4707027b          	0x4707027b
    301e:	0000                	unimp
    3020:	6800                	ld	s0,16(s0)
    3022:	0004b417          	auipc	s0,0x4b
    3026:	0500                	addi	s0,sp,640
    3028:	027c                	addi	a5,sp,268
    302a:	00019e13          	slli	t3,gp,0x0
    302e:	7000                	ld	s0,32(s0)
    3030:	0002d417          	auipc	s0,0x2d
    3034:	0500                	addi	s0,sp,640
    3036:	027d                	addi	tp,tp,31
    3038:	f714                	sd	a3,40(a4)
    303a:	0008                	0x8
    303c:	7800                	ld	s0,48(s0)
    303e:	00019717          	auipc	a4,0x19
    3042:	0500                	addi	s0,sp,640
    3044:	0280                	addi	s0,sp,320
    3046:	00004707          	flq	fa4,0(zero) # 0 <__boot_hart>
    304a:	8000                	0x8000
    304c:	00011117          	auipc	sp,0x11
    3050:	0500                	addi	s0,sp,640
    3052:	0281                	addi	t0,t0,0
    3054:	d109                	beqz	a0,2f56 <__stack_align+0x2f46>
    3056:	0005                	c.nop	1
    3058:	8800                	0x8800
    305a:	0002fe17          	auipc	t3,0x2f
    305e:	0500                	addi	s0,sp,640
    3060:	02a4                	addi	s1,sp,328
    3062:	0008a507          	flw	fa0,0(a7)
    3066:	9000                	0x9000
    3068:	b618                	fsd	fa4,40(a2)
    306a:	0002                	c.slli64	zero
    306c:	0500                	addi	s0,sp,640
    306e:	02a8                	addi	a0,sp,328
    3070:	0002d113          	srli	sp,t0,0x0
    3074:	f800                	sd	s0,48(s0)
    3076:	1801                	addi	a6,a6,-32
    3078:	01ce                	slli	gp,gp,0x13
    307a:	0000                	unimp
    307c:	a905                	j	34ac <__stack_align+0x349c>
    307e:	1202                	slli	tp,tp,0x20
    3080:	028d                	addi	t0,t0,3
    3082:	0000                	unimp
    3084:	0200                	addi	s0,sp,256
    3086:	6818                	ld	a4,16(s0)
    3088:	0004                	0x4
    308a:	0500                	addi	s0,sp,640
    308c:	02ad                	addi	t0,t0,11
    308e:	080c                	addi	a1,sp,16
    3090:	0009                	c.nop	2
    3092:	1800                	addi	s0,sp,48
    3094:	1805                	addi	a6,a6,-31
    3096:	00de                	slli	ra,ra,0x17
    3098:	0000                	unimp
    309a:	b205                	j	29ba <__stack_align+0x29aa>
    309c:	1002                	c.slli	zero,0x20
    309e:	00000683          	lb	a3,0(zero) # 0 <__boot_hart>
    30a2:	0520                	addi	s0,sp,648
    30a4:	c318                	sw	a4,0(a4)
    30a6:	0000                	unimp
    30a8:	0500                	addi	s0,sp,640
    30aa:	02b4                	addi	a3,sp,328
    30ac:	140a                	slli	s0,s0,0x22
    30ae:	0009                	c.nop	2
    30b0:	3800                	fld	fs0,48(s0)
    30b2:	0005                	c.nop	1
    30b4:	05d7080f          	0x5d7080f
    30b8:	0000                	unimp
    30ba:	f9080103          	lb	sp,-112(a6)
    30be:	0002                	c.slli64	zero
    30c0:	1500                	addi	s0,sp,672
    30c2:	000005d7          	0x5d7
    30c6:	045f080f          	0x45f080f
    30ca:	0000                	unimp
    30cc:	0000b013          	sltiu	zero,ra,0
    30d0:	0700                	addi	s0,sp,896
    30d2:	0006                	c.slli	zero,0x1
    30d4:	1400                	addi	s0,sp,544
    30d6:	047d                	addi	s0,s0,31
    30d8:	0000                	unimp
    30da:	1e14                	addi	a3,sp,816
    30dc:	0001                	nop
    30de:	1400                	addi	s0,sp,544
    30e0:	00000607          	0x607
    30e4:	4714                	lw	a3,8(a4)
    30e6:	0000                	unimp
    30e8:	0000                	unimp
    30ea:	05de080f          	0x5de080f
    30ee:	0000                	unimp
    30f0:	0715                	addi	a4,a4,5
    30f2:	0006                	c.slli	zero,0x1
    30f4:	0f00                	addi	s0,sp,912
    30f6:	e908                	sd	a0,16(a0)
    30f8:	0005                	c.nop	1
    30fa:	1300                	addi	s0,sp,416
    30fc:	00a4                	addi	s1,sp,72
    30fe:	0000                	unimp
    3100:	0636                	slli	a2,a2,0xd
    3102:	0000                	unimp
    3104:	7d14                	ld	a3,56(a0)
    3106:	0004                	0x4
    3108:	1400                	addi	s0,sp,544
    310a:	011e                	slli	sp,sp,0x7
    310c:	0000                	unimp
    310e:	a414                	fsd	fa3,8(s0)
    3110:	0000                	unimp
    3112:	1400                	addi	s0,sp,544
    3114:	00000047          	fmsub.s	ft0,ft0,ft0,ft0,rne
    3118:	0f00                	addi	s0,sp,912
    311a:	1808                	addi	a0,sp,48
    311c:	0006                	c.slli	zero,0x1
    311e:	1300                	addi	s0,sp,416
    3120:	00000047          	fmsub.s	ft0,ft0,ft0,ft0,rne
    3124:	0650                	addi	a2,sp,772
    3126:	0000                	unimp
    3128:	7d14                	ld	a3,56(a0)
    312a:	0004                	0x4
    312c:	1400                	addi	s0,sp,544
    312e:	011e                	slli	sp,sp,0x7
    3130:	0000                	unimp
    3132:	0f00                	addi	s0,sp,912
    3134:	3c08                	fld	fa0,56(s0)
    3136:	0006                	c.slli	zero,0x1
    3138:	0800                	addi	s0,sp,16
    313a:	00000077          	0x77
    313e:	0666                	slli	a2,a2,0x19
    3140:	0000                	unimp
    3142:	4009                	c.li	zero,2
    3144:	0000                	unimp
    3146:	0200                	addi	s0,sp,256
    3148:	0800                	addi	s0,sp,16
    314a:	00000077          	0x77
    314e:	0676                	slli	a2,a2,0x1d
    3150:	0000                	unimp
    3152:	4009                	c.li	zero,2
    3154:	0000                	unimp
    3156:	0000                	unimp
    3158:	0500                	addi	s0,sp,640
    315a:	032d                	addi	t1,t1,11
    315c:	0000                	unimp
    315e:	2405                	addiw	s0,s0,1
    3160:	1a01                	addi	s4,s4,-32
    3162:	031c                	addi	a5,sp,384
    3164:	0000                	unimp
    3166:	4f19                	li	t5,6
    3168:	0004                	0x4
    316a:	1800                	addi	s0,sp,48
    316c:	2805                	addiw	a6,a6,1
    316e:	0801                	addi	a6,a6,0
    3170:	06bc                	addi	a5,sp,840
    3172:	0000                	unimp
    3174:	00035f17          	auipc	t5,0x35
    3178:	0500                	addi	s0,sp,640
    317a:	012a                	slli	sp,sp,0xa
    317c:	bc11                	j	2b90 <__stack_align+0x2b80>
    317e:	0006                	c.slli	zero,0x1
    3180:	0000                	unimp
    3182:	0001b417          	auipc	s0,0x1b
    3186:	0500                	addi	s0,sp,640
    3188:	4707012b          	0x4707012b
    318c:	0000                	unimp
    318e:	0800                	addi	s0,sp,16
    3190:	00032717          	auipc	a4,0x32
    3194:	0500                	addi	s0,sp,640
    3196:	012c                	addi	a1,sp,136
    3198:	0006c20b          	0x6c20b
    319c:	1000                	addi	s0,sp,32
    319e:	0f00                	addi	s0,sp,912
    31a0:	8308                	0x8308
    31a2:	0006                	c.slli	zero,0x1
    31a4:	0f00                	addi	s0,sp,912
    31a6:	7608                	ld	a0,40(a2)
    31a8:	0006                	c.slli	zero,0x1
    31aa:	1900                	addi	s0,sp,176
    31ac:	000c                	0xc
    31ae:	0000                	unimp
    31b0:	050e                	slli	a0,a0,0x3
    31b2:	0144                	addi	s1,sp,132
    31b4:	0108                	addi	a0,sp,128
    31b6:	17000007          	0x17000007
    31ba:	03b6                	slli	t2,t2,0xd
    31bc:	0000                	unimp
    31be:	4505                	li	a0,1
    31c0:	1201                	addi	tp,tp,-32
    31c2:	0701                	addi	a4,a4,0
    31c4:	0000                	unimp
    31c6:	1700                	addi	s0,sp,928
    31c8:	03ea                	slli	t2,t2,0x1a
    31ca:	0000                	unimp
    31cc:	4605                	li	a2,1
    31ce:	1201                	addi	tp,tp,-32
    31d0:	0701                	addi	a4,a4,0
    31d2:	0000                	unimp
    31d4:	1706                	slli	a4,a4,0x21
    31d6:	0406                	slli	s0,s0,0x1
    31d8:	0000                	unimp
    31da:	4705                	li	a4,1
    31dc:	1201                	addi	tp,tp,-32
    31de:	0085                	addi	ra,ra,1
    31e0:	0000                	unimp
    31e2:	000c                	0xc
    31e4:	8508                	0x8508
    31e6:	0000                	unimp
    31e8:	1100                	addi	s0,sp,160
    31ea:	09000007          	0x9000007
    31ee:	0040                	addi	s0,sp,4
    31f0:	0000                	unimp
    31f2:	0002                	c.slli64	zero
    31f4:	d81a                	sw	t1,48(sp)
    31f6:	8505                	srai	a0,a0,0x1
    31f8:	0702                	c.slli64	a4
    31fa:	0826                	slli	a6,a6,0x9
    31fc:	0000                	unimp
    31fe:	00043317          	auipc	t1,0x43
    3202:	0500                	addi	s0,sp,640
    3204:	69180287          	0x69180287
    3208:	0000                	unimp
    320a:	0000                	unimp
    320c:	0003f017          	auipc	zero,0x3f
    3210:	0500                	addi	s0,sp,640
    3212:	0288                	addi	a0,sp,320
    3214:	d112                	sw	tp,160(sp)
    3216:	0005                	c.nop	1
    3218:	0800                	addi	s0,sp,16
    321a:	0001e317          	auipc	t1,0x1e
    321e:	0500                	addi	s0,sp,640
    3220:	0289                	addi	t0,t0,2
    3222:	2610                	fld	fa2,8(a2)
    3224:	0008                	0x8
    3226:	1000                	addi	s0,sp,32
    3228:	00048b17          	auipc	s6,0x48
    322c:	0500                	addi	s0,sp,640
    322e:	028a                	slli	t0,t0,0x2
    3230:	0001b417          	auipc	s0,0x1b
    3234:	2c00                	fld	fs0,24(s0)
    3236:	00016417          	auipc	s0,0x16
    323a:	0500                	addi	s0,sp,640
    323c:	470f028b          	0x470f028b
    3240:	0000                	unimp
    3242:	5000                	lw	s0,32(s0)
    3244:	00035a17          	auipc	s4,0x35
    3248:	0500                	addi	s0,sp,640
    324a:	028c                	addi	a1,sp,320
    324c:	362c                	fld	fa1,104(a2)
    324e:	0008                	0x8
    3250:	5800                	lw	s0,48(s0)
    3252:	0004a117          	auipc	sp,0x4a
    3256:	0500                	addi	s0,sp,640
    3258:	028d                	addi	t0,t0,3
    325a:	c81a                	sw	t1,16(sp)
    325c:	0006                	c.slli	zero,0x1
    325e:	6000                	ld	s0,0(s0)
    3260:	00036517          	auipc	a0,0x36
    3264:	0500                	addi	s0,sp,640
    3266:	028e                	slli	t0,t0,0x3
    3268:	1216                	slli	tp,tp,0x25
    326a:	0001                	nop
    326c:	7000                	ld	s0,32(s0)
    326e:	0004a617          	auipc	a2,0x4a
    3272:	0500                	addi	s0,sp,640
    3274:	1216028f          	0x1216028f
    3278:	0001                	nop
    327a:	7800                	ld	s0,48(s0)
    327c:	00008817          	auipc	a6,0x8
    3280:	0500                	addi	s0,sp,640
    3282:	0290                	addi	a2,sp,320
    3284:	1216                	slli	tp,tp,0x25
    3286:	0001                	nop
    3288:	8000                	0x8000
    328a:	00045e17          	auipc	t3,0x45
    328e:	0500                	addi	s0,sp,640
    3290:	0291                	addi	t0,t0,4
    3292:	3d10                	fld	fa2,56(a0)
    3294:	0008                	0x8
    3296:	8800                	0x8800
    3298:	0001d717          	auipc	a4,0x1d
    329c:	0500                	addi	s0,sp,640
    329e:	0292                	slli	t0,t0,0x4
    32a0:	4d10                	lw	a2,24(a0)
    32a2:	0008                	0x8
    32a4:	9000                	0x9000
    32a6:	00041317          	auipc	t1,0x41
    32aa:	0500                	addi	s0,sp,640
    32ac:	470f0293          	addi	t0,t5,1136 # 385e4 <__stack_size+0x305e4>
    32b0:	0000                	unimp
    32b2:	a800                	fsd	fs0,16(s0)
    32b4:	00012a17          	auipc	s4,0x12
    32b8:	0500                	addi	s0,sp,640
    32ba:	0294                	addi	a3,sp,320
    32bc:	1216                	slli	tp,tp,0x25
    32be:	0001                	nop
    32c0:	ac00                	fsd	fs0,24(s0)
    32c2:	00007917          	auipc	s2,0x7
    32c6:	0500                	addi	s0,sp,640
    32c8:	0295                	addi	t0,t0,5
    32ca:	1216                	slli	tp,tp,0x25
    32cc:	0001                	nop
    32ce:	b400                	fsd	fs0,40(s0)
    32d0:	00011917          	auipc	s2,0x11
    32d4:	0500                	addi	s0,sp,640
    32d6:	0296                	slli	t0,t0,0x5
    32d8:	1216                	slli	tp,tp,0x25
    32da:	0001                	nop
    32dc:	bc00                	fsd	fs0,56(s0)
    32de:	00002517          	auipc	a0,0x2
    32e2:	0500                	addi	s0,sp,640
    32e4:	12160297          	auipc	t0,0x12160
    32e8:	0001                	nop
    32ea:	c400                	sw	s0,8(s0)
    32ec:	00003417          	auipc	s0,0x3
    32f0:	0500                	addi	s0,sp,640
    32f2:	0298                	addi	a4,sp,320
    32f4:	1216                	slli	tp,tp,0x25
    32f6:	0001                	nop
    32f8:	cc00                	sw	s0,24(s0)
    32fa:	00030317          	auipc	t1,0x30
    32fe:	0500                	addi	s0,sp,640
    3300:	0299                	addi	t0,t0,6
    3302:	4708                	lw	a0,8(a4)
    3304:	0000                	unimp
    3306:	d400                	sw	s0,40(s0)
    3308:	0800                	addi	s0,sp,16
    330a:	000005d7          	0x5d7
    330e:	0836                	slli	a6,a6,0xd
    3310:	0000                	unimp
    3312:	4009                	c.li	zero,2
    3314:	0000                	unimp
    3316:	1900                	addi	s0,sp,176
    3318:	0300                	addi	s0,sp,384
    331a:	0708                	addi	a0,sp,896
    331c:	0045                	c.nop	17
    331e:	0000                	unimp
    3320:	d708                	sw	a0,40(a4)
    3322:	0005                	c.nop	1
    3324:	4d00                	lw	s0,24(a0)
    3326:	0008                	0x8
    3328:	0900                	addi	s0,sp,144
    332a:	0040                	addi	s0,sp,4
    332c:	0000                	unimp
    332e:	d7080007          	0xd7080007
    3332:	0005                	c.nop	1
    3334:	5d00                	lw	s0,56(a0)
    3336:	0008                	0x8
    3338:	0900                	addi	s0,sp,144
    333a:	0040                	addi	s0,sp,4
    333c:	0000                	unimp
    333e:	681b0017          	auipc	zero,0x681b0
    3342:	0501                	addi	a0,a0,0
    3344:	029e                	slli	t0,t0,0x7
    3346:	00088507          	0x88507
    334a:	1700                	addi	s0,sp,928
    334c:	02a6                	slli	t0,t0,0x9
    334e:	0000                	unimp
    3350:	a105                	j	3770 <__stack_align+0x3760>
    3352:	1b02                	slli	s6,s6,0x20
    3354:	0885                	addi	a7,a7,1
    3356:	0000                	unimp
    3358:	1700                	addi	s0,sp,928
    335a:	0291                	addi	t0,t0,4
    335c:	0000                	unimp
    335e:	a205                	j	347e <__stack_align+0x346e>
    3360:	1802                	slli	a6,a6,0x20
    3362:	0895                	addi	a7,a7,5
    3364:	0000                	unimp
    3366:	00f0                	addi	a2,sp,76
    3368:	1608                	addi	a0,sp,800
    336a:	95000003          	lb	zero,-1712(zero) # fffffffffffff950 <ali3_data.1515+0xffffffff7ffaf750>
    336e:	0008                	0x8
    3370:	0900                	addi	s0,sp,144
    3372:	0040                	addi	s0,sp,4
    3374:	0000                	unimp
    3376:	001d                	c.nop	7
    3378:	6908                	ld	a0,16(a0)
    337a:	0000                	unimp
    337c:	a500                	fsd	fs0,8(a0)
    337e:	0008                	0x8
    3380:	0900                	addi	s0,sp,144
    3382:	0040                	addi	s0,sp,4
    3384:	0000                	unimp
    3386:	001d                	c.nop	7
    3388:	681c                	ld	a5,16(s0)
    338a:	0501                	addi	a0,a0,0
    338c:	cb030283          	lb	t0,-848(t1) # 32faa <__stack_size+0x2afaa>
    3390:	0008                	0x8
    3392:	1d00                	addi	s0,sp,688
    3394:	000003af          	0x3af
    3398:	9a05                	andi	a2,a2,-31
    339a:	0b02                	c.slli64	s6
    339c:	0711                	addi	a4,a4,4
    339e:	0000                	unimp
    33a0:	781d                	lui	a6,0xfffe7
    33a2:	0004                	0x4
    33a4:	0500                	addi	s0,sp,640
    33a6:	5d0b02a3          	sb	a6,1477(s6) # 4b7ed <__stack_size+0x437ed>
    33aa:	0008                	0x8
    33ac:	0000                	unimp
    33ae:	d708                	sw	a0,40(a4)
    33b0:	0005                	c.nop	1
    33b2:	db00                	sw	s0,48(a4)
    33b4:	0008                	0x8
    33b6:	0900                	addi	s0,sp,144
    33b8:	0040                	addi	s0,sp,4
    33ba:	0000                	unimp
    33bc:	0018                	0x18
    33be:	6e1e                	ld	t3,448(sp)
    33c0:	0000                	unimp
    33c2:	0f00                	addi	s0,sp,912
    33c4:	db08                	sw	a0,48(a4)
    33c6:	0008                	0x8
    33c8:	1f00                	addi	s0,sp,944
    33ca:	08f1                	addi	a7,a7,28
    33cc:	0000                	unimp
    33ce:	7d14                	ld	a3,56(a0)
    33d0:	0004                	0x4
    33d2:	0000                	unimp
    33d4:	08e6080f          	0x8e6080f
    33d8:	0000                	unimp
    33da:	019e080f          	0x19e080f
    33de:	0000                	unimp
    33e0:	081f 0009 1400      	0x14000009081f
    33e6:	00000047          	fmsub.s	ft0,ft0,ft0,ft0,rne
    33ea:	0f00                	addi	s0,sp,912
    33ec:	0e08                	addi	a0,sp,784
    33ee:	0009                	c.nop	2
    33f0:	0f00                	addi	s0,sp,912
    33f2:	fd08                	sd	a0,56(a0)
    33f4:	0008                	0x8
    33f6:	0800                	addi	s0,sp,16
    33f8:	0676                	slli	a2,a2,0x1d
    33fa:	0000                	unimp
    33fc:	0924                	addi	s1,sp,152
    33fe:	0000                	unimp
    3400:	4009                	c.li	zero,2
    3402:	0000                	unimp
    3404:	0200                	addi	s0,sp,256
    3406:	2000                	fld	fs0,0(s0)
    3408:	00000427          	0x427
    340c:	3305                	addiw	t1,t1,-31
    340e:	047d1703          	lh	a4,71(s10) # 11fcf <__stack_size+0x9fcf>
    3412:	0000                	unimp
    3414:	2020                	fld	fs0,64(s0)
    3416:	0004                	0x4
    3418:	0500                	addi	s0,sp,640
    341a:	0334                	addi	a3,sp,392
    341c:	831d                	srli	a4,a4,0x7
    341e:	0004                	0x4
    3420:	0800                	addi	s0,sp,16
    3422:	060d                	addi	a2,a2,3
    3424:	0000                	unimp
    3426:	0949                	addi	s2,s2,18
    3428:	0000                	unimp
    342a:	0021                	c.nop	8
    342c:	3e15                	addiw	t3,t3,-27
    342e:	0009                	c.nop	2
    3430:	2200                	fld	fs0,0(a2)
    3432:	0104                	addi	s1,sp,128
    3434:	0000                	unimp
    3436:	49241407          	0x49241407
    343a:	0009                	c.nop	2
    343c:	2200                	fld	fs0,0(a2)
    343e:	00000347          	fmsub.s	ft6,ft0,ft0,ft0,rne
    3442:	47151507          	0x47151507
    3446:	0000                	unimp
    3448:	0200                	addi	s0,sp,256
    344a:	000002cb          	fnmsub.s	ft5,ft0,ft0,ft0,rne
    344e:	3c08                	fld	fa0,56(s0)
    3450:	8c14                	0x8c14
    3452:	0000                	unimp
    3454:	2300                	fld	fs0,0(a4)
    3456:	0966                	slli	s2,s2,0x19
    3458:	0000                	unimp
    345a:	bc22                	fsd	fs0,56(sp)
    345c:	09000003          	lb	zero,144(zero) # 90 <__stack_align+0x80>
    3460:	1a06                	slli	s4,s4,0x21
    3462:	0972                	slli	s2,s2,0x1c
    3464:	0000                	unimp
    3466:	6522                	ld	a0,8(sp)
    3468:	0000                	unimp
    346a:	0900                	addi	s0,sp,144
    346c:	09721a07          	0x9721a07
    3470:	0000                	unimp
    3472:	d708                	sw	a0,40(a4)
    3474:	0005                	c.nop	1
    3476:	9a00                	0x9a00
    3478:	0009                	c.nop	2
    347a:	2100                	fld	fs0,0(a0)
    347c:	2200                	fld	fs0,0(a2)
    347e:	067a                	slli	a2,a2,0x1e
    3480:	0000                	unimp
    3482:	0601                	addi	a2,a2,0
    3484:	8f0d                	sub	a4,a4,a1
    3486:	0009                	c.nop	2
    3488:	2400                	fld	fs0,8(s0)
    348a:	066d                	addi	a2,a2,27
    348c:	0000                	unimp
    348e:	0701                	addi	a4,a4,0
    3490:	d10e                	sw	gp,160(sp)
    3492:	0005                	c.nop	1
    3494:	0900                	addi	s0,sp,144
    3496:	00270803          	lb	a6,2(a4) # 2029a <__stack_size+0x1829a>
    349a:	0080                	addi	s0,sp,64
    349c:	0000                	unimp
    349e:	2500                	fld	fs0,8(a0)
    34a0:	06aa                	slli	a3,a3,0xa
    34a2:	0000                	unimp
    34a4:	0901                	addi	s2,s2,0
    34a6:	00011e07          	0x11e07
    34aa:	fa00                	sd	s0,48(a2)
    34ac:	001f 0080 0000      	0x80001f
    34b2:	3c00                	fld	fs0,56(s0)
    34b4:	0000                	unimp
    34b6:	0000                	unimp
    34b8:	0000                	unimp
    34ba:	0100                	addi	s0,sp,128
    34bc:	289c                	fld	fa5,16(s1)
    34be:	000a                	c.slli	zero,0x2
    34c0:	2600                	fld	fs0,8(a2)
    34c2:	067f                	0x67f
    34c4:	0000                	unimp
    34c6:	0901                	addi	s2,s2,0
    34c8:	00002d17          	auipc	s10,0x2
    34cc:	3a00                	fld	fs0,48(a2)
    34ce:	0002                	c.slli64	zero
    34d0:	2200                	fld	fs0,0(a2)
    34d2:	0674                	addi	a3,sp,780
    34d4:	0000                	unimp
    34d6:	0b01                	addi	s6,s6,0
    34d8:	8f11                	sub	a4,a4,a2
    34da:	0009                	c.nop	2
    34dc:	2700                	fld	fs0,8(a4)
    34de:	000006a3          	sb	zero,13(zero) # d <__boot_hart+0xd>
    34e2:	0c01                	addi	s8,s8,0
    34e4:	0005d10b          	0x5d10b
    34e8:	7300                	ld	s0,32(a4)
    34ea:	0002                	c.slli64	zero
    34ec:	2700                	fld	fs0,8(a4)
    34ee:	069c                	addi	a5,sp,832
    34f0:	0000                	unimp
    34f2:	0d01                	addi	s10,s10,0
    34f4:	0005d10b          	0x5d10b
    34f8:	c400                	sw	s0,8(s0)
    34fa:	0002                	c.slli64	zero
    34fc:	2800                	fld	fs0,16(s0)
    34fe:	2028                	fld	fa0,64(s0)
    3500:	8000                	0x8000
    3502:	0000                	unimp
    3504:	0000                	unimp
    3506:	0a28                	addi	a0,sp,280
    3508:	0000                	unimp
    350a:	2900                	fld	fs0,16(a0)
    350c:	00e6                	slli	ra,ra,0x19
    350e:	0000                	unimp
    3510:	00e6                	slli	ra,ra,0x19
    3512:	0000                	unimp
    3514:	000d0f07          	0xd0f07
    3518:	0a85                	addi	s5,s5,1
    351a:	0000                	unimp
    351c:	0004                	0x4
    351e:	00000b6f          	jal	s6,351e <__stack_align+0x350e>
    3522:	0108                	addi	a0,sp,128
    3524:	020d                	addi	tp,tp,3
    3526:	0000                	unimp
    3528:	b00c                	fsd	fa1,32(s0)
    352a:	0006                	c.slli	zero,0x1
    352c:	b900                	fsd	fs0,48(a0)
    352e:	0004                	0x4
    3530:	3600                	fld	fs0,40(a2)
    3532:	0020                	addi	s0,sp,8
    3534:	0080                	addi	s0,sp,64
    3536:	0000                	unimp
    3538:	0600                	addi	s0,sp,768
    353a:	0000                	unimp
    353c:	0000                	unimp
    353e:	0000                	unimp
    3540:	4200                	lw	s0,0(a2)
    3542:	0200000b          	0x200000b
    3546:	0504                	addi	s1,sp,640
    3548:	6e69                	lui	t3,0x1a
    354a:	0074                	addi	a3,sp,12
    354c:	a4050803          	lb	a6,-1472(a0) # 4d1e <__stack_align+0x4d0e>
    3550:	0000                	unimp
    3552:	0400                	addi	s0,sp,512
    3554:	058c                	addi	a1,sp,704
    3556:	0000                	unimp
    3558:	d102                	sw	zero,160(sp)
    355a:	00004717          	auipc	a4,0x4
    355e:	0300                	addi	s0,sp,384
    3560:	0708                	addi	a0,sp,896
    3562:	004a                	c.slli	zero,0x12
    3564:	0000                	unimp
    3566:	9f050803          	lb	a6,-1552(a0)
    356a:	0000                	unimp
    356c:	0300                	addi	s0,sp,384
    356e:	0410                	addi	a2,sp,512
    3570:	029a                	slli	t0,t0,0x6
    3572:	0000                	unimp
    3574:	fe05                	bnez	a2,34ac <__stack_align+0x349c>
    3576:	0001                	nop
    3578:	0200                	addi	s0,sp,256
    357a:	015e                	slli	sp,sp,0x17
    357c:	00006917          	auipc	s2,0x6
    3580:	0300                	addi	s0,sp,384
    3582:	0704                	addi	s1,sp,896
    3584:	0000004f          	fnmadd.s	ft0,ft0,ft0,ft0,rne
    3588:	f2060103          	lb	sp,-224(a2) # 4d18e <__stack_size+0x4518e>
    358c:	0002                	c.slli64	zero
    358e:	0300                	addi	s0,sp,384
    3590:	0801                	addi	a6,a6,0
    3592:	02f0                	addi	a2,sp,332
    3594:	0000                	unimp
    3596:	0c050203          	lb	tp,192(a0)
    359a:	03000003          	lb	zero,48(zero) # 30 <__stack_align+0x20>
    359e:	0702                	c.slli64	a4
    35a0:	000001bb          	addw	gp,zero,zero
    35a4:	c904                	sw	s1,16(a0)
    35a6:	0002                	c.slli64	zero
    35a8:	0300                	addi	s0,sp,384
    35aa:	1969                	addi	s2,s2,-6
    35ac:	00000047          	fmsub.s	ft0,ft0,ft0,ft0,rne
    35b0:	bf04                	fsd	fs1,56(a4)
    35b2:	0006                	c.slli	zero,0x1
    35b4:	0300                	addi	s0,sp,384
    35b6:	1ae8                	addi	a0,sp,380
    35b8:	00000047          	fmsub.s	ft0,ft0,ft0,ft0,rne
    35bc:	f604                	sd	s1,40(a2)
    35be:	0004                	0x4
    35c0:	0400                	addi	s0,sp,512
    35c2:	0e2e                	slli	t3,t3,0xb
    35c4:	0034                	addi	a3,sp,8
    35c6:	0000                	unimp
    35c8:	d904                	sw	s1,48(a0)
    35ca:	04000003          	lb	zero,64(zero) # 40 <__stack_align+0x30>
    35ce:	0e74                	addi	a3,sp,796
    35d0:	0034                	addi	a3,sp,8
    35d2:	0000                	unimp
    35d4:	5504                	lw	s1,40(a0)
    35d6:	0004                	0x4
    35d8:	0400                	addi	s0,sp,512
    35da:	00341793          	slli	a5,s0,0x3
    35de:	0000                	unimp
    35e0:	0406                	slli	s0,s0,0x1
    35e2:	a504                	fsd	fs1,8(a0)
    35e4:	0000ea03          	lwu	s4,0(ra)
    35e8:	0700                	addi	s0,sp,896
    35ea:	01f8                	addi	a4,sp,204
    35ec:	0000                	unimp
    35ee:	a704                	fsd	fs1,8(a4)
    35f0:	5c0c                	lw	a1,56(s0)
    35f2:	0000                	unimp
    35f4:	0700                	addi	s0,sp,896
    35f6:	0188                	addi	a0,sp,192
    35f8:	0000                	unimp
    35fa:	a804                	fsd	fs1,16(s0)
    35fc:	0000ea13          	ori	s4,ra,0
    3600:	0000                	unimp
    3602:	7708                	ld	a0,40(a4)
    3604:	0000                	unimp
    3606:	fa00                	sd	s0,48(a2)
    3608:	0000                	unimp
    360a:	0900                	addi	s0,sp,144
    360c:	00000047          	fmsub.s	ft0,ft0,ft0,ft0,rne
    3610:	080a0003          	lb	zero,128(s4) # 15334 <__stack_size+0xd334>
    3614:	a204                	fsd	fs1,0(a2)
    3616:	1e09                	addi	t3,t3,-30
    3618:	0001                	nop
    361a:	0b00                	addi	s0,sp,400
    361c:	000003c3          	fmadd.s	ft7,ft0,ft0,ft0,rne
    3620:	a404                	fsd	fs1,8(s0)
    3622:	00002d07          	flw	fs10,0(zero) # 0 <__boot_hart>
    3626:	0000                	unimp
    3628:	0003cb0b          	0x3cb0b
    362c:	0400                	addi	s0,sp,512
    362e:	05a9                	addi	a1,a1,10
    3630:	00c8                	addi	a0,sp,68
    3632:	0000                	unimp
    3634:	0004                	0x4
    3636:	3404                	fld	fs1,40(s0)
    3638:	04000003          	lb	zero,64(zero) # 40 <__stack_align+0x30>
    363c:	03aa                	slli	t2,t2,0xa
    363e:	00fa                	slli	ra,ra,0x1e
    3640:	0000                	unimp
    3642:	080c                	addi	a1,sp,16
    3644:	0b04                	addi	s1,sp,400
    3646:	0004                	0x4
    3648:	0500                	addi	s0,sp,640
    364a:	1919                	addi	s2,s2,-26
    364c:	0069                	c.nop	26
    364e:	0000                	unimp
    3650:	de04                	sw	s1,56(a2)
    3652:	0002                	c.slli64	zero
    3654:	0600                	addi	s0,sp,768
    3656:	0d0c                	addi	a1,sp,656
    3658:	002d                	c.nop	11
    365a:	0000                	unimp
    365c:	4b04                	lw	s1,16(a4)
    365e:	0001                	nop
    3660:	0500                	addi	s0,sp,640
    3662:	01381b23          	sh	s3,22(a6) # fffffffffffe7016 <ali3_data.1515+0xffffffff7ff96e16>
    3666:	0000                	unimp
    3668:	5c0d                	li	s8,-29
    366a:	0001                	nop
    366c:	2000                	fld	fs0,0(s0)
    366e:	3405                	addiw	s0,s0,-31
    3670:	aa08                	fsd	fa0,16(a2)
    3672:	0001                	nop
    3674:	0b00                	addi	s0,sp,400
    3676:	035f 0000 3605      	0x36050000035f
    367c:	0001aa13          	slti	s4,gp,0
    3680:	0000                	unimp
    3682:	5f0e                	lw	t5,224(sp)
    3684:	3705006b          	0x3705006b
    3688:	00002d07          	flw	fs10,0(zero) # 0 <__boot_hart>
    368c:	0800                	addi	s0,sp,16
    368e:	0003a70b          	0x3a70b
    3692:	0500                	addi	s0,sp,640
    3694:	002d0b37          	lui	s6,0x2d0
    3698:	0000                	unimp
    369a:	0b0c                	addi	a1,sp,400
    369c:	0145                	addi	sp,sp,17
    369e:	0000                	unimp
    36a0:	3705                	addiw	a4,a4,-31
    36a2:	2d14                	fld	fa3,24(a0)
    36a4:	0000                	unimp
    36a6:	1000                	addi	s0,sp,32
    36a8:	0004400b          	0x4400b
    36ac:	0500                	addi	s0,sp,640
    36ae:	002d1b37          	lui	s6,0x2d1
    36b2:	0000                	unimp
    36b4:	0e14                	addi	a3,sp,784
    36b6:	785f 0500 0b38      	0xb380500785f
    36bc:	01b0                	addi	a2,sp,200
    36be:	0000                	unimp
    36c0:	0018                	0x18
    36c2:	0150080f          	0x150080f
    36c6:	0000                	unimp
    36c8:	2c08                	fld	fa0,24(s0)
    36ca:	0001                	nop
    36cc:	c000                	sw	s0,0(s0)
    36ce:	0001                	nop
    36d0:	0900                	addi	s0,sp,144
    36d2:	00000047          	fmsub.s	ft0,ft0,ft0,ft0,rne
    36d6:	0000                	unimp
    36d8:	830d                	srli	a4,a4,0x3
    36da:	0001                	nop
    36dc:	2400                	fld	fs0,8(s0)
    36de:	3c05                	addiw	s8,s8,-31
    36e0:	4308                	lw	a0,0(a4)
    36e2:	0002                	c.slli64	zero
    36e4:	0b00                	addi	s0,sp,400
    36e6:	0096                	slli	ra,ra,0x5
    36e8:	0000                	unimp
    36ea:	3e05                	addiw	t3,t3,-31
    36ec:	2d09                	addiw	s10,s10,2
    36ee:	0000                	unimp
    36f0:	0000                	unimp
    36f2:	0003e10b          	0x3e10b
    36f6:	0500                	addi	s0,sp,640
    36f8:	002d093f 0b040000 	0xb040000002d093f
    3700:	00b9                	addi	ra,ra,14
    3702:	0000                	unimp
    3704:	4005                	c.li	zero,1
    3706:	2d09                	addiw	s10,s10,2
    3708:	0000                	unimp
    370a:	0800                	addi	s0,sp,16
    370c:	0004eb0b          	0x4eb0b
    3710:	0500                	addi	s0,sp,640
    3712:	0941                	addi	s2,s2,16
    3714:	002d                	c.nop	11
    3716:	0000                	unimp
    3718:	0b0c                	addi	a1,sp,400
    371a:	02ad                	addi	t0,t0,11
    371c:	0000                	unimp
    371e:	4205                	li	tp,1
    3720:	2d09                	addiw	s10,s10,2
    3722:	0000                	unimp
    3724:	1000                	addi	s0,sp,32
    3726:	0002870b          	0x2870b
    372a:	0500                	addi	s0,sp,640
    372c:	002d0943          	fmadd.s	fs2,fs10,ft2,ft0,rne
    3730:	0000                	unimp
    3732:	0b14                	addi	a3,sp,400
    3734:	0445                	addi	s0,s0,17
    3736:	0000                	unimp
    3738:	4405                	li	s0,1
    373a:	2d09                	addiw	s10,s10,2
    373c:	0000                	unimp
    373e:	1800                	addi	s0,sp,48
    3740:	0003160b          	0x3160b
    3744:	0500                	addi	s0,sp,640
    3746:	0945                	addi	s2,s2,17
    3748:	002d                	c.nop	11
    374a:	0000                	unimp
    374c:	0b1c                	addi	a5,sp,400
    374e:	0480                	addi	s0,sp,576
    3750:	0000                	unimp
    3752:	4605                	li	a2,1
    3754:	2d09                	addiw	s10,s10,2
    3756:	0000                	unimp
    3758:	2000                	fld	fs0,0(s0)
    375a:	1000                	addi	s0,sp,32
    375c:	00c8                	addi	a0,sp,68
    375e:	0000                	unimp
    3760:	0208                	addi	a0,sp,256
    3762:	4f05                	li	t5,1
    3764:	8908                	0x8908
    3766:	0002                	c.slli64	zero
    3768:	0b00                	addi	s0,sp,400
    376a:	0138                	addi	a4,sp,136
    376c:	0000                	unimp
    376e:	5005                	c.li	zero,-31
    3770:	890a                	mv	s2,sp
    3772:	0002                	c.slli64	zero
    3774:	0000                	unimp
    3776:	0011                	c.nop	4
    3778:	0000                	unimp
    377a:	0500                	addi	s0,sp,640
    377c:	0951                	addi	s2,s2,20
    377e:	0289                	addi	t0,t0,2
    3780:	0000                	unimp
    3782:	0100                	addi	s0,sp,128
    3784:	fd11                	bnez	a0,36a0 <__stack_align+0x3690>
    3786:	05000003          	lb	zero,80(zero) # 50 <__stack_align+0x40>
    378a:	012c0a53          	fadd.s	fs4,fs8,fs2,rne
    378e:	0000                	unimp
    3790:	0200                	addi	s0,sp,256
    3792:	f511                	bnez	a0,369e <__stack_align+0x368e>
    3794:	0000                	unimp
    3796:	0500                	addi	s0,sp,640
    3798:	0a56                	slli	s4,s4,0x15
    379a:	012c                	addi	a1,sp,136
    379c:	0000                	unimp
    379e:	0204                	addi	s1,sp,256
    37a0:	0800                	addi	s0,sp,16
    37a2:	012a                	slli	sp,sp,0xa
    37a4:	0000                	unimp
    37a6:	0299                	addi	t0,t0,6
    37a8:	0000                	unimp
    37aa:	4709                	li	a4,2
    37ac:	0000                	unimp
    37ae:	1f00                	addi	s0,sp,944
    37b0:	1000                	addi	s0,sp,32
    37b2:	02b6                	slli	t0,t0,0xd
    37b4:	0000                	unimp
    37b6:	0318                	addi	a4,sp,384
    37b8:	6205                	lui	tp,0x1
    37ba:	dd08                	sw	a0,56(a0)
    37bc:	0002                	c.slli64	zero
    37be:	0b00                	addi	s0,sp,400
    37c0:	035f 0000 6305      	0x63050000035f
    37c6:	dd12                	sw	tp,184(sp)
    37c8:	0002                	c.slli64	zero
    37ca:	0000                	unimp
    37cc:	0003770b          	0x3770b
    37d0:	0500                	addi	s0,sp,640
    37d2:	0664                	addi	s1,sp,780
    37d4:	002d                	c.nop	11
    37d6:	0000                	unimp
    37d8:	0b08                	addi	a0,sp,400
    37da:	0140                	addi	s0,sp,132
    37dc:	0000                	unimp
    37de:	6605                	lui	a2,0x1
    37e0:	e309                	bnez	a4,37e2 <__stack_align+0x37d2>
    37e2:	0002                	c.slli64	zero
    37e4:	1000                	addi	s0,sp,32
    37e6:	c811                	beqz	s0,37fa <__stack_align+0x37ea>
    37e8:	0000                	unimp
    37ea:	0500                	addi	s0,sp,640
    37ec:	02431e67          	0x2431e67
    37f0:	0000                	unimp
    37f2:	0110                	addi	a2,sp,128
    37f4:	0f00                	addi	s0,sp,912
    37f6:	9908                	0x9908
    37f8:	0002                	c.slli64	zero
    37fa:	0800                	addi	s0,sp,16
    37fc:	000002f3          	0x2f3
    3800:	000002f3          	0x2f3
    3804:	4709                	li	a4,2
    3806:	0000                	unimp
    3808:	1f00                	addi	s0,sp,944
    380a:	0f00                	addi	s0,sp,912
    380c:	f908                	sd	a0,48(a0)
    380e:	0002                	c.slli64	zero
    3810:	1200                	addi	s0,sp,288
    3812:	200d                	0x200d
    3814:	10000003          	lb	zero,256(zero) # 100 <__stack_align+0xf0>
    3818:	7a05                	lui	s4,0xfffe1
    381a:	2208                	fld	fa0,0(a2)
    381c:	0b000003          	lb	zero,176(zero) # b0 <__stack_align+0xa0>
    3820:	000000b3          	add	ra,zero,zero
    3824:	7b05                	lui	s6,0xfffe1
    3826:	2211                	addiw	tp,tp,4
    3828:	00000003          	lb	zero,0(zero) # 0 <__boot_hart>
    382c:	00074e0b          	0x74e0b
    3830:	0500                	addi	s0,sp,640
    3832:	067c                	addi	a5,sp,780
    3834:	002d                	c.nop	11
    3836:	0000                	unimp
    3838:	0008                	0x8
    383a:	0077080f          	0x77080f
    383e:	0000                	unimp
    3840:	3f0d                	addiw	t5,t5,-29
    3842:	b0000003          	lb	zero,-1280(zero) # fffffffffffffb00 <ali3_data.1515+0xffffffff7ffaf900>
    3846:	ba05                	j	3176 <__stack_align+0x3166>
    3848:	6b08                	ld	a0,16(a4)
    384a:	0004                	0x4
    384c:	0e00                	addi	s0,sp,784
    384e:	705f 0500 12bb      	0x12bb0500705f
    3854:	0322                	slli	t1,t1,0x8
    3856:	0000                	unimp
    3858:	0e00                	addi	s0,sp,784
    385a:	725f 0500 07bc      	0x7bc0500725f
    3860:	002d                	c.nop	11
    3862:	0000                	unimp
    3864:	0e08                	addi	a0,sp,784
    3866:	775f 0500 07bd      	0x7bd0500775f
    386c:	002d                	c.nop	11
    386e:	0000                	unimp
    3870:	0b0c                	addi	a1,sp,400
    3872:	00ee                	slli	ra,ra,0x1b
    3874:	0000                	unimp
    3876:	be05                	j	33a6 <__stack_align+0x3396>
    3878:	7e09                	lui	t3,0xfffe2
    387a:	0000                	unimp
    387c:	1000                	addi	s0,sp,32
    387e:	00019f0b          	0x19f0b
    3882:	0500                	addi	s0,sp,640
    3884:	007e09bf 0e120000 	0xe120000007e09bf
    388c:	625f 0066 c005      	0xc0050066625f
    3892:	fa11                	bnez	a2,37a6 <__stack_align+0x3796>
    3894:	0002                	c.slli64	zero
    3896:	1800                	addi	s0,sp,48
    3898:	00005c0b          	0x5c0b
    389c:	0500                	addi	s0,sp,640
    389e:	07c1                	addi	a5,a5,16
    38a0:	002d                	c.nop	11
    38a2:	0000                	unimp
    38a4:	0b28                	addi	a0,sp,408
    38a6:	00d6                	slli	ra,ra,0x15
    38a8:	0000                	unimp
    38aa:	c805                	beqz	s0,38da <__stack_align+0x38ca>
    38ac:	2a0a                	fld	fs4,128(sp)
    38ae:	0001                	nop
    38b0:	3000                	fld	fs0,32(s0)
    38b2:	0001730b          	0x1730b
    38b6:	0500                	addi	s0,sp,640
    38b8:	1dca                	slli	s11,s11,0x32
    38ba:	000005ef          	jal	a1,38ba <__stack_align+0x38aa>
    38be:	0b38                	addi	a4,sp,408
    38c0:	0280                	addi	s0,sp,320
    38c2:	0000                	unimp
    38c4:	cc05                	beqz	s0,38fc <__stack_align+0x38ec>
    38c6:	1e1d                	addi	t3,t3,-25
    38c8:	0006                	c.slli	zero,0x1
    38ca:	4000                	lw	s0,0(s0)
    38cc:	0003d30b          	0x3d30b
    38d0:	0500                	addi	s0,sp,640
    38d2:	06420dcf          	fnmadd.q	fs11,ft4,ft4,ft0,rne
    38d6:	0000                	unimp
    38d8:	0b48                	addi	a0,sp,404
    38da:	049a                	slli	s1,s1,0x6
    38dc:	0000                	unimp
    38de:	d005                	beqz	s0,37fe <__stack_align+0x37ee>
    38e0:	5c09                	li	s8,-30
    38e2:	0006                	c.slli	zero,0x1
    38e4:	5000                	lw	s0,32(s0)
    38e6:	5f0e                	lw	t5,224(sp)
    38e8:	6275                	lui	tp,0x1d
    38ea:	0500                	addi	s0,sp,640
    38ec:	02fa11d3          	fadd.d	ft3,fs4,fa5,rtz
    38f0:	0000                	unimp
    38f2:	0e58                	addi	a4,sp,788
    38f4:	755f 0070 d405      	0xd4050070755f
    38fa:	2212                	fld	ft4,256(sp)
    38fc:	68000003          	lb	zero,1664(zero) # 680 <__stack_align+0x670>
    3900:	5f0e                	lw	t5,224(sp)
    3902:	7275                	lui	tp,0xffffd
    3904:	0500                	addi	s0,sp,640
    3906:	07d5                	addi	a5,a5,21
    3908:	002d                	c.nop	11
    390a:	0000                	unimp
    390c:	0b70                	addi	a2,sp,412
    390e:	00ad                	addi	ra,ra,11
    3910:	0000                	unimp
    3912:	d805                	beqz	s0,3842 <__stack_align+0x3832>
    3914:	6211                	lui	tp,0x4
    3916:	0006                	c.slli	zero,0x1
    3918:	7400                	ld	s0,40(s0)
    391a:	0004720b          	0x4720b
    391e:	0500                	addi	s0,sp,640
    3920:	11d9                	addi	gp,gp,-10
    3922:	0672                	slli	a2,a2,0x1c
    3924:	0000                	unimp
    3926:	6c5f0e77          	0x6c5f0e77
    392a:	0062                	c.slli	zero,0x18
    392c:	dc05                	beqz	s0,3864 <__stack_align+0x3854>
    392e:	fa11                	bnez	a2,3842 <__stack_align+0x3832>
    3930:	0002                	c.slli64	zero
    3932:	7800                	ld	s0,48(s0)
    3934:	0005ac0b          	0x5ac0b
    3938:	0500                	addi	s0,sp,640
    393a:	07df 002d 0000      	0x2d07df
    3940:	0b88                	addi	a0,sp,464
    3942:	0000077b          	0x77b
    3946:	e005                	bnez	s0,3966 <__stack_align+0x3956>
    3948:	a40a                	fsd	ft2,8(sp)
    394a:	0000                	unimp
    394c:	9000                	0x9000
    394e:	00001f0b          	0x1f0b
    3952:	0500                	addi	s0,sp,640
    3954:	048912e3          	bne	s2,s0,4198 <__stack_align+0x4188>
    3958:	0000                	unimp
    395a:	0b98                	addi	a4,sp,464
    395c:	000007ef          	jal	a5,395c <__stack_align+0x394c>
    3960:	e705                	bnez	a4,3988 <__stack_align+0x3978>
    3962:	440c                	lw	a1,8(s0)
    3964:	0001                	nop
    3966:	a000                	fsd	fs0,0(s0)
    3968:	0003510b          	0x3510b
    396c:	0500                	addi	s0,sp,640
    396e:	0ee9                	addi	t4,t4,26
    3970:	011e                	slli	sp,sp,0x7
    3972:	0000                	unimp
    3974:	0ba4                	addi	s1,sp,472
    3976:	0205                	addi	tp,tp,1
    3978:	0000                	unimp
    397a:	ea05                	bnez	a2,39aa <__stack_align+0x399a>
    397c:	2d09                	addiw	s10,s10,2
    397e:	0000                	unimp
    3980:	ac00                	fsd	fs0,24(s0)
    3982:	1300                	addi	s0,sp,416
    3984:	00bc                	addi	a5,sp,72
    3986:	0000                	unimp
    3988:	0489                	addi	s1,s1,2
    398a:	0000                	unimp
    398c:	8914                	0x8914
    398e:	0004                	0x4
    3990:	1400                	addi	s0,sp,544
    3992:	012a                	slli	sp,sp,0xa
    3994:	0000                	unimp
    3996:	dd14                	sw	a3,56(a0)
    3998:	0005                	c.nop	1
    399a:	1400                	addi	s0,sp,544
    399c:	002d                	c.nop	11
    399e:	0000                	unimp
    39a0:	0f00                	addi	s0,sp,912
    39a2:	9408                	0x9408
    39a4:	0004                	0x4
    39a6:	1500                	addi	s0,sp,672
    39a8:	0489                	addi	s1,s1,2
    39aa:	0000                	unimp
    39ac:	af16                	fsd	ft5,408(sp)
    39ae:	48000003          	lb	zero,1152(zero) # 480 <__stack_align+0x470>
    39b2:	02650507          	0x2650507
    39b6:	dd08                	sw	a0,56(a0)
    39b8:	0005                	c.nop	1
    39ba:	1700                	addi	s0,sp,928
    39bc:	000000e7          	jalr	zero # 0 <__boot_hart>
    39c0:	6705                	lui	a4,0x1
    39c2:	0702                	c.slli64	a4
    39c4:	002d                	c.nop	11
    39c6:	0000                	unimp
    39c8:	1700                	addi	s0,sp,928
    39ca:	00fd                	addi	ra,ra,31
    39cc:	0000                	unimp
    39ce:	6c05                	lui	s8,0x1
    39d0:	0b02                	c.slli64	s6
    39d2:	06ce                	slli	a3,a3,0x13
    39d4:	0000                	unimp
    39d6:	1708                	addi	a0,sp,928
    39d8:	0000018f          	0x18f
    39dc:	6c05                	lui	s8,0x1
    39de:	1402                	slli	s0,s0,0x20
    39e0:	06ce                	slli	a3,a3,0x13
    39e2:	0000                	unimp
    39e4:	1710                	addi	a2,sp,928
    39e6:	0154                	addi	a3,sp,132
    39e8:	0000                	unimp
    39ea:	6c05                	lui	s8,0x1
    39ec:	1e02                	slli	t3,t3,0x20
    39ee:	06ce                	slli	a3,a3,0x13
    39f0:	0000                	unimp
    39f2:	1718                	addi	a4,sp,928
    39f4:	0372                	slli	t1,t1,0x1c
    39f6:	0000                	unimp
    39f8:	6e05                	lui	t3,0x1
    39fa:	0802                	c.slli64	a6
    39fc:	002d                	c.nop	11
    39fe:	0000                	unimp
    3a00:	1720                	addi	s0,sp,936
    3a02:	0014                	0x14
    3a04:	0000                	unimp
    3a06:	6f05                	lui	t5,0x1
    3a08:	0802                	c.slli64	a6
    3a0a:	000008d7          	0x8d7
    3a0e:	1724                	addi	s1,sp,936
    3a10:	038e                	slli	t2,t2,0x3
    3a12:	0000                	unimp
    3a14:	7205                	lui	tp,0xfffe1
    3a16:	0702                	c.slli64	a4
    3a18:	002d                	c.nop	11
    3a1a:	0000                	unimp
    3a1c:	1740                	addi	s0,sp,932
    3a1e:	037c                	addi	a5,sp,396
    3a20:	0000                	unimp
    3a22:	7305                	lui	t1,0xfffe1
    3a24:	1602                	slli	a2,a2,0x20
    3a26:	08ec                	addi	a1,sp,92
    3a28:	0000                	unimp
    3a2a:	1748                	addi	a0,sp,932
    3a2c:	02be                	slli	t0,t0,0xf
    3a2e:	0000                	unimp
    3a30:	7505                	lui	a0,0xfffe1
    3a32:	0702                	c.slli64	a4
    3a34:	002d                	c.nop	11
    3a36:	0000                	unimp
    3a38:	1750                	addi	a2,sp,932
    3a3a:	0384                	addi	s1,sp,448
    3a3c:	0000                	unimp
    3a3e:	7705                	lui	a4,0xfffe1
    3a40:	0a02                	c.slli64	s4
    3a42:	08fd                	addi	a7,a7,31
    3a44:	0000                	unimp
    3a46:	1758                	addi	a4,sp,932
    3a48:	01f0                	addi	a2,sp,204
    3a4a:	0000                	unimp
    3a4c:	7a05                	lui	s4,0xfffe1
    3a4e:	1302                	slli	t1,t1,0x20
    3a50:	01aa                	slli	gp,gp,0xa
    3a52:	0000                	unimp
    3a54:	1760                	addi	s0,sp,940
    3a56:	0179                	addi	sp,sp,30
    3a58:	0000                	unimp
    3a5a:	7b05                	lui	s6,0xfffe1
    3a5c:	0702                	c.slli64	a4
    3a5e:	002d                	c.nop	11
    3a60:	0000                	unimp
    3a62:	1768                	addi	a0,sp,940
    3a64:	04b4                	addi	a3,sp,584
    3a66:	0000                	unimp
    3a68:	7c05                	lui	s8,0xfffe1
    3a6a:	1302                	slli	t1,t1,0x20
    3a6c:	01aa                	slli	gp,gp,0xa
    3a6e:	0000                	unimp
    3a70:	1770                	addi	a2,sp,940
    3a72:	02d4                	addi	a3,sp,324
    3a74:	0000                	unimp
    3a76:	7d05                	lui	s10,0xfffe1
    3a78:	1402                	slli	s0,s0,0x20
    3a7a:	00000903          	lb	s2,0(zero) # 0 <__boot_hart>
    3a7e:	1778                	addi	a4,sp,940
    3a80:	00000197          	auipc	gp,0x0
    3a84:	8005                	srli	s0,s0,0x1
    3a86:	0702                	c.slli64	a4
    3a88:	002d                	c.nop	11
    3a8a:	0000                	unimp
    3a8c:	1780                	addi	s0,sp,992
    3a8e:	0111                	addi	sp,sp,4
    3a90:	0000                	unimp
    3a92:	8105                	srli	a0,a0,0x1
    3a94:	0902                	c.slli64	s2
    3a96:	05dd                	addi	a1,a1,23
    3a98:	0000                	unimp
    3a9a:	1788                	addi	a0,sp,992
    3a9c:	02fe                	slli	t0,t0,0x1f
    3a9e:	0000                	unimp
    3aa0:	a405                	j	3cc0 <__stack_align+0x3cb0>
    3aa2:	0702                	c.slli64	a4
    3aa4:	08b1                	addi	a7,a7,12
    3aa6:	0000                	unimp
    3aa8:	1890                	addi	a2,sp,112
    3aaa:	02b6                	slli	t0,t0,0xd
    3aac:	0000                	unimp
    3aae:	a805                	j	3ade <__stack_align+0x3ace>
    3ab0:	1302                	slli	t1,t1,0x20
    3ab2:	02dd                	addi	t0,t0,23
    3ab4:	0000                	unimp
    3ab6:	01f8                	addi	a4,sp,204
    3ab8:	ce18                	sw	a4,24(a2)
    3aba:	0001                	nop
    3abc:	0500                	addi	s0,sp,640
    3abe:	02a9                	addi	t0,t0,10
    3ac0:	9912                	add	s2,s2,tp
    3ac2:	0002                	c.slli64	zero
    3ac4:	0000                	unimp
    3ac6:	1802                	slli	a6,a6,0x20
    3ac8:	0468                	addi	a0,sp,524
    3aca:	0000                	unimp
    3acc:	ad05                	j	40fc <__stack_align+0x40ec>
    3ace:	0c02                	c.slli64	s8
    3ad0:	0914                	addi	a3,sp,144
    3ad2:	0000                	unimp
    3ad4:	0518                	addi	a4,sp,640
    3ad6:	de18                	sw	a4,56(a2)
    3ad8:	0000                	unimp
    3ada:	0500                	addi	s0,sp,640
    3adc:	02b2                	slli	t0,t0,0xc
    3ade:	8f10                	0x8f10
    3ae0:	0006                	c.slli	zero,0x1
    3ae2:	2000                	fld	fs0,0(s0)
    3ae4:	1805                	addi	a6,a6,-31
    3ae6:	000000c3          	fmadd.s	ft1,ft0,ft0,ft0,rne
    3aea:	b405                	j	350a <__stack_align+0x34fa>
    3aec:	0a02                	c.slli64	s4
    3aee:	0920                	addi	s0,sp,152
    3af0:	0000                	unimp
    3af2:	0538                	addi	a4,sp,648
    3af4:	0f00                	addi	s0,sp,912
    3af6:	e308                	sd	a0,0(a4)
    3af8:	0005                	c.nop	1
    3afa:	0300                	addi	s0,sp,384
    3afc:	0801                	addi	a6,a6,0
    3afe:	02f9                	addi	t0,t0,30
    3b00:	0000                	unimp
    3b02:	e315                	bnez	a4,3b26 <__stack_align+0x3b16>
    3b04:	0005                	c.nop	1
    3b06:	0f00                	addi	s0,sp,912
    3b08:	6b08                	ld	a0,16(a4)
    3b0a:	0004                	0x4
    3b0c:	1300                	addi	s0,sp,416
    3b0e:	00bc                	addi	a5,sp,72
    3b10:	0000                	unimp
    3b12:	00000613          	li	a2,0
    3b16:	8914                	0x8914
    3b18:	0004                	0x4
    3b1a:	1400                	addi	s0,sp,544
    3b1c:	012a                	slli	sp,sp,0xa
    3b1e:	0000                	unimp
    3b20:	1314                	addi	a3,sp,416
    3b22:	0006                	c.slli	zero,0x1
    3b24:	1400                	addi	s0,sp,544
    3b26:	002d                	c.nop	11
    3b28:	0000                	unimp
    3b2a:	0f00                	addi	s0,sp,912
    3b2c:	ea08                	sd	a0,16(a2)
    3b2e:	0005                	c.nop	1
    3b30:	1500                	addi	s0,sp,672
    3b32:	00000613          	li	a2,0
    3b36:	05f5080f          	0x5f5080f
    3b3a:	0000                	unimp
    3b3c:	0000b013          	sltiu	zero,ra,0
    3b40:	4200                	lw	s0,0(a2)
    3b42:	0006                	c.slli	zero,0x1
    3b44:	1400                	addi	s0,sp,544
    3b46:	0489                	addi	s1,s1,2
    3b48:	0000                	unimp
    3b4a:	2a14                	fld	fa3,16(a2)
    3b4c:	0001                	nop
    3b4e:	1400                	addi	s0,sp,544
    3b50:	00b0                	addi	a2,sp,72
    3b52:	0000                	unimp
    3b54:	2d14                	fld	fa3,24(a0)
    3b56:	0000                	unimp
    3b58:	0000                	unimp
    3b5a:	0624080f          	0x624080f
    3b5e:	0000                	unimp
    3b60:	00002d13          	slti	s10,zero,0
    3b64:	5c00                	lw	s0,56(s0)
    3b66:	0006                	c.slli	zero,0x1
    3b68:	1400                	addi	s0,sp,544
    3b6a:	0489                	addi	s1,s1,2
    3b6c:	0000                	unimp
    3b6e:	2a14                	fld	fa3,16(a2)
    3b70:	0001                	nop
    3b72:	0000                	unimp
    3b74:	0648080f          	0x648080f
    3b78:	0000                	unimp
    3b7a:	7708                	ld	a0,40(a4)
    3b7c:	0000                	unimp
    3b7e:	7200                	ld	s0,32(a2)
    3b80:	0006                	c.slli	zero,0x1
    3b82:	0900                	addi	s0,sp,144
    3b84:	00000047          	fmsub.s	ft0,ft0,ft0,ft0,rne
    3b88:	0002                	c.slli64	zero
    3b8a:	7708                	ld	a0,40(a4)
    3b8c:	0000                	unimp
    3b8e:	8200                	0x8200
    3b90:	0006                	c.slli	zero,0x1
    3b92:	0900                	addi	s0,sp,144
    3b94:	00000047          	fmsub.s	ft0,ft0,ft0,ft0,rne
    3b98:	0000                	unimp
    3b9a:	2d05                	addiw	s10,s10,1
    3b9c:	05000003          	lb	zero,80(zero) # 50 <__stack_align+0x40>
    3ba0:	0124                	addi	s1,sp,136
    3ba2:	281a                	fld	fa6,384(sp)
    3ba4:	19000003          	lb	zero,400(zero) # 190 <__stack_align+0x180>
    3ba8:	0000044f          	fnmadd.s	fs0,ft0,ft0,ft0,rne
    3bac:	0518                	addi	a4,sp,640
    3bae:	0128                	addi	a0,sp,136
    3bb0:	c808                	sw	a0,16(s0)
    3bb2:	0006                	c.slli	zero,0x1
    3bb4:	1700                	addi	s0,sp,928
    3bb6:	035f 0000 2a05      	0x2a050000035f
    3bbc:	1101                	addi	sp,sp,-32
    3bbe:	06c8                	addi	a0,sp,836
    3bc0:	0000                	unimp
    3bc2:	1700                	addi	s0,sp,928
    3bc4:	01b4                	addi	a3,sp,200
    3bc6:	0000                	unimp
    3bc8:	2b05                	addiw	s6,s6,1
    3bca:	0701                	addi	a4,a4,0
    3bcc:	002d                	c.nop	11
    3bce:	0000                	unimp
    3bd0:	1708                	addi	a0,sp,928
    3bd2:	00000327          	0x327
    3bd6:	2c05                	addiw	s8,s8,1
    3bd8:	0b01                	addi	s6,s6,0
    3bda:	06ce                	slli	a3,a3,0x13
    3bdc:	0000                	unimp
    3bde:	0010                	0x10
    3be0:	068f080f          	0x68f080f
    3be4:	0000                	unimp
    3be6:	0682080f          	0x682080f
    3bea:	0000                	unimp
    3bec:	0c19                	addi	s8,s8,6
    3bee:	0000                	unimp
    3bf0:	0e00                	addi	s0,sp,784
    3bf2:	4405                	li	s0,1
    3bf4:	0801                	addi	a6,a6,0
    3bf6:	070d                	addi	a4,a4,3
    3bf8:	0000                	unimp
    3bfa:	0003b617          	auipc	a2,0x3b
    3bfe:	0500                	addi	s0,sp,640
    3c00:	0145                	addi	sp,sp,17
    3c02:	0d12                	slli	s10,s10,0x4
    3c04:	00000007          	0x7
    3c08:	0003ea17          	auipc	s4,0x3e
    3c0c:	0500                	addi	s0,sp,640
    3c0e:	0146                	slli	sp,sp,0x11
    3c10:	0d12                	slli	s10,s10,0x4
    3c12:	06000007          	0x6000007
    3c16:	00040617          	auipc	a2,0x40
    3c1a:	0500                	addi	s0,sp,640
    3c1c:	85120147          	0x85120147
    3c20:	0000                	unimp
    3c22:	0c00                	addi	s0,sp,528
    3c24:	0800                	addi	s0,sp,16
    3c26:	0085                	addi	ra,ra,1
    3c28:	0000                	unimp
    3c2a:	071d                	addi	a4,a4,7
    3c2c:	0000                	unimp
    3c2e:	4709                	li	a4,2
    3c30:	0000                	unimp
    3c32:	0200                	addi	s0,sp,256
    3c34:	1a00                	addi	s0,sp,304
    3c36:	05d8                	addi	a4,sp,708
    3c38:	0285                	addi	t0,t0,1
    3c3a:	00083207          	fld	ft4,0(a6)
    3c3e:	1700                	addi	s0,sp,928
    3c40:	00000433          	add	s0,zero,zero
    3c44:	8705                	srai	a4,a4,0x1
    3c46:	1802                	slli	a6,a6,0x20
    3c48:	0069                	c.nop	26
    3c4a:	0000                	unimp
    3c4c:	1700                	addi	s0,sp,928
    3c4e:	03f0                	addi	a2,sp,460
    3c50:	0000                	unimp
    3c52:	8805                	andi	s0,s0,1
    3c54:	1202                	slli	tp,tp,0x20
    3c56:	05dd                	addi	a1,a1,23
    3c58:	0000                	unimp
    3c5a:	1708                	addi	a0,sp,928
    3c5c:	000001e3          	beqz	zero,445e <__stack_align+0x444e>
    3c60:	8905                	andi	a0,a0,1
    3c62:	1002                	c.slli	zero,0x20
    3c64:	0832                	slli	a6,a6,0xc
    3c66:	0000                	unimp
    3c68:	1710                	addi	a2,sp,928
    3c6a:	0000048b          	0x48b
    3c6e:	8a05                	andi	a2,a2,1
    3c70:	1702                	slli	a4,a4,0x20
    3c72:	01c0                	addi	s0,sp,196
    3c74:	0000                	unimp
    3c76:	172c                	addi	a1,sp,936
    3c78:	0164                	addi	s1,sp,140
    3c7a:	0000                	unimp
    3c7c:	8b05                	andi	a4,a4,1
    3c7e:	0f02                	c.slli64	t5
    3c80:	002d                	c.nop	11
    3c82:	0000                	unimp
    3c84:	1750                	addi	a2,sp,932
    3c86:	035a                	slli	t1,t1,0x16
    3c88:	0000                	unimp
    3c8a:	8c05                	sub	s0,s0,s1
    3c8c:	2c02                	fld	fs8,0(sp)
    3c8e:	0842                	slli	a6,a6,0x10
    3c90:	0000                	unimp
    3c92:	1758                	addi	a4,sp,932
    3c94:	04a1                	addi	s1,s1,8
    3c96:	0000                	unimp
    3c98:	8d05                	sub	a0,a0,s1
    3c9a:	1a02                	slli	s4,s4,0x20
    3c9c:	06d4                	addi	a3,sp,836
    3c9e:	0000                	unimp
    3ca0:	1760                	addi	s0,sp,940
    3ca2:	0365                	addi	t1,t1,25
    3ca4:	0000                	unimp
    3ca6:	8e05                	sub	a2,a2,s1
    3ca8:	1602                	slli	a2,a2,0x20
    3caa:	011e                	slli	sp,sp,0x7
    3cac:	0000                	unimp
    3cae:	1770                	addi	a2,sp,940
    3cb0:	04a6                	slli	s1,s1,0x9
    3cb2:	0000                	unimp
    3cb4:	8f05                	sub	a4,a4,s1
    3cb6:	1602                	slli	a2,a2,0x20
    3cb8:	011e                	slli	sp,sp,0x7
    3cba:	0000                	unimp
    3cbc:	1778                	addi	a4,sp,940
    3cbe:	0088                	addi	a0,sp,64
    3cc0:	0000                	unimp
    3cc2:	9005                	srli	s0,s0,0x21
    3cc4:	1602                	slli	a2,a2,0x20
    3cc6:	011e                	slli	sp,sp,0x7
    3cc8:	0000                	unimp
    3cca:	1780                	addi	s0,sp,992
    3ccc:	045e                	slli	s0,s0,0x17
    3cce:	0000                	unimp
    3cd0:	9105                	srli	a0,a0,0x21
    3cd2:	1002                	c.slli	zero,0x20
    3cd4:	0849                	addi	a6,a6,18
    3cd6:	0000                	unimp
    3cd8:	1788                	addi	a0,sp,992
    3cda:	000001d7          	0x1d7
    3cde:	9205                	srli	a2,a2,0x21
    3ce0:	1002                	c.slli	zero,0x20
    3ce2:	0859                	addi	a6,a6,22
    3ce4:	0000                	unimp
    3ce6:	1790                	addi	a2,sp,992
    3ce8:	00000413          	li	s0,0
    3cec:	9305                	srli	a4,a4,0x21
    3cee:	0f02                	c.slli64	t5
    3cf0:	002d                	c.nop	11
    3cf2:	0000                	unimp
    3cf4:	17a8                	addi	a0,sp,1000
    3cf6:	012a                	slli	sp,sp,0xa
    3cf8:	0000                	unimp
    3cfa:	9405                	srai	s0,s0,0x21
    3cfc:	1602                	slli	a2,a2,0x20
    3cfe:	011e                	slli	sp,sp,0x7
    3d00:	0000                	unimp
    3d02:	17ac                	addi	a1,sp,1000
    3d04:	0079                	c.nop	30
    3d06:	0000                	unimp
    3d08:	9505                	srai	a0,a0,0x21
    3d0a:	1602                	slli	a2,a2,0x20
    3d0c:	011e                	slli	sp,sp,0x7
    3d0e:	0000                	unimp
    3d10:	17b4                	addi	a3,sp,1000
    3d12:	0119                	addi	sp,sp,6
    3d14:	0000                	unimp
    3d16:	9605                	srai	a2,a2,0x21
    3d18:	1602                	slli	a2,a2,0x20
    3d1a:	011e                	slli	sp,sp,0x7
    3d1c:	0000                	unimp
    3d1e:	17bc                	addi	a5,sp,1000
    3d20:	0025                	c.nop	9
    3d22:	0000                	unimp
    3d24:	9705                	srai	a4,a4,0x21
    3d26:	1602                	slli	a2,a2,0x20
    3d28:	011e                	slli	sp,sp,0x7
    3d2a:	0000                	unimp
    3d2c:	17c4                	addi	s1,sp,996
    3d2e:	0034                	addi	a3,sp,8
    3d30:	0000                	unimp
    3d32:	9805                	andi	s0,s0,-31
    3d34:	1602                	slli	a2,a2,0x20
    3d36:	011e                	slli	sp,sp,0x7
    3d38:	0000                	unimp
    3d3a:	17cc                	addi	a1,sp,996
    3d3c:	00000303          	lb	t1,0(zero) # 0 <__boot_hart>
    3d40:	9905                	andi	a0,a0,-31
    3d42:	0802                	c.slli64	a6
    3d44:	002d                	c.nop	11
    3d46:	0000                	unimp
    3d48:	00d4                	addi	a3,sp,68
    3d4a:	e308                	sd	a0,0(a4)
    3d4c:	0005                	c.nop	1
    3d4e:	4200                	lw	s0,0(a2)
    3d50:	0008                	0x8
    3d52:	0900                	addi	s0,sp,144
    3d54:	00000047          	fmsub.s	ft0,ft0,ft0,ft0,rne
    3d58:	0019                	c.nop	6
    3d5a:	45070803          	lb	a6,1104(a4) # fffffffffffe1450 <ali3_data.1515+0xffffffff7ff91250>
    3d5e:	0000                	unimp
    3d60:	0800                	addi	s0,sp,16
    3d62:	000005e3          	beqz	zero,456c <__stack_align+0x455c>
    3d66:	0859                	addi	a6,a6,22
    3d68:	0000                	unimp
    3d6a:	4709                	li	a4,2
    3d6c:	0000                	unimp
    3d6e:	0700                	addi	s0,sp,896
    3d70:	0800                	addi	s0,sp,16
    3d72:	000005e3          	beqz	zero,457c <__stack_align+0x456c>
    3d76:	0869                	addi	a6,a6,26
    3d78:	0000                	unimp
    3d7a:	4709                	li	a4,2
    3d7c:	0000                	unimp
    3d7e:	1700                	addi	s0,sp,928
    3d80:	1b00                	addi	s0,sp,432
    3d82:	0168                	addi	a0,sp,140
    3d84:	9e05                	subw	a2,a2,s1
    3d86:	0702                	c.slli64	a4
    3d88:	0891                	addi	a7,a7,4
    3d8a:	0000                	unimp
    3d8c:	0002a617          	auipc	a2,0x2a
    3d90:	0500                	addi	s0,sp,640
    3d92:	02a1                	addi	t0,t0,8
    3d94:	0008911b          	slliw	sp,a7,0x0
    3d98:	0000                	unimp
    3d9a:	00029117          	auipc	sp,0x29
    3d9e:	0500                	addi	s0,sp,640
    3da0:	02a2                	slli	t0,t0,0x8
    3da2:	a118                	fsd	fa4,0(a0)
    3da4:	0008                	0x8
    3da6:	f000                	sd	s0,32(s0)
    3da8:	0800                	addi	s0,sp,16
    3daa:	0322                	slli	t1,t1,0x8
    3dac:	0000                	unimp
    3dae:	08a1                	addi	a7,a7,8
    3db0:	0000                	unimp
    3db2:	4709                	li	a4,2
    3db4:	0000                	unimp
    3db6:	1d00                	addi	s0,sp,688
    3db8:	0800                	addi	s0,sp,16
    3dba:	0069                	c.nop	26
    3dbc:	0000                	unimp
    3dbe:	08b1                	addi	a7,a7,12
    3dc0:	0000                	unimp
    3dc2:	4709                	li	a4,2
    3dc4:	0000                	unimp
    3dc6:	1d00                	addi	s0,sp,688
    3dc8:	1c00                	addi	s0,sp,560
    3dca:	0168                	addi	a0,sp,140
    3dcc:	8305                	srli	a4,a4,0x1
    3dce:	0302                	c.slli64	t1
    3dd0:	000008d7          	0x8d7
    3dd4:	af1d                	j	450a <__stack_align+0x44fa>
    3dd6:	05000003          	lb	zero,80(zero) # 50 <__stack_align+0x40>
    3dda:	029a                	slli	t0,t0,0x6
    3ddc:	00071d0b          	0x71d0b
    3de0:	1d00                	addi	s0,sp,688
    3de2:	0478                	addi	a4,sp,524
    3de4:	0000                	unimp
    3de6:	a305                	j	4306 <__stack_align+0x42f6>
    3de8:	0b02                	c.slli64	s6
    3dea:	0869                	addi	a6,a6,26
    3dec:	0000                	unimp
    3dee:	0800                	addi	s0,sp,16
    3df0:	000005e3          	beqz	zero,45fa <__stack_align+0x45ea>
    3df4:	000008e7          	jalr	a7,zero # 0 <__boot_hart>
    3df8:	4709                	li	a4,2
    3dfa:	0000                	unimp
    3dfc:	1800                	addi	s0,sp,48
    3dfe:	1e00                	addi	s0,sp,816
    3e00:	006e                	c.slli	zero,0x1b
    3e02:	0000                	unimp
    3e04:	08e7080f          	0x8e7080f
    3e08:	0000                	unimp
    3e0a:	fd1f 0008 1400      	0x14000008fd1f
    3e10:	0489                	addi	s1,s1,2
    3e12:	0000                	unimp
    3e14:	0f00                	addi	s0,sp,912
    3e16:	f208                	sd	a0,32(a2)
    3e18:	0008                	0x8
    3e1a:	0f00                	addi	s0,sp,912
    3e1c:	aa08                	fsd	fa0,16(a2)
    3e1e:	0001                	nop
    3e20:	1f00                	addi	s0,sp,944
    3e22:	0914                	addi	a3,sp,144
    3e24:	0000                	unimp
    3e26:	2d14                	fld	fa3,24(a0)
    3e28:	0000                	unimp
    3e2a:	0000                	unimp
    3e2c:	091a080f          	0x91a080f
    3e30:	0000                	unimp
    3e32:	0909080f          	0x909080f
    3e36:	0000                	unimp
    3e38:	8208                	0x8208
    3e3a:	0006                	c.slli	zero,0x1
    3e3c:	3000                	fld	fs0,32(s0)
    3e3e:	0009                	c.nop	2
    3e40:	0900                	addi	s0,sp,144
    3e42:	00000047          	fmsub.s	ft0,ft0,ft0,ft0,rne
    3e46:	0002                	c.slli64	zero
    3e48:	2720                	fld	fs0,72(a4)
    3e4a:	0004                	0x4
    3e4c:	0500                	addi	s0,sp,640
    3e4e:	89170333          	0x89170333
    3e52:	0004                	0x4
    3e54:	2000                	fld	fs0,0(s0)
    3e56:	0420                	addi	s0,sp,520
    3e58:	0000                	unimp
    3e5a:	3405                	addiw	s0,s0,-31
    3e5c:	048f1d03          	lh	s10,72(t5) # 1048 <__stack_align+0x1038>
    3e60:	0000                	unimp
    3e62:	1908                	addi	a0,sp,176
    3e64:	0006                	c.slli	zero,0x1
    3e66:	5500                	lw	s0,40(a0)
    3e68:	0009                	c.nop	2
    3e6a:	2100                	fld	fs0,0(a0)
    3e6c:	1500                	addi	s0,sp,672
    3e6e:	094a                	slli	s2,s2,0x12
    3e70:	0000                	unimp
    3e72:	0422                	slli	s0,s0,0x8
    3e74:	0001                	nop
    3e76:	0700                	addi	s0,sp,896
    3e78:	2414                	fld	fa3,8(s0)
    3e7a:	0955                	addi	s2,s2,21
    3e7c:	0000                	unimp
    3e7e:	4722                	lw	a4,8(sp)
    3e80:	07000003          	lb	zero,112(zero) # 70 <__stack_align+0x60>
    3e84:	1515                	addi	a0,a0,-27
    3e86:	002d                	c.nop	11
    3e88:	0000                	unimp
    3e8a:	cb04                	sw	s1,16(a4)
    3e8c:	0002                	c.slli64	zero
    3e8e:	0800                	addi	s0,sp,16
    3e90:	143c                	addi	a5,sp,552
    3e92:	008c                	addi	a1,sp,64
    3e94:	0000                	unimp
    3e96:	00097223          	0x97223
    3e9a:	0400                	addi	s0,sp,512
    3e9c:	06c1                	addi	a3,a3,16
    3e9e:	0000                	unimp
    3ea0:	5208                	lw	a0,32(a2)
    3ea2:	9815                	andi	s0,s0,-27
    3ea4:	0000                	unimp
    3ea6:	0400                	addi	s0,sp,512
    3ea8:	0456                	slli	s0,s0,0x15
    3eaa:	0000                	unimp
    3eac:	b809                	j	36be <__stack_align+0x36ae>
    3eae:	bc12                	fsd	ft4,56(sp)
    3eb0:	0000                	unimp
    3eb2:	2200                	fld	fs0,0(a2)
    3eb4:	0641                	addi	a2,a2,16
    3eb6:	0000                	unimp
    3eb8:	100a                	c.slli	zero,0x22
    3eba:	0009a70f          	0x9a70f
    3ebe:	0f00                	addi	s0,sp,912
    3ec0:	dd08                	sw	a0,56(a0)
    3ec2:	0005                	c.nop	1
    3ec4:	2200                	fld	fs0,0(a2)
    3ec6:	063a                	slli	a2,a2,0xe
    3ec8:	0000                	unimp
    3eca:	fc0a                	sd	sp,56(sp)
    3ecc:	dd0e                	sw	gp,184(sp)
    3ece:	0005                	c.nop	1
    3ed0:	2200                	fld	fs0,0(a2)
    3ed2:	0000061b          	sext.w	a2,zero
    3ed6:	fd0a                	sd	sp,184(sp)
    3ed8:	2d0c                	fld	fa1,24(a0)
    3eda:	0000                	unimp
    3edc:	2200                	fld	fs0,0(a2)
    3ede:	0622                	slli	a2,a2,0x8
    3ee0:	0000                	unimp
    3ee2:	fd0a                	sd	sp,184(sp)
    3ee4:	2d14                	fld	fa3,24(a0)
    3ee6:	0000                	unimp
    3ee8:	2200                	fld	fs0,0(a2)
    3eea:	0604                	addi	s1,sp,768
    3eec:	0000                	unimp
    3eee:	fd0a                	sd	sp,184(sp)
    3ef0:	2d1c                	fld	fa5,24(a0)
    3ef2:	0000                	unimp
    3ef4:	2200                	fld	fs0,0(a2)
    3ef6:	0629                	addi	a2,a2,10
    3ef8:	0000                	unimp
    3efa:	ff0a                	sd	sp,440(sp)
    3efc:	2d0c                	fld	fa1,24(a0)
    3efe:	0000                	unimp
    3f00:	2200                	fld	fs0,0(a2)
    3f02:	03bc                	addi	a5,sp,456
    3f04:	0000                	unimp
    3f06:	7e1a060b          	0x7e1a060b
    3f0a:	0009                	c.nop	2
    3f0c:	2200                	fld	fs0,0(a2)
    3f0e:	0065                	c.nop	25
    3f10:	0000                	unimp
    3f12:	7e1a070b          	0x7e1a070b
    3f16:	0009                	c.nop	2
    3f18:	2400                	fld	fs0,8(s0)
    3f1a:	0280                	addi	s0,sp,320
    3f1c:	0000                	unimp
    3f1e:	0601                	addi	a2,a2,0
    3f20:	8f09                	sub	a4,a4,a0
    3f22:	0009                	c.nop	2
    3f24:	3600                	fld	fs0,40(a2)
    3f26:	0020                	addi	s0,sp,8
    3f28:	0080                	addi	s0,sp,64
    3f2a:	0000                	unimp
    3f2c:	0600                	addi	s0,sp,768
    3f2e:	0000                	unimp
    3f30:	0000                	unimp
    3f32:	0000                	unimp
    3f34:	0100                	addi	s0,sp,128
    3f36:	759c                	ld	a5,40(a1)
    3f38:	000a                	c.slli	zero,0x2
    3f3a:	2500                	fld	fs0,8(a0)
    3f3c:	6466                	ld	s0,88(sp)
    3f3e:	0100                	addi	s0,sp,128
    3f40:	1406                	slli	s0,s0,0x21
    3f42:	002d                	c.nop	11
    3f44:	0000                	unimp
    3f46:	000002e7          	jalr	t0,zero # 0 <__boot_hart>
    3f4a:	7025                	c.lui	zero,0xfffe9
    3f4c:	7274                	ld	a3,224(a2)
    3f4e:	0100                	addi	s0,sp,128
    3f50:	2406                	fld	fs0,64(sp)
    3f52:	0a75                	addi	s4,s4,29
    3f54:	0000                	unimp
    3f56:	0320                	addi	s0,sp,392
    3f58:	0000                	unimp
    3f5a:	6c25                	lui	s8,0x9
    3f5c:	6e65                	lui	t3,0x19
    3f5e:	0100                	addi	s0,sp,128
    3f60:	3006                	fld	ft0,96(sp)
    3f62:	0000003b          	addw	zero,zero,zero
    3f66:	0359                	addi	t1,t1,22
    3f68:	0000                	unimp
    3f6a:	3c26                	fld	fs8,104(sp)
    3f6c:	0020                	addi	s0,sp,8
    3f6e:	0080                	addi	s0,sp,64
    3f70:	0000                	unimp
    3f72:	7c00                	ld	s0,56(s0)
    3f74:	000a                	c.slli	zero,0x2
    3f76:	2700                	fld	fs0,8(a4)
    3f78:	5b01                	li	s6,-32
    3f7a:	5b01f303          	0x5b01f303
    3f7e:	035c0127          	0x35c0127
    3f82:	275c01f3          	0x275c01f3
    3f86:	5d01                	li	s10,-32
    3f88:	0802                	c.slli64	a6
    3f8a:	0040                	addi	s0,sp,4
    3f8c:	0f00                	addi	s0,sp,912
    3f8e:	7b08                	ld	a0,48(a4)
    3f90:	000a                	c.slli	zero,0x2
    3f92:	2800                	fld	fs0,16(s0)
    3f94:	cb29                	beqz	a4,3fe6 <__stack_align+0x3fd6>
    3f96:	0006                	c.slli	zero,0x1
    3f98:	cb00                	sw	s0,16(a4)
    3f9a:	0006                	c.slli	zero,0x1
    3f9c:	0b00                	addi	s0,sp,400
    3f9e:	0d1a                	slli	s10,s10,0x6
    3fa0:	2a00                	fld	fs0,16(a2)
    3fa2:	0000                	unimp
    3fa4:	0200                	addi	s0,sp,256
    3fa6:	a000                	fsd	fs0,0(s0)
    3fa8:	000d                	c.nop	3
    3faa:	0800                	addi	s0,sp,16
    3fac:	0d01                	addi	s10,s10,0
    3fae:	000d                	c.nop	3
    3fb0:	0000                	unimp
    3fb2:	0000                	unimp
    3fb4:	0080                	addi	s0,sp,64
    3fb6:	0000                	unimp
    3fb8:	ec00                	sd	s0,24(s0)
    3fba:	0001                	nop
    3fbc:	0080                	addi	s0,sp,64
    3fbe:	0000                	unimp
    3fc0:	d800                	sw	s0,48(s0)
    3fc2:	0006                	c.slli	zero,0x1
    3fc4:	b900                	fsd	fs0,48(a0)
    3fc6:	0004                	0x4
    3fc8:	e700                	sd	s0,8(a4)
    3fca:	0006                	c.slli	zero,0x1
    3fcc:	0100                	addi	s0,sp,128
    3fce:	2a80                	fld	fs0,16(a3)
    3fd0:	0000                	unimp
    3fd2:	0200                	addi	s0,sp,256
    3fd4:	b400                	fsd	fs0,40(s0)
    3fd6:	000d                	c.nop	3
    3fd8:	0800                	addi	s0,sp,16
    3fda:	3401                	addiw	s0,s0,-32
    3fdc:	0011                	c.nop	4
    3fde:	ee00                	sd	s0,24(a2)
    3fe0:	0001                	nop
    3fe2:	0080                	addi	s0,sp,64
    3fe4:	0000                	unimp
    3fe6:	3000                	fld	fs0,32(s0)
    3fe8:	0002                	c.slli64	zero
    3fea:	0080                	addi	s0,sp,64
    3fec:	0000                	unimp
    3fee:	f300                	sd	s0,32(a4)
    3ff0:	0006                	c.slli	zero,0x1
    3ff2:	b900                	fsd	fs0,48(a0)
    3ff4:	0004                	0x4
    3ff6:	e700                	sd	s0,8(a4)
    3ff8:	0006                	c.slli	zero,0x1
    3ffa:	0100                	addi	s0,sp,128
    3ffc:	6a80                	ld	s0,16(a3)
    3ffe:	0001                	nop
    4000:	0400                	addi	s0,sp,512
    4002:	c800                	sw	s0,16(s0)
    4004:	000d                	c.nop	3
    4006:	0800                	addi	s0,sp,16
    4008:	0d01                	addi	s10,s10,0
    400a:	0002                	c.slli64	zero
    400c:	0c00                	addi	s0,sp,528
    400e:	00000717          	auipc	a4,0x0
    4012:	04b9                	addi	s1,s1,14
    4014:	0000                	unimp
    4016:	203c                	fld	fa5,64(s0)
    4018:	8000                	0x8000
    401a:	0000                	unimp
    401c:	0000                	unimp
    401e:	0016                	c.slli	zero,0x5
    4020:	0000                	unimp
    4022:	0000                	unimp
    4024:	0000                	unimp
    4026:	118c                	addi	a1,sp,224
    4028:	0000                	unimp
    402a:	0102                	c.slli64	sp
    402c:	f206                	sd	ra,288(sp)
    402e:	0002                	c.slli64	zero
    4030:	0200                	addi	s0,sp,256
    4032:	0801                	addi	a6,a6,0
    4034:	02f0                	addi	a2,sp,332
    4036:	0000                	unimp
    4038:	0202                	c.slli64	tp
    403a:	0c05                	addi	s8,s8,1
    403c:	02000003          	lb	zero,32(zero) # 20 <__stack_align+0x10>
    4040:	0702                	c.slli64	a4
    4042:	000001bb          	addw	gp,zero,zero
    4046:	69050403          	lb	s0,1680(a0) # fffffffffffe1690 <ali3_data.1515+0xffffffff7ff91490>
    404a:	746e                	ld	s0,248(sp)
    404c:	0200                	addi	s0,sp,256
    404e:	0704                	addi	s1,sp,896
    4050:	0000004f          	fnmadd.s	ft0,ft0,ft0,ft0,rne
    4054:	0802                	c.slli64	a6
    4056:	a405                	j	4276 <__stack_align+0x4266>
    4058:	0000                	unimp
    405a:	0400                	addi	s0,sp,512
    405c:	02c9                	addi	t0,t0,18
    405e:	0000                	unimp
    4060:	6902                	ld	s2,0(sp)
    4062:	6a19                	lui	s4,0x6
    4064:	0000                	unimp
    4066:	0200                	addi	s0,sp,256
    4068:	0708                	addi	a0,sp,896
    406a:	004a                	c.slli	zero,0x12
    406c:	0000                	unimp
    406e:	2d04                	fld	fs1,24(a0)
    4070:	02000007          	0x2000007
    4074:	19e6                	slli	s3,s3,0x39
    4076:	00000057          	0x57
    407a:	bf04                	fsd	fs1,56(a4)
    407c:	0006                	c.slli	zero,0x1
    407e:	0200                	addi	s0,sp,256
    4080:	1ae8                	addi	a0,sp,380
    4082:	006a                	c.slli	zero,0x1a
    4084:	0000                	unimp
    4086:	cb04                	sw	s1,16(a4)
    4088:	0002                	c.slli64	zero
    408a:	0300                	addi	s0,sp,384
    408c:	143c                	addi	a5,sp,552
    408e:	005e                	c.slli	zero,0x17
    4090:	0000                	unimp
    4092:	8905                	andi	a0,a0,1
    4094:	0000                	unimp
    4096:	0400                	addi	s0,sp,512
    4098:	0000072f          	0x72f
    409c:	71144d03          	lbu	s10,1809(s0) # 69fd <__stack_size_min+0x9fd>
    40a0:	0000                	unimp
    40a2:	0400                	addi	s0,sp,512
    40a4:	06c1                	addi	a3,a3,16
    40a6:	0000                	unimp
    40a8:	7d155203          	lhu	tp,2001(a0)
    40ac:	0000                	unimp
    40ae:	0200                	addi	s0,sp,256
    40b0:	0508                	addi	a0,sp,640
    40b2:	009f 0000 1002      	0x10020000009f
    40b8:	9a04                	0x9a04
    40ba:	0002                	c.slli64	zero
    40bc:	0200                	addi	s0,sp,256
    40be:	0801                	addi	a6,a6,0
    40c0:	02f9                	addi	t0,t0,30
    40c2:	0000                	unimp
    40c4:	bc06                	fsd	ft1,56(sp)
    40c6:	04000003          	lb	zero,64(zero) # 40 <__stack_align+0x30>
    40ca:	1a06                	slli	s4,s4,0x21
    40cc:	0095                	addi	ra,ra,5
    40ce:	0000                	unimp
    40d0:	6506                	ld	a0,64(sp)
    40d2:	0000                	unimp
    40d4:	0400                	addi	s0,sp,512
    40d6:	00951a07          	0x951a07
    40da:	0000                	unimp
    40dc:	00070507          	0x70507
    40e0:	0100                	addi	s0,sp,128
    40e2:	1c04                	addi	s1,sp,560
    40e4:	203c                	fld	fa5,64(s0)
    40e6:	8000                	0x8000
    40e8:	0000                	unimp
    40ea:	0000                	unimp
    40ec:	0016                	c.slli	zero,0x5
    40ee:	0000                	unimp
    40f0:	0000                	unimp
    40f2:	0000                	unimp
    40f4:	9c01                	subw	s0,s0,s0
    40f6:	0000015b          	0x15b
    40fa:	6508                	ld	a0,8(a0)
    40fc:	6370                	ld	a2,192(a4)
    40fe:	0100                	addi	s0,sp,128
    4100:	3204                	fld	fs1,32(a2)
    4102:	00a6                	slli	ra,ra,0x9
    4104:	0000                	unimp
    4106:	0392                	slli	t2,t2,0x4
    4108:	0000                	unimp
    410a:	1109                	addi	sp,sp,-30
    410c:	01000007          	0x1000007
    4110:	4104                	lw	s1,0(a0)
    4112:	00a6                	slli	ra,ra,0x9
    4114:	0000                	unimp
    4116:	000003cb          	fnmsub.s	ft7,ft0,ft0,ft0,rne
    411a:	4209                	li	tp,2
    411c:	01000007          	0x1000007
    4120:	5204                	lw	s1,32(a2)
    4122:	00a6                	slli	ra,ra,0x9
    4124:	0000                	unimp
    4126:	0404                	addi	s1,sp,512
    4128:	0000                	unimp
    412a:	3809                	addiw	a6,a6,-30
    412c:	01000007          	0x1000007
    4130:	6204                	ld	s1,0(a2)
    4132:	0000015b          	0x15b
    4136:	043d                	addi	s0,s0,15
    4138:	0000                	unimp
    413a:	3d0a                	fld	fs10,160(sp)
    413c:	01000007          	0x1000007
    4140:	00490907          	0x490907
    4144:	0000                	unimp
    4146:	0476                	slli	s0,s0,0x1d
    4148:	0000                	unimp
    414a:	0020520b          	0x20520b
    414e:	0080                	addi	s0,sp,64
    4150:	0000                	unimp
    4152:	6100                	ld	s0,0(a0)
    4154:	0001                	nop
    4156:	0000                	unimp
    4158:	080c                	addi	a1,sp,16
    415a:	00a6                	slli	ra,ra,0x9
    415c:	0000                	unimp
    415e:	270d                	addiw	a4,a4,3
    4160:	27000007          	0x27000007
    4164:	05000007          	0x5000007
    4168:	0d41                	addi	s10,s10,16
    416a:	d500                	sw	s0,40(a0)
    416c:	0009                	c.nop	2
    416e:	0400                	addi	s0,sp,512
    4170:	9100                	0x9100
    4172:	000e                	c.slli	zero,0x3
    4174:	0800                	addi	s0,sp,16
    4176:	0d01                	addi	s10,s10,0
    4178:	0002                	c.slli64	zero
    417a:	0c00                	addi	s0,sp,528
    417c:	0791                	addi	a5,a5,4
    417e:	0000                	unimp
    4180:	04b9                	addi	s1,s1,14
    4182:	0000                	unimp
    4184:	2052                	fld	ft0,272(sp)
    4186:	8000                	0x8000
    4188:	0000                	unimp
    418a:	0000                	unimp
    418c:	0030                	addi	a2,sp,8
    418e:	0000                	unimp
    4190:	0000                	unimp
    4192:	0000                	unimp
    4194:	1301                	addi	t1,t1,-32
    4196:	0000                	unimp
    4198:	0802                	c.slli64	a6
    419a:	a405                	j	43ba <__stack_align+0x43aa>
    419c:	0000                	unimp
    419e:	0300                	addi	s0,sp,384
    41a0:	058c                	addi	a1,sp,704
    41a2:	0000                	unimp
    41a4:	d102                	sw	zero,160(sp)
    41a6:	00004017          	auipc	zero,0x4
    41aa:	0200                	addi	s0,sp,256
    41ac:	0708                	addi	a0,sp,896
    41ae:	004a                	c.slli	zero,0x12
    41b0:	0000                	unimp
    41b2:	0404                	addi	s1,sp,512
    41b4:	6905                	lui	s2,0x1
    41b6:	746e                	ld	s0,248(sp)
    41b8:	0200                	addi	s0,sp,256
    41ba:	0508                	addi	a0,sp,640
    41bc:	009f 0000 1002      	0x10020000009f
    41c2:	9a04                	0x9a04
    41c4:	0002                	c.slli64	zero
    41c6:	0500                	addi	s0,sp,640
    41c8:	01fe                	slli	gp,gp,0x1f
    41ca:	0000                	unimp
    41cc:	5e02                	lw	t3,32(sp)
    41ce:	1701                	addi	a4,a4,-32
    41d0:	0069                	c.nop	26
    41d2:	0000                	unimp
    41d4:	0402                	c.slli64	s0
    41d6:	00004f07          	flq	ft10,0(zero) # 0 <__boot_hart>
    41da:	0200                	addi	s0,sp,256
    41dc:	0601                	addi	a2,a2,0
    41de:	02f2                	slli	t0,t0,0x1c
    41e0:	0000                	unimp
    41e2:	0102                	c.slli64	sp
    41e4:	f008                	sd	a0,32(s0)
    41e6:	0002                	c.slli64	zero
    41e8:	0200                	addi	s0,sp,256
    41ea:	0502                	c.slli64	a0
    41ec:	030c                	addi	a1,sp,384
    41ee:	0000                	unimp
    41f0:	0202                	c.slli64	tp
    41f2:	0001bb07          	fld	fs6,0(gp) # 3a80 <__stack_align+0x3a70>
    41f6:	0300                	addi	s0,sp,384
    41f8:	04f6                	slli	s1,s1,0x1d
    41fa:	0000                	unimp
    41fc:	2d0e2e03          	lw	t3,720(t3) # 192d0 <__stack_size+0x112d0>
    4200:	0000                	unimp
    4202:	0300                	addi	s0,sp,384
    4204:	03d9                	addi	t2,t2,22
    4206:	0000                	unimp
    4208:	2d0e7403          	0x2d0e7403
    420c:	0000                	unimp
    420e:	0300                	addi	s0,sp,384
    4210:	0455                	addi	s0,s0,21
    4212:	0000                	unimp
    4214:	2d179303          	lh	t1,721(a5)
    4218:	0000                	unimp
    421a:	0600                	addi	s0,sp,768
    421c:	0304                	addi	s1,sp,384
    421e:	03a5                	addi	t2,t2,9
    4220:	00d2                	slli	ra,ra,0x14
    4222:	0000                	unimp
    4224:	0001f807          	0x1f807
    4228:	0300                	addi	s0,sp,384
    422a:	005c0ca7          	0x5c0ca7
    422e:	0000                	unimp
    4230:	00018807          	0x18807
    4234:	0300                	addi	s0,sp,384
    4236:	13a8                	addi	a0,sp,488
    4238:	00d2                	slli	ra,ra,0x14
    423a:	0000                	unimp
    423c:	0800                	addi	s0,sp,16
    423e:	00000077          	0x77
    4242:	00e2                	slli	ra,ra,0x18
    4244:	0000                	unimp
    4246:	4009                	c.li	zero,2
    4248:	0000                	unimp
    424a:	0300                	addi	s0,sp,384
    424c:	0a00                	addi	s0,sp,272
    424e:	0308                	addi	a0,sp,384
    4250:	09a2                	slli	s3,s3,0x8
    4252:	0106                	slli	sp,sp,0x1
    4254:	0000                	unimp
    4256:	0003c30b          	0x3c30b
    425a:	0300                	addi	s0,sp,384
    425c:	07a4                	addi	s1,sp,968
    425e:	00000047          	fmsub.s	ft0,ft0,ft0,ft0,rne
    4262:	0b00                	addi	s0,sp,400
    4264:	000003cb          	fnmsub.s	ft7,ft0,ft0,ft0,rne
    4268:	b005a903          	lw	s2,-1280(a1)
    426c:	0000                	unimp
    426e:	0400                	addi	s0,sp,512
    4270:	0300                	addi	s0,sp,384
    4272:	0334                	addi	a3,sp,392
    4274:	0000                	unimp
    4276:	e203aa03          	lw	s4,-480(t2)
    427a:	0000                	unimp
    427c:	0c00                	addi	s0,sp,528
    427e:	0308                	addi	a0,sp,384
    4280:	0000040b          	0x40b
    4284:	1904                	addi	s1,sp,176
    4286:	6919                	lui	s2,0x6
    4288:	0000                	unimp
    428a:	0300                	addi	s0,sp,384
    428c:	02de                	slli	t0,t0,0x17
    428e:	0000                	unimp
    4290:	0c05                	addi	s8,s8,1
    4292:	470d                	li	a4,3
    4294:	0000                	unimp
    4296:	0300                	addi	s0,sp,384
    4298:	0000014b          	fnmsub.s	ft2,ft0,ft0,ft0,rne
    429c:	2304                	fld	fs1,0(a4)
    429e:	0001201b          	0x1201b
    42a2:	0d00                	addi	s0,sp,656
    42a4:	015c                	addi	a5,sp,132
    42a6:	0000                	unimp
    42a8:	0420                	addi	s0,sp,520
    42aa:	0834                	addi	a3,sp,24
    42ac:	0192                	slli	gp,gp,0x4
    42ae:	0000                	unimp
    42b0:	00035f0b          	0x35f0b
    42b4:	0400                	addi	s0,sp,512
    42b6:	1336                	slli	t1,t1,0x2d
    42b8:	0192                	slli	gp,gp,0x4
    42ba:	0000                	unimp
    42bc:	0e00                	addi	s0,sp,784
    42be:	6b5f 0400 0737      	0x73704006b5f
    42c4:	00000047          	fmsub.s	ft0,ft0,ft0,ft0,rne
    42c8:	0b08                	addi	a0,sp,400
    42ca:	000003a7          	0x3a7
    42ce:	3704                	fld	fs1,40(a4)
    42d0:	0000470b          	0x470b
    42d4:	0c00                	addi	s0,sp,528
    42d6:	0001450b          	0x1450b
    42da:	0400                	addi	s0,sp,512
    42dc:	00471437          	lui	s0,0x471
    42e0:	0000                	unimp
    42e2:	0b10                	addi	a2,sp,400
    42e4:	0440                	addi	s0,sp,516
    42e6:	0000                	unimp
    42e8:	3704                	fld	fs1,40(a4)
    42ea:	0000471b          	0x471b
    42ee:	1400                	addi	s0,sp,544
    42f0:	5f0e                	lw	t5,224(sp)
    42f2:	0078                	addi	a4,sp,12
    42f4:	3804                	fld	fs1,48(s0)
    42f6:	0001980b          	0x1980b
    42fa:	1800                	addi	s0,sp,48
    42fc:	0f00                	addi	s0,sp,912
    42fe:	3808                	fld	fa0,48(s0)
    4300:	0001                	nop
    4302:	0800                	addi	s0,sp,16
    4304:	0114                	addi	a3,sp,128
    4306:	0000                	unimp
    4308:	01a8                	addi	a0,sp,200
    430a:	0000                	unimp
    430c:	4009                	c.li	zero,2
    430e:	0000                	unimp
    4310:	0000                	unimp
    4312:	0d00                	addi	s0,sp,656
    4314:	00000183          	lb	gp,0(zero) # 0 <__boot_hart>
    4318:	0424                	addi	s1,sp,520
    431a:	083c                	addi	a5,sp,24
    431c:	0000022b          	0x22b
    4320:	0000960b          	0x960b
    4324:	0400                	addi	s0,sp,512
    4326:	093e                	slli	s2,s2,0xf
    4328:	00000047          	fmsub.s	ft0,ft0,ft0,ft0,rne
    432c:	0b00                	addi	s0,sp,400
    432e:	03e1                	addi	t2,t2,24
    4330:	0000                	unimp
    4332:	3f04                	fld	fs1,56(a4)
    4334:	4709                	li	a4,2
    4336:	0000                	unimp
    4338:	0400                	addi	s0,sp,512
    433a:	0000b90b          	0xb90b
    433e:	0400                	addi	s0,sp,512
    4340:	0940                	addi	s0,sp,148
    4342:	00000047          	fmsub.s	ft0,ft0,ft0,ft0,rne
    4346:	0b08                	addi	a0,sp,400
    4348:	000004eb          	0x4eb
    434c:	4104                	lw	s1,0(a0)
    434e:	4709                	li	a4,2
    4350:	0000                	unimp
    4352:	0c00                	addi	s0,sp,528
    4354:	0002ad0b          	0x2ad0b
    4358:	0400                	addi	s0,sp,512
    435a:	0942                	slli	s2,s2,0x10
    435c:	00000047          	fmsub.s	ft0,ft0,ft0,ft0,rne
    4360:	0b10                	addi	a2,sp,400
    4362:	00000287          	0x287
    4366:	4304                	lw	s1,0(a4)
    4368:	4709                	li	a4,2
    436a:	0000                	unimp
    436c:	1400                	addi	s0,sp,544
    436e:	0004450b          	0x4450b
    4372:	0400                	addi	s0,sp,512
    4374:	0944                	addi	s1,sp,148
    4376:	00000047          	fmsub.s	ft0,ft0,ft0,ft0,rne
    437a:	0b18                	addi	a4,sp,400
    437c:	0316                	slli	t1,t1,0x5
    437e:	0000                	unimp
    4380:	4504                	lw	s1,8(a0)
    4382:	4709                	li	a4,2
    4384:	0000                	unimp
    4386:	1c00                	addi	s0,sp,560
    4388:	0004800b          	0x4800b
    438c:	0400                	addi	s0,sp,512
    438e:	0946                	slli	s2,s2,0x11
    4390:	00000047          	fmsub.s	ft0,ft0,ft0,ft0,rne
    4394:	0020                	addi	s0,sp,8
    4396:	c810                	sw	a2,16(s0)
    4398:	0000                	unimp
    439a:	0800                	addi	s0,sp,16
    439c:	0402                	c.slli64	s0
    439e:	0271084f          	fnmadd.d	fa6,ft2,ft7,ft0,rne
    43a2:	0000                	unimp
    43a4:	0001380b          	0x1380b
    43a8:	0400                	addi	s0,sp,512
    43aa:	0a50                	addi	a2,sp,276
    43ac:	0271                	addi	tp,tp,28
    43ae:	0000                	unimp
    43b0:	1100                	addi	s0,sp,160
    43b2:	0000                	unimp
    43b4:	0000                	unimp
    43b6:	5104                	lw	s1,32(a0)
    43b8:	7109                	addi	sp,sp,-384
    43ba:	0002                	c.slli64	zero
    43bc:	0000                	unimp
    43be:	1101                	addi	sp,sp,-32
    43c0:	03fd                	addi	t2,t2,31
    43c2:	0000                	unimp
    43c4:	5304                	lw	s1,32(a4)
    43c6:	140a                	slli	s0,s0,0x22
    43c8:	0001                	nop
    43ca:	0000                	unimp
    43cc:	1102                	slli	sp,sp,0x20
    43ce:	00f5                	addi	ra,ra,29
    43d0:	0000                	unimp
    43d2:	5604                	lw	s1,40(a2)
    43d4:	140a                	slli	s0,s0,0x22
    43d6:	0001                	nop
    43d8:	0400                	addi	s0,sp,512
    43da:	0002                	c.slli64	zero
    43dc:	1208                	addi	a0,sp,288
    43de:	0001                	nop
    43e0:	8100                	0x8100
    43e2:	0002                	c.slli64	zero
    43e4:	0900                	addi	s0,sp,144
    43e6:	0040                	addi	s0,sp,4
    43e8:	0000                	unimp
    43ea:	001f b610 0002      	0x2b610001f
    43f0:	1800                	addi	s0,sp,48
    43f2:	08620403          	lb	s0,134(tp) # fffffffffffe1086 <ali3_data.1515+0xffffffff7ff90e86>
    43f6:	02c5                	addi	t0,t0,17
    43f8:	0000                	unimp
    43fa:	00035f0b          	0x35f0b
    43fe:	0400                	addi	s0,sp,512
    4400:	02c51263          	bne	a0,a2,4424 <__stack_align+0x4414>
    4404:	0000                	unimp
    4406:	0b00                	addi	s0,sp,400
    4408:	00000377          	0x377
    440c:	6404                	ld	s1,8(s0)
    440e:	4706                	lw	a4,64(sp)
    4410:	0000                	unimp
    4412:	0800                	addi	s0,sp,16
    4414:	0001400b          	0x1400b
    4418:	0400                	addi	s0,sp,512
    441a:	0966                	slli	s2,s2,0x19
    441c:	000002cb          	fnmsub.s	ft5,ft0,ft0,ft0,rne
    4420:	1110                	addi	a2,sp,160
    4422:	00c8                	addi	a0,sp,68
    4424:	0000                	unimp
    4426:	6704                	ld	s1,8(a4)
    4428:	2b1e                	fld	fs6,448(sp)
    442a:	0002                	c.slli64	zero
    442c:	1000                	addi	s0,sp,32
    442e:	0001                	nop
    4430:	0281080f          	0x281080f
    4434:	0000                	unimp
    4436:	db08                	sw	a0,48(a4)
    4438:	0002                	c.slli64	zero
    443a:	db00                	sw	s0,48(a4)
    443c:	0002                	c.slli64	zero
    443e:	0900                	addi	s0,sp,144
    4440:	0040                	addi	s0,sp,4
    4442:	0000                	unimp
    4444:	001f 080f 02e1      	0x2e1080f001f
    444a:	0000                	unimp
    444c:	0d12                	slli	s10,s10,0x4
    444e:	0320                	addi	s0,sp,392
    4450:	0000                	unimp
    4452:	0410                	addi	a2,sp,512
    4454:	087a                	slli	a6,a6,0x1e
    4456:	030a                	slli	t1,t1,0x2
    4458:	0000                	unimp
    445a:	0000b30b          	0xb30b
    445e:	0400                	addi	s0,sp,512
    4460:	030a117b          	0x30a117b
    4464:	0000                	unimp
    4466:	0b00                	addi	s0,sp,400
    4468:	074e                	slli	a4,a4,0x13
    446a:	0000                	unimp
    446c:	7c04                	ld	s1,56(s0)
    446e:	4706                	lw	a4,64(sp)
    4470:	0000                	unimp
    4472:	0800                	addi	s0,sp,16
    4474:	0f00                	addi	s0,sp,912
    4476:	7708                	ld	a0,40(a4)
    4478:	0000                	unimp
    447a:	0d00                	addi	s0,sp,656
    447c:	0000033f 08ba04b0 	0x8ba04b00000033f
    4484:	00000453          	fadd.s	fs0,ft0,ft0,rne
    4488:	5f0e                	lw	t5,224(sp)
    448a:	0070                	addi	a2,sp,12
    448c:	bb04                	fsd	fs1,48(a4)
    448e:	0a12                	slli	s4,s4,0x4
    4490:	00000003          	lb	zero,0(zero) # 0 <__boot_hart>
    4494:	5f0e                	lw	t5,224(sp)
    4496:	0072                	c.slli	zero,0x1c
    4498:	bc04                	fsd	fs1,56(s0)
    449a:	00004707          	flq	fa4,0(zero) # 0 <__boot_hart>
    449e:	0800                	addi	s0,sp,16
    44a0:	5f0e                	lw	t5,224(sp)
    44a2:	bd040077          	0xbd040077
    44a6:	00004707          	flq	fa4,0(zero) # 0 <__boot_hart>
    44aa:	0c00                	addi	s0,sp,528
    44ac:	0000ee0b          	0xee0b
    44b0:	0400                	addi	s0,sp,512
    44b2:	09be                	slli	s3,s3,0xf
    44b4:	007e                	c.slli	zero,0x1f
    44b6:	0000                	unimp
    44b8:	0b10                	addi	a2,sp,400
    44ba:	019f 0000 bf04      	0xbf040000019f
    44c0:	7e09                	lui	t3,0xfffe2
    44c2:	0000                	unimp
    44c4:	1200                	addi	s0,sp,288
    44c6:	5f0e                	lw	t5,224(sp)
    44c8:	6662                	ld	a2,24(sp)
    44ca:	0400                	addi	s0,sp,512
    44cc:	11c0                	addi	s0,sp,228
    44ce:	02e2                	slli	t0,t0,0x18
    44d0:	0000                	unimp
    44d2:	0b18                	addi	a4,sp,400
    44d4:	005c                	addi	a5,sp,4
    44d6:	0000                	unimp
    44d8:	c104                	sw	s1,0(a0)
    44da:	00004707          	flq	fa4,0(zero) # 0 <__boot_hart>
    44de:	2800                	fld	fs0,16(s0)
    44e0:	0000d60b          	0xd60b
    44e4:	0400                	addi	s0,sp,512
    44e6:	0ac8                	addi	a0,sp,340
    44e8:	0112                	slli	sp,sp,0x4
    44ea:	0000                	unimp
    44ec:	0b30                	addi	a2,sp,408
    44ee:	00000173          	0x173
    44f2:	ca04                	sw	s1,16(a2)
    44f4:	d71d                	beqz	a4,4422 <__stack_align+0x4412>
    44f6:	0005                	c.nop	1
    44f8:	3800                	fld	fs0,48(s0)
    44fa:	0002800b          	0x2800b
    44fe:	0400                	addi	s0,sp,512
    4500:	1dcc                	addi	a1,sp,756
    4502:	0601                	addi	a2,a2,0
    4504:	0000                	unimp
    4506:	0b40                	addi	s0,sp,404
    4508:	000003d3          	fadd.s	ft7,ft0,ft0,rne
    450c:	cf04                	sw	s1,24(a4)
    450e:	250d                	addiw	a0,a0,3
    4510:	0006                	c.slli	zero,0x1
    4512:	4800                	lw	s0,16(s0)
    4514:	00049a0b          	0x49a0b
    4518:	0400                	addi	s0,sp,512
    451a:	09d0                	addi	a2,sp,212
    451c:	0000063f 755f0e50 	0x755f0e500000063f
    4524:	0062                	c.slli	zero,0x18
    4526:	d304                	sw	s1,32(a4)
    4528:	e211                	bnez	a2,452c <__stack_align+0x451c>
    452a:	0002                	c.slli64	zero
    452c:	5800                	lw	s0,48(s0)
    452e:	5f0e                	lw	t5,224(sp)
    4530:	7075                	c.lui	zero,0xffffd
    4532:	0400                	addi	s0,sp,512
    4534:	12d4                	addi	a3,sp,356
    4536:	030a                	slli	t1,t1,0x2
    4538:	0000                	unimp
    453a:	0e68                	addi	a0,sp,796
    453c:	755f 0072 d504      	0xd5040072755f
    4542:	00004707          	flq	fa4,0(zero) # 0 <__boot_hart>
    4546:	7000                	ld	s0,32(s0)
    4548:	0000ad0b          	0xad0b
    454c:	0400                	addi	s0,sp,512
    454e:	11d8                	addi	a4,sp,228
    4550:	0645                	addi	a2,a2,17
    4552:	0000                	unimp
    4554:	0b74                	addi	a3,sp,412
    4556:	0472                	slli	s0,s0,0x1c
    4558:	0000                	unimp
    455a:	d904                	sw	s1,48(a0)
    455c:	5511                	li	a0,-28
    455e:	0006                	c.slli	zero,0x1
    4560:	7700                	ld	s0,40(a4)
    4562:	5f0e                	lw	t5,224(sp)
    4564:	626c                	ld	a1,192(a2)
    4566:	0400                	addi	s0,sp,512
    4568:	11dc                	addi	a5,sp,228
    456a:	02e2                	slli	t0,t0,0x18
    456c:	0000                	unimp
    456e:	0b78                	addi	a4,sp,412
    4570:	05ac                	addi	a1,sp,712
    4572:	0000                	unimp
    4574:	df04                	sw	s1,56(a4)
    4576:	00004707          	flq	fa4,0(zero) # 0 <__boot_hart>
    457a:	8800                	0x8800
    457c:	00077b0b          	0x77b0b
    4580:	0400                	addi	s0,sp,512
    4582:	0ae0                	addi	s0,sp,348
    4584:	008c                	addi	a1,sp,64
    4586:	0000                	unimp
    4588:	0b90                	addi	a2,sp,464
    458a:	001f 0000 e304      	0xe3040000001f
    4590:	7112                	ld	sp,288(sp)
    4592:	0004                	0x4
    4594:	9800                	0x9800
    4596:	0007ef0b          	0x7ef0b
    459a:	0400                	addi	s0,sp,512
    459c:	012c0ce7          	jalr	s9,18(s8) # 9012 <__stack_size+0x1012>
    45a0:	0000                	unimp
    45a2:	0ba0                	addi	s0,sp,472
    45a4:	0351                	addi	t1,t1,20
    45a6:	0000                	unimp
    45a8:	e904                	sd	s1,16(a0)
    45aa:	060e                	slli	a2,a2,0x3
    45ac:	0001                	nop
    45ae:	a400                	fsd	fs0,8(s0)
    45b0:	0002050b          	0x2050b
    45b4:	0400                	addi	s0,sp,512
    45b6:	09ea                	slli	s3,s3,0x1a
    45b8:	00000047          	fmsub.s	ft0,ft0,ft0,ft0,rne
    45bc:	00ac                	addi	a1,sp,72
    45be:	0000a413          	slti	s0,ra,0
    45c2:	7100                	ld	s0,32(a0)
    45c4:	0004                	0x4
    45c6:	1400                	addi	s0,sp,544
    45c8:	0471                	addi	s0,s0,28
    45ca:	0000                	unimp
    45cc:	1214                	addi	a3,sp,288
    45ce:	0001                	nop
    45d0:	1400                	addi	s0,sp,544
    45d2:	05c5                	addi	a1,a1,17
    45d4:	0000                	unimp
    45d6:	4714                	lw	a3,8(a4)
    45d8:	0000                	unimp
    45da:	0000                	unimp
    45dc:	047c080f          	0x47c080f
    45e0:	0000                	unimp
    45e2:	7115                	addi	sp,sp,-224
    45e4:	0004                	0x4
    45e6:	1600                	addi	s0,sp,800
    45e8:	000003af          	0x3af
    45ec:	0748                	addi	a0,sp,900
    45ee:	6504                	ld	s1,8(a0)
    45f0:	0802                	c.slli64	a6
    45f2:	05c5                	addi	a1,a1,17
    45f4:	0000                	unimp
    45f6:	0000e717          	auipc	a4,0xe
    45fa:	0400                	addi	s0,sp,512
    45fc:	47070267          	jalr	tp,1136(a4) # 12a66 <__stack_size+0xaa66>
    4600:	0000                	unimp
    4602:	0000                	unimp
    4604:	0000fd17          	auipc	s10,0xf
    4608:	0400                	addi	s0,sp,512
    460a:	026c                	addi	a1,sp,268
    460c:	0006b10b          	0x6b10b
    4610:	0800                	addi	s0,sp,16
    4612:	00018f17          	auipc	t5,0x18
    4616:	0400                	addi	s0,sp,512
    4618:	026c                	addi	a1,sp,268
    461a:	b114                	fsd	fa3,32(a0)
    461c:	0006                	c.slli	zero,0x1
    461e:	1000                	addi	s0,sp,32
    4620:	00015417          	auipc	s0,0x15
    4624:	0400                	addi	s0,sp,512
    4626:	026c                	addi	a1,sp,268
    4628:	b11e                	fsd	ft7,160(sp)
    462a:	0006                	c.slli	zero,0x1
    462c:	1800                	addi	s0,sp,48
    462e:	00037217          	auipc	tp,0x37
    4632:	0400                	addi	s0,sp,512
    4634:	026e                	slli	tp,tp,0x1b
    4636:	4708                	lw	a0,8(a4)
    4638:	0000                	unimp
    463a:	2000                	fld	fs0,0(s0)
    463c:	00001417          	auipc	s0,0x1
    4640:	0400                	addi	s0,sp,512
    4642:	ba08026f          	jal	tp,fffffffffff849e2 <ali3_data.1515+0xffffffff7ff347e2>
    4646:	0008                	0x8
    4648:	2400                	fld	fs0,8(s0)
    464a:	00038e17          	auipc	t3,0x38
    464e:	0400                	addi	s0,sp,512
    4650:	0272                	slli	tp,tp,0x1c
    4652:	00004707          	flq	fa4,0(zero) # 0 <__boot_hart>
    4656:	4000                	lw	s0,0(s0)
    4658:	00037c17          	auipc	s8,0x37
    465c:	0400                	addi	s0,sp,512
    465e:	cf160273          	0xcf160273
    4662:	0008                	0x8
    4664:	4800                	lw	s0,16(s0)
    4666:	0002be17          	auipc	t3,0x2b
    466a:	0400                	addi	s0,sp,512
    466c:	0275                	addi	tp,tp,29
    466e:	00004707          	flq	fa4,0(zero) # 0 <__boot_hart>
    4672:	5000                	lw	s0,32(s0)
    4674:	00038417          	auipc	s0,0x38
    4678:	0400                	addi	s0,sp,512
    467a:	e00a0277          	0xe00a0277
    467e:	0008                	0x8
    4680:	5800                	lw	s0,48(s0)
    4682:	0001f017          	auipc	zero,0x1f
    4686:	0400                	addi	s0,sp,512
    4688:	027a                	slli	tp,tp,0x1e
    468a:	00019213          	slli	tp,gp,0x0
    468e:	6000                	ld	s0,0(s0)
    4690:	00017917          	auipc	s2,0x17
    4694:	0400                	addi	s0,sp,512
    4696:	4707027b          	0x4707027b
    469a:	0000                	unimp
    469c:	6800                	ld	s0,16(s0)
    469e:	0004b417          	auipc	s0,0x4b
    46a2:	0400                	addi	s0,sp,512
    46a4:	027c                	addi	a5,sp,268
    46a6:	00019213          	slli	tp,gp,0x0
    46aa:	7000                	ld	s0,32(s0)
    46ac:	0002d417          	auipc	s0,0x2d
    46b0:	0400                	addi	s0,sp,512
    46b2:	027d                	addi	tp,tp,31
    46b4:	e614                	sd	a3,8(a2)
    46b6:	0008                	0x8
    46b8:	7800                	ld	s0,48(s0)
    46ba:	00019717          	auipc	a4,0x19
    46be:	0400                	addi	s0,sp,512
    46c0:	0280                	addi	s0,sp,320
    46c2:	00004707          	flq	fa4,0(zero) # 0 <__boot_hart>
    46c6:	8000                	0x8000
    46c8:	00011117          	auipc	sp,0x11
    46cc:	0400                	addi	s0,sp,512
    46ce:	0281                	addi	t0,t0,0
    46d0:	c509                	beqz	a0,46da <__stack_align+0x46ca>
    46d2:	0005                	c.nop	1
    46d4:	8800                	0x8800
    46d6:	0002fe17          	auipc	t3,0x2f
    46da:	0400                	addi	s0,sp,512
    46dc:	02a4                	addi	s1,sp,328
    46de:	00089407          	0x89407
    46e2:	9000                	0x9000
    46e4:	b618                	fsd	fa4,40(a2)
    46e6:	0002                	c.slli64	zero
    46e8:	0400                	addi	s0,sp,512
    46ea:	02a8                	addi	a0,sp,328
    46ec:	0002c513          	xori	a0,t0,0
    46f0:	f800                	sd	s0,48(s0)
    46f2:	1801                	addi	a6,a6,-32
    46f4:	01ce                	slli	gp,gp,0x13
    46f6:	0000                	unimp
    46f8:	a904                	fsd	fs1,16(a0)
    46fa:	1202                	slli	tp,tp,0x20
    46fc:	0281                	addi	t0,t0,0
    46fe:	0000                	unimp
    4700:	0200                	addi	s0,sp,256
    4702:	6818                	ld	a4,16(s0)
    4704:	0004                	0x4
    4706:	0400                	addi	s0,sp,512
    4708:	02ad                	addi	t0,t0,11
    470a:	f70c                	sd	a1,40(a4)
    470c:	0008                	0x8
    470e:	1800                	addi	s0,sp,48
    4710:	1805                	addi	a6,a6,-31
    4712:	00de                	slli	ra,ra,0x17
    4714:	0000                	unimp
    4716:	b204                	fsd	fs1,32(a2)
    4718:	1002                	c.slli	zero,0x20
    471a:	0672                	slli	a2,a2,0x1c
    471c:	0000                	unimp
    471e:	0520                	addi	s0,sp,648
    4720:	c318                	sw	a4,0(a4)
    4722:	0000                	unimp
    4724:	0400                	addi	s0,sp,512
    4726:	02b4                	addi	a3,sp,328
    4728:	030a                	slli	t1,t1,0x2
    472a:	0009                	c.nop	2
    472c:	3800                	fld	fs0,48(s0)
    472e:	0005                	c.nop	1
    4730:	05cb080f          	0x5cb080f
    4734:	0000                	unimp
    4736:	0102                	c.slli64	sp
    4738:	f908                	sd	a0,48(a0)
    473a:	0002                	c.slli64	zero
    473c:	1500                	addi	s0,sp,672
    473e:	000005cb          	fnmsub.s	fa1,ft0,ft0,ft0,rne
    4742:	0453080f          	0x453080f
    4746:	0000                	unimp
    4748:	0000a413          	slti	s0,ra,0
    474c:	fb00                	sd	s0,48(a4)
    474e:	0005                	c.nop	1
    4750:	1400                	addi	s0,sp,544
    4752:	0471                	addi	s0,s0,28
    4754:	0000                	unimp
    4756:	1214                	addi	a3,sp,288
    4758:	0001                	nop
    475a:	1400                	addi	s0,sp,544
    475c:	000005fb          	0x5fb
    4760:	4714                	lw	a3,8(a4)
    4762:	0000                	unimp
    4764:	0000                	unimp
    4766:	05d2080f          	0x5d2080f
    476a:	0000                	unimp
    476c:	05dd080f          	0x5dd080f
    4770:	0000                	unimp
    4772:	00009813          	slli	a6,ra,0x0
    4776:	2500                	fld	fs0,8(a0)
    4778:	0006                	c.slli	zero,0x1
    477a:	1400                	addi	s0,sp,544
    477c:	0471                	addi	s0,s0,28
    477e:	0000                	unimp
    4780:	1214                	addi	a3,sp,288
    4782:	0001                	nop
    4784:	1400                	addi	s0,sp,544
    4786:	0098                	addi	a4,sp,64
    4788:	0000                	unimp
    478a:	4714                	lw	a3,8(a4)
    478c:	0000                	unimp
    478e:	0000                	unimp
    4790:	0607080f          	0x607080f
    4794:	0000                	unimp
    4796:	00004713          	xori	a4,zero,0
    479a:	3f00                	fld	fs0,56(a4)
    479c:	0006                	c.slli	zero,0x1
    479e:	1400                	addi	s0,sp,544
    47a0:	0471                	addi	s0,s0,28
    47a2:	0000                	unimp
    47a4:	1214                	addi	a3,sp,288
    47a6:	0001                	nop
    47a8:	0000                	unimp
    47aa:	062b080f          	0x62b080f
    47ae:	0000                	unimp
    47b0:	7708                	ld	a0,40(a4)
    47b2:	0000                	unimp
    47b4:	5500                	lw	s0,40(a0)
    47b6:	0006                	c.slli	zero,0x1
    47b8:	0900                	addi	s0,sp,144
    47ba:	0040                	addi	s0,sp,4
    47bc:	0000                	unimp
    47be:	0002                	c.slli64	zero
    47c0:	7708                	ld	a0,40(a4)
    47c2:	0000                	unimp
    47c4:	6500                	ld	s0,8(a0)
    47c6:	0006                	c.slli	zero,0x1
    47c8:	0900                	addi	s0,sp,144
    47ca:	0040                	addi	s0,sp,4
    47cc:	0000                	unimp
    47ce:	0000                	unimp
    47d0:	2d05                	addiw	s10,s10,1
    47d2:	04000003          	lb	zero,64(zero) # 40 <__stack_align+0x30>
    47d6:	0124                	addi	s1,sp,136
    47d8:	101a                	c.slli	zero,0x26
    47da:	19000003          	lb	zero,400(zero) # 190 <__stack_align+0x180>
    47de:	0000044f          	fnmadd.s	fs0,ft0,ft0,ft0,rne
    47e2:	0418                	addi	a4,sp,512
    47e4:	0128                	addi	a0,sp,136
    47e6:	ab08                	fsd	fa0,16(a4)
    47e8:	0006                	c.slli	zero,0x1
    47ea:	1700                	addi	s0,sp,928
    47ec:	035f 0000 2a04      	0x2a040000035f
    47f2:	1101                	addi	sp,sp,-32
    47f4:	000006ab          	0x6ab
    47f8:	1700                	addi	s0,sp,928
    47fa:	01b4                	addi	a3,sp,200
    47fc:	0000                	unimp
    47fe:	2b04                	fld	fs1,16(a4)
    4800:	0701                	addi	a4,a4,0
    4802:	00000047          	fmsub.s	ft0,ft0,ft0,ft0,rne
    4806:	1708                	addi	a0,sp,928
    4808:	00000327          	0x327
    480c:	2c04                	fld	fs1,24(s0)
    480e:	0b01                	addi	s6,s6,0
    4810:	06b1                	addi	a3,a3,12
    4812:	0000                	unimp
    4814:	0010                	0x10
    4816:	0672080f          	0x672080f
    481a:	0000                	unimp
    481c:	0665080f          	0x665080f
    4820:	0000                	unimp
    4822:	0c19                	addi	s8,s8,6
    4824:	0000                	unimp
    4826:	0e00                	addi	s0,sp,784
    4828:	4404                	lw	s1,8(s0)
    482a:	0801                	addi	a6,a6,0
    482c:	06f0                	addi	a2,sp,844
    482e:	0000                	unimp
    4830:	0003b617          	auipc	a2,0x3b
    4834:	0400                	addi	s0,sp,512
    4836:	0145                	addi	sp,sp,17
    4838:	f012                	sd	tp,32(sp)
    483a:	0006                	c.slli	zero,0x1
    483c:	0000                	unimp
    483e:	0003ea17          	auipc	s4,0x3e
    4842:	0400                	addi	s0,sp,512
    4844:	0146                	slli	sp,sp,0x11
    4846:	f012                	sd	tp,32(sp)
    4848:	0006                	c.slli	zero,0x1
    484a:	0600                	addi	s0,sp,768
    484c:	00040617          	auipc	a2,0x40
    4850:	0400                	addi	s0,sp,512
    4852:	85120147          	0x85120147
    4856:	0000                	unimp
    4858:	0c00                	addi	s0,sp,528
    485a:	0800                	addi	s0,sp,16
    485c:	0085                	addi	ra,ra,1
    485e:	0000                	unimp
    4860:	0700                	addi	s0,sp,896
    4862:	0000                	unimp
    4864:	4009                	c.li	zero,2
    4866:	0000                	unimp
    4868:	0200                	addi	s0,sp,256
    486a:	1a00                	addi	s0,sp,304
    486c:	04d8                	addi	a4,sp,580
    486e:	0285                	addi	t0,t0,1
    4870:	00081507          	0x81507
    4874:	1700                	addi	s0,sp,928
    4876:	00000433          	add	s0,zero,zero
    487a:	8704                	0x8704
    487c:	1802                	slli	a6,a6,0x20
    487e:	0069                	c.nop	26
    4880:	0000                	unimp
    4882:	1700                	addi	s0,sp,928
    4884:	03f0                	addi	a2,sp,460
    4886:	0000                	unimp
    4888:	8804                	0x8804
    488a:	1202                	slli	tp,tp,0x20
    488c:	05c5                	addi	a1,a1,17
    488e:	0000                	unimp
    4890:	1708                	addi	a0,sp,928
    4892:	000001e3          	beqz	zero,5094 <__stack_align+0x5084>
    4896:	8904                	0x8904
    4898:	1002                	c.slli	zero,0x20
    489a:	0815                	addi	a6,a6,5
    489c:	0000                	unimp
    489e:	1710                	addi	a2,sp,928
    48a0:	0000048b          	0x48b
    48a4:	8a04                	0x8a04
    48a6:	1702                	slli	a4,a4,0x20
    48a8:	01a8                	addi	a0,sp,200
    48aa:	0000                	unimp
    48ac:	172c                	addi	a1,sp,936
    48ae:	0164                	addi	s1,sp,140
    48b0:	0000                	unimp
    48b2:	8b04                	0x8b04
    48b4:	0f02                	c.slli64	t5
    48b6:	00000047          	fmsub.s	ft0,ft0,ft0,ft0,rne
    48ba:	1750                	addi	a2,sp,932
    48bc:	035a                	slli	t1,t1,0x16
    48be:	0000                	unimp
    48c0:	8c04                	0x8c04
    48c2:	2c02                	fld	fs8,0(sp)
    48c4:	0825                	addi	a6,a6,9
    48c6:	0000                	unimp
    48c8:	1758                	addi	a4,sp,932
    48ca:	04a1                	addi	s1,s1,8
    48cc:	0000                	unimp
    48ce:	8d04                	0x8d04
    48d0:	1a02                	slli	s4,s4,0x20
    48d2:	000006b7          	lui	a3,0x0
    48d6:	1760                	addi	s0,sp,940
    48d8:	0365                	addi	t1,t1,25
    48da:	0000                	unimp
    48dc:	8e04                	0x8e04
    48de:	1602                	slli	a2,a2,0x20
    48e0:	0106                	slli	sp,sp,0x1
    48e2:	0000                	unimp
    48e4:	1770                	addi	a2,sp,940
    48e6:	04a6                	slli	s1,s1,0x9
    48e8:	0000                	unimp
    48ea:	8f04                	0x8f04
    48ec:	1602                	slli	a2,a2,0x20
    48ee:	0106                	slli	sp,sp,0x1
    48f0:	0000                	unimp
    48f2:	1778                	addi	a4,sp,940
    48f4:	0088                	addi	a0,sp,64
    48f6:	0000                	unimp
    48f8:	9004                	0x9004
    48fa:	1602                	slli	a2,a2,0x20
    48fc:	0106                	slli	sp,sp,0x1
    48fe:	0000                	unimp
    4900:	1780                	addi	s0,sp,992
    4902:	045e                	slli	s0,s0,0x17
    4904:	0000                	unimp
    4906:	9104                	0x9104
    4908:	1002                	c.slli	zero,0x20
    490a:	082c                	addi	a1,sp,24
    490c:	0000                	unimp
    490e:	1788                	addi	a0,sp,992
    4910:	000001d7          	0x1d7
    4914:	9204                	0x9204
    4916:	1002                	c.slli	zero,0x20
    4918:	083c                	addi	a5,sp,24
    491a:	0000                	unimp
    491c:	1790                	addi	a2,sp,992
    491e:	00000413          	li	s0,0
    4922:	9304                	0x9304
    4924:	0f02                	c.slli64	t5
    4926:	00000047          	fmsub.s	ft0,ft0,ft0,ft0,rne
    492a:	17a8                	addi	a0,sp,1000
    492c:	012a                	slli	sp,sp,0xa
    492e:	0000                	unimp
    4930:	9404                	0x9404
    4932:	1602                	slli	a2,a2,0x20
    4934:	0106                	slli	sp,sp,0x1
    4936:	0000                	unimp
    4938:	17ac                	addi	a1,sp,1000
    493a:	0079                	c.nop	30
    493c:	0000                	unimp
    493e:	9504                	0x9504
    4940:	1602                	slli	a2,a2,0x20
    4942:	0106                	slli	sp,sp,0x1
    4944:	0000                	unimp
    4946:	17b4                	addi	a3,sp,1000
    4948:	0119                	addi	sp,sp,6
    494a:	0000                	unimp
    494c:	9604                	0x9604
    494e:	1602                	slli	a2,a2,0x20
    4950:	0106                	slli	sp,sp,0x1
    4952:	0000                	unimp
    4954:	17bc                	addi	a5,sp,1000
    4956:	0025                	c.nop	9
    4958:	0000                	unimp
    495a:	9704                	0x9704
    495c:	1602                	slli	a2,a2,0x20
    495e:	0106                	slli	sp,sp,0x1
    4960:	0000                	unimp
    4962:	17c4                	addi	s1,sp,996
    4964:	0034                	addi	a3,sp,8
    4966:	0000                	unimp
    4968:	9804                	0x9804
    496a:	1602                	slli	a2,a2,0x20
    496c:	0106                	slli	sp,sp,0x1
    496e:	0000                	unimp
    4970:	17cc                	addi	a1,sp,996
    4972:	00000303          	lb	t1,0(zero) # 0 <__boot_hart>
    4976:	9904                	0x9904
    4978:	0802                	c.slli64	a6
    497a:	00000047          	fmsub.s	ft0,ft0,ft0,ft0,rne
    497e:	00d4                	addi	a3,sp,68
    4980:	cb08                	sw	a0,16(a4)
    4982:	0005                	c.nop	1
    4984:	2500                	fld	fs0,8(a0)
    4986:	0008                	0x8
    4988:	0900                	addi	s0,sp,144
    498a:	0040                	addi	s0,sp,4
    498c:	0000                	unimp
    498e:	0019                	c.nop	6
    4990:	0802                	c.slli64	a6
    4992:	00004507          	flq	fa0,0(zero) # 0 <__boot_hart>
    4996:	0800                	addi	s0,sp,16
    4998:	000005cb          	fnmsub.s	fa1,ft0,ft0,ft0,rne
    499c:	083c                	addi	a5,sp,24
    499e:	0000                	unimp
    49a0:	4009                	c.li	zero,2
    49a2:	0000                	unimp
    49a4:	0700                	addi	s0,sp,896
    49a6:	0800                	addi	s0,sp,16
    49a8:	000005cb          	fnmsub.s	fa1,ft0,ft0,ft0,rne
    49ac:	084c                	addi	a1,sp,20
    49ae:	0000                	unimp
    49b0:	4009                	c.li	zero,2
    49b2:	0000                	unimp
    49b4:	1700                	addi	s0,sp,928
    49b6:	1b00                	addi	s0,sp,432
    49b8:	0168                	addi	a0,sp,140
    49ba:	9e04                	0x9e04
    49bc:	0702                	c.slli64	a4
    49be:	0874                	addi	a3,sp,28
    49c0:	0000                	unimp
    49c2:	0002a617          	auipc	a2,0x2a
    49c6:	0400                	addi	s0,sp,512
    49c8:	02a1                	addi	t0,t0,8
    49ca:	0008741b          	0x8741b
    49ce:	0000                	unimp
    49d0:	00029117          	auipc	sp,0x29
    49d4:	0400                	addi	s0,sp,512
    49d6:	02a2                	slli	t0,t0,0x8
    49d8:	8418                	0x8418
    49da:	0008                	0x8
    49dc:	f000                	sd	s0,32(s0)
    49de:	0800                	addi	s0,sp,16
    49e0:	030a                	slli	t1,t1,0x2
    49e2:	0000                	unimp
    49e4:	0884                	addi	s1,sp,80
    49e6:	0000                	unimp
    49e8:	4009                	c.li	zero,2
    49ea:	0000                	unimp
    49ec:	1d00                	addi	s0,sp,688
    49ee:	0800                	addi	s0,sp,16
    49f0:	0069                	c.nop	26
    49f2:	0000                	unimp
    49f4:	0894                	addi	a3,sp,80
    49f6:	0000                	unimp
    49f8:	4009                	c.li	zero,2
    49fa:	0000                	unimp
    49fc:	1d00                	addi	s0,sp,688
    49fe:	1c00                	addi	s0,sp,560
    4a00:	0168                	addi	a0,sp,140
    4a02:	8304                	0x8304
    4a04:	0302                	c.slli64	t1
    4a06:	08ba                	slli	a7,a7,0xe
    4a08:	0000                	unimp
    4a0a:	af1d                	j	5140 <__stack_align+0x5130>
    4a0c:	04000003          	lb	zero,64(zero) # 40 <__stack_align+0x30>
    4a10:	029a                	slli	t0,t0,0x6
    4a12:	0007000b          	0x7000b
    4a16:	1d00                	addi	s0,sp,688
    4a18:	0478                	addi	a4,sp,524
    4a1a:	0000                	unimp
    4a1c:	a304                	fsd	fs1,0(a4)
    4a1e:	0b02                	c.slli64	s6
    4a20:	084c                	addi	a1,sp,20
    4a22:	0000                	unimp
    4a24:	0800                	addi	s0,sp,16
    4a26:	000005cb          	fnmsub.s	fa1,ft0,ft0,ft0,rne
    4a2a:	08ca                	slli	a7,a7,0x12
    4a2c:	0000                	unimp
    4a2e:	4009                	c.li	zero,2
    4a30:	0000                	unimp
    4a32:	1800                	addi	s0,sp,48
    4a34:	1e00                	addi	s0,sp,816
    4a36:	006e                	c.slli	zero,0x1b
    4a38:	0000                	unimp
    4a3a:	08ca080f          	0x8ca080f
    4a3e:	0000                	unimp
    4a40:	e01f 0008 1400      	0x14000008e01f
    4a46:	0471                	addi	s0,s0,28
    4a48:	0000                	unimp
    4a4a:	0f00                	addi	s0,sp,912
    4a4c:	d508                	sw	a0,40(a0)
    4a4e:	0008                	0x8
    4a50:	0f00                	addi	s0,sp,912
    4a52:	9208                	0x9208
    4a54:	0001                	nop
    4a56:	1f00                	addi	s0,sp,944
    4a58:	000008f7          	0x8f7
    4a5c:	4714                	lw	a3,8(a4)
    4a5e:	0000                	unimp
    4a60:	0000                	unimp
    4a62:	08fd080f          	0x8fd080f
    4a66:	0000                	unimp
    4a68:	08ec080f          	0x8ec080f
    4a6c:	0000                	unimp
    4a6e:	6508                	ld	a0,8(a0)
    4a70:	0006                	c.slli	zero,0x1
    4a72:	1300                	addi	s0,sp,416
    4a74:	0009                	c.nop	2
    4a76:	0900                	addi	s0,sp,144
    4a78:	0040                	addi	s0,sp,4
    4a7a:	0000                	unimp
    4a7c:	0002                	c.slli64	zero
    4a7e:	2720                	fld	fs0,72(a4)
    4a80:	0004                	0x4
    4a82:	0400                	addi	s0,sp,512
    4a84:	71170333          	0x71170333
    4a88:	0004                	0x4
    4a8a:	2000                	fld	fs0,0(s0)
    4a8c:	0420                	addi	s0,sp,520
    4a8e:	0000                	unimp
    4a90:	3404                	fld	fs1,40(s0)
    4a92:	04771d03          	lh	s10,71(a4) # 1d701 <__stack_size+0x15701>
    4a96:	0000                	unimp
    4a98:	a621                	j	4da0 <__stack_align+0x4d90>
    4a9a:	01000007          	0x1000007
    4a9e:	20520603          	lb	a2,517(tp) # 3b833 <__stack_size+0x33833>
    4aa2:	8000                	0x8000
    4aa4:	0000                	unimp
    4aa6:	0000                	unimp
    4aa8:	0030                	addi	a2,sp,8
    4aaa:	0000                	unimp
    4aac:	0000                	unimp
    4aae:	0000                	unimp
    4ab0:	9c01                	subw	s0,s0,s0
    4ab2:	09b5                	addi	s3,s3,13
    4ab4:	0000                	unimp
    4ab6:	8322                	mv	t1,s0
    4ab8:	01000007          	0x1000007
    4abc:	1405                	addi	s0,s0,-31
    4abe:	05c5                	addi	a1,a1,17
    4ac0:	0000                	unimp
    4ac2:	5401                	li	s0,-32
    4ac4:	00075423          	0x75423
    4ac8:	0100                	addi	s0,sp,128
    4aca:	1106                	slli	sp,sp,0x21
    4acc:	09b5                	addi	s3,s3,13
    4ace:	0000                	unimp
    4ad0:	00077523          	0x77523
    4ad4:	0100                	addi	s0,sp,128
    4ad6:	09b51107          	0x9b51107
    4ada:	0000                	unimp
    4adc:	00074723          	0x74723
    4ae0:	0100                	addi	s0,sp,128
    4ae2:	1108                	addi	a0,sp,160
    4ae4:	09b5                	addi	s3,s3,13
    4ae6:	0000                	unimp
    4ae8:	00076223          	0x76223
    4aec:	0100                	addi	s0,sp,128
    4aee:	1109                	addi	sp,sp,-30
    4af0:	09b5                	addi	s3,s3,13
    4af2:	0000                	unimp
    4af4:	6c24                	ld	s1,88(s0)
    4af6:	0020                	addi	s0,sp,8
    4af8:	0080                	addi	s0,sp,64
    4afa:	0000                	unimp
    4afc:	c000                	sw	s0,0(s0)
    4afe:	0009                	c.nop	2
    4b00:	a100                	fsd	fs0,0(a0)
    4b02:	0009                	c.nop	2
    4b04:	2500                	fld	fs0,8(a0)
    4b06:	5a01                	li	s4,-32
    4b08:	7802                	ld	a6,32(sp)
    4b0a:	0000                	unimp
    4b0c:	8226                	mv	tp,s1
    4b0e:	0020                	addi	s0,sp,8
    4b10:	0080                	addi	s0,sp,64
    4b12:	0000                	unimp
    4b14:	cc00                	sw	s0,24(s0)
    4b16:	0009                	c.nop	2
    4b18:	2500                	fld	fs0,8(a0)
    4b1a:	5b01                	li	s6,-32
    4b1c:	3001                	0x3001
    4b1e:	0000                	unimp
    4b20:	cb08                	sw	a0,16(a4)
    4b22:	0005                	c.nop	1
    4b24:	c000                	sw	s0,0(s0)
    4b26:	0009                	c.nop	2
    4b28:	2700                	fld	fs0,8(a4)
    4b2a:	2800                	fld	fs0,16(s0)
    4b2c:	076e                	slli	a4,a4,0x1b
    4b2e:	0000                	unimp
    4b30:	076e                	slli	a4,a4,0x1b
    4b32:	0000                	unimp
    4b34:	1f06                	slli	t5,t5,0x21
    4b36:	2809                	addiw	a6,a6,2
    4b38:	079f 0000 079f      	0x79f0000079f
    4b3e:	0000                	unimp
    4b40:	2106                	fld	ft2,64(sp)
    4b42:	0009                	c.nop	2
    4b44:	0044                	addi	s1,sp,4
    4b46:	0000                	unimp
    4b48:	0004                	0x4
    4b4a:	10c1                	addi	ra,ra,-16
    4b4c:	0000                	unimp
    4b4e:	0108                	addi	a0,sp,128
    4b50:	020d                	addi	tp,tp,3
    4b52:	0000                	unimp
    4b54:	b80c                	fsd	fa1,48(s0)
    4b56:	b9000007          	0xb9000007
    4b5a:	0004                	0x4
    4b5c:	8200                	0x8200
    4b5e:	0020                	addi	s0,sp,8
    4b60:	0080                	addi	s0,sp,64
    4b62:	0000                	unimp
    4b64:	0600                	addi	s0,sp,768
    4b66:	0000                	unimp
    4b68:	0000                	unimp
    4b6a:	0000                	unimp
    4b6c:	e500                	sd	s0,8(a0)
    4b6e:	0014                	0x14
    4b70:	0200                	addi	s0,sp,256
    4b72:	07b1                	addi	a5,a5,12
    4b74:	0000                	unimp
    4b76:	0701                	addi	a4,a4,0
    4b78:	00208227          	0x208227
    4b7c:	0080                	addi	s0,sp,64
    4b7e:	0000                	unimp
    4b80:	0600                	addi	s0,sp,768
    4b82:	0000                	unimp
    4b84:	0000                	unimp
    4b86:	0000                	unimp
    4b88:	0100                	addi	s0,sp,128
    4b8a:	009c                	addi	a5,sp,64
    4b8c:	0374                	addi	a3,sp,396
    4b8e:	0000                	unimp
    4b90:	0004                	0x4
    4b92:	10f2                	slli	ra,ra,0x3c
    4b94:	0000                	unimp
    4b96:	0108                	addi	a0,sp,128
    4b98:	020d                	addi	tp,tp,3
    4b9a:	0000                	unimp
    4b9c:	dc0c                	sw	a1,56(s0)
    4b9e:	b9000007          	0xb9000007
    4ba2:	0004                	0x4
    4ba4:	8800                	0x8800
    4ba6:	0020                	addi	s0,sp,8
    4ba8:	0080                	addi	s0,sp,64
    4baa:	0000                	unimp
    4bac:	4c00                	lw	s0,24(s0)
    4bae:	0000                	unimp
    4bb0:	0000                	unimp
    4bb2:	0000                	unimp
    4bb4:	4c00                	lw	s0,24(s0)
    4bb6:	0015                	c.nop	5
    4bb8:	0200                	addi	s0,sp,256
    4bba:	0601                	addi	a2,a2,0
    4bbc:	02f2                	slli	t0,t0,0x1c
    4bbe:	0000                	unimp
    4bc0:	0102                	c.slli64	sp
    4bc2:	f008                	sd	a0,32(s0)
    4bc4:	0002                	c.slli64	zero
    4bc6:	0200                	addi	s0,sp,256
    4bc8:	0502                	c.slli64	a0
    4bca:	030c                	addi	a1,sp,384
    4bcc:	0000                	unimp
    4bce:	0202                	c.slli64	tp
    4bd0:	0001bb07          	fld	fs6,0(gp) # 80002f00 <__global_pointer$>
    4bd4:	0300                	addi	s0,sp,384
    4bd6:	07d2                	slli	a5,a5,0x14
    4bd8:	0000                	unimp
    4bda:	4d04                	lw	s1,24(a0)
    4bdc:	5518                	lw	a4,40(a0)
    4bde:	0000                	unimp
    4be0:	0400                	addi	s0,sp,512
    4be2:	0504                	addi	s1,sp,640
    4be4:	6e69                	lui	t3,0x1a
    4be6:	0074                	addi	a3,sp,12
    4be8:	0402                	c.slli64	s0
    4bea:	00004f07          	flq	ft10,0(zero) # 0 <__boot_hart>
    4bee:	0200                	addi	s0,sp,256
    4bf0:	0508                	addi	a0,sp,640
    4bf2:	00a4                	addi	s1,sp,72
    4bf4:	0000                	unimp
    4bf6:	0002c903          	lbu	s2,0(t0) # 121632e4 <__stack_size+0x1215b2e4>
    4bfa:	0400                	addi	s0,sp,512
    4bfc:	1969                	addi	s2,s2,-6
    4bfe:	0076                	c.slli	zero,0x1d
    4c00:	0000                	unimp
    4c02:	0802                	c.slli64	a6
    4c04:	00004a07          	flq	fs4,0(zero) # 0 <__boot_hart>
    4c08:	0300                	addi	s0,sp,384
    4c0a:	000006bf 761ae804 	0x761ae804000006bf
    4c12:	0000                	unimp
    4c14:	0300                	addi	s0,sp,384
    4c16:	07d4                	addi	a3,sp,964
    4c18:	0000                	unimp
    4c1a:	2c05                	addiw	s8,s8,1
    4c1c:	00004913          	xori	s2,zero,0
    4c20:	0300                	addi	s0,sp,384
    4c22:	000002cb          	fnmsub.s	ft5,ft0,ft0,ft0,rne
    4c26:	3c05                	addiw	s8,s8,-31
    4c28:	6a14                	ld	a3,16(a2)
    4c2a:	0000                	unimp
    4c2c:	0500                	addi	s0,sp,640
    4c2e:	0095                	addi	ra,ra,5
    4c30:	0000                	unimp
    4c32:	0006c103          	lbu	sp,0(a3) # 0 <__boot_hart>
    4c36:	0500                	addi	s0,sp,640
    4c38:	1552                	slli	a0,a0,0x34
    4c3a:	007d                	c.nop	31
    4c3c:	0000                	unimp
    4c3e:	00080903          	lb	s2,0(a6)
    4c42:	0200                	addi	s0,sp,256
    4c44:	0089111b          	slliw	sp,s2,0x8
    4c48:	0000                	unimp
    4c4a:	b206                	fsd	ft1,288(sp)
    4c4c:	0000                	unimp
    4c4e:	0700                	addi	s0,sp,896
    4c50:	0304                	addi	s1,sp,384
    4c52:	0906                	slli	s2,s2,0x1
    4c54:	00da                	slli	ra,ra,0x16
    4c56:	0000                	unimp
    4c58:	f008                	sd	a0,32(s0)
    4c5a:	03000007          	0x3000007
    4c5e:	00b20e07          	0xb20e07
    4c62:	0000                	unimp
    4c64:	0000                	unimp
    4c66:	0007c703          	lbu	a4,0(a5)
    4c6a:	0300                	addi	s0,sp,384
    4c6c:	0308                	addi	a0,sp,384
    4c6e:	000000c3          	fmadd.s	ft1,ft0,ft0,ft0,rne
    4c72:	bc09                	j	4684 <__stack_align+0x4674>
    4c74:	06000003          	lb	zero,96(zero) # 60 <__stack_align+0x50>
    4c78:	1a06                	slli	s4,s4,0x21
    4c7a:	00a1                	addi	ra,ra,8
    4c7c:	0000                	unimp
    4c7e:	6509                	lui	a0,0x2
    4c80:	0000                	unimp
    4c82:	0600                	addi	s0,sp,768
    4c84:	00a11a07          	0xa11a07
    4c88:	0000                	unimp
    4c8a:	e60a                	sd	sp,264(sp)
    4c8c:	0000                	unimp
    4c8e:	0100                	addi	s0,sp,128
    4c90:	03091307          	0x3091307
    4c94:	2640                	fld	fs0,136(a2)
    4c96:	8000                	0x8000
    4c98:	0000                	unimp
    4c9a:	0000                	unimp
    4c9c:	f20a                	sd	sp,288(sp)
    4c9e:	0000                	unimp
    4ca0:	0100                	addi	s0,sp,128
    4ca2:	1308                	addi	a0,sp,416
    4ca4:	0309                	addi	t1,t1,2
    4ca6:	2648                	fld	fa0,136(a2)
    4ca8:	8000                	0x8000
    4caa:	0000                	unimp
    4cac:	0000                	unimp
    4cae:	0007eb0b          	0x7eb0b
    4cb2:	0100                	addi	s0,sp,128
    4cb4:	130a                	slli	t1,t1,0x22
    4cb6:	00da                	slli	ra,ra,0x16
    4cb8:	0000                	unimp
    4cba:	0309                	addi	t1,t1,2
    4cbc:	2750                	fld	fa2,136(a4)
    4cbe:	8000                	0x8000
    4cc0:	0000                	unimp
    4cc2:	0000                	unimp
    4cc4:	cb0c                	sw	a1,16(a4)
    4cc6:	0006                	c.slli	zero,0x1
    4cc8:	0100                	addi	s0,sp,128
    4cca:	060c                	addi	a1,sp,768
    4ccc:	00000063          	beqz	zero,4ccc <__stack_align+0x4cbc>
    4cd0:	2088                	fld	fa0,0(s1)
    4cd2:	8000                	0x8000
    4cd4:	0000                	unimp
    4cd6:	0000                	unimp
    4cd8:	004c                	addi	a1,sp,4
    4cda:	0000                	unimp
    4cdc:	0000                	unimp
    4cde:	0000                	unimp
    4ce0:	9c01                	subw	s0,s0,s0
    4ce2:	02a6                	slli	t0,t0,0x9
    4ce4:	0000                	unimp
    4ce6:	610d                	addi	sp,sp,160
    4ce8:	0030                	addi	a2,sp,8
    4cea:	0c01                	addi	s8,s8,0
    4cec:	951c                	0x951c
    4cee:	0000                	unimp
    4cf0:	9900                	0x9900
    4cf2:	0004                	0x4
    4cf4:	0e00                	addi	s0,sp,784
    4cf6:	3161                	addiw	sp,sp,-8
    4cf8:	0100                	addi	s0,sp,128
    4cfa:	290c                	fld	fa1,16(a0)
    4cfc:	0095                	addi	ra,ra,5
    4cfe:	0000                	unimp
    4d00:	5b01                	li	s6,-32
    4d02:	610d                	addi	sp,sp,160
    4d04:	0032                	c.slli	zero,0xc
    4d06:	0c01                	addi	s8,s8,0
    4d08:	9536                	add	a0,a0,a3
    4d0a:	0000                	unimp
    4d0c:	d200                	sw	s0,32(a2)
    4d0e:	0004                	0x4
    4d10:	0d00                	addi	s0,sp,656
    4d12:	006e                	c.slli	zero,0x1b
    4d14:	0c01                	addi	s8,s8,0
    4d16:	7648                	ld	a0,168(a2)
    4d18:	0000                	unimp
    4d1a:	1f00                	addi	s0,sp,944
    4d1c:	0005                	c.nop	1
    4d1e:	0f00                	addi	s0,sp,912
    4d20:	7562                	ld	a0,56(sp)
    4d22:	0066                	c.slli	zero,0x19
    4d24:	0e01                	addi	t3,t3,0
    4d26:	0002b617          	auipc	a2,0x2b
    4d2a:	0200                	addi	s0,sp,256
    4d2c:	4091                	li	ra,4
    4d2e:	0063730f          	0x63730f
    4d32:	0f01                	addi	t5,t5,0
    4d34:	950e                	add	a0,a0,gp
    4d36:	0000                	unimp
    4d38:	0100                	addi	s0,sp,128
    4d3a:	105c                	addi	a5,sp,36
    4d3c:	000002db          	0x2db
    4d40:	209e                	fld	ft1,448(sp)
    4d42:	8000                	0x8000
    4d44:	0000                	unimp
    4d46:	0000                	unimp
    4d48:	000e                	c.slli	zero,0x3
    4d4a:	0000                	unimp
    4d4c:	0000                	unimp
    4d4e:	0000                	unimp
    4d50:	1701                	addi	a4,a4,-32
    4d52:	2d05                	addiw	s10,s10,1
    4d54:	0002                	c.slli64	zero
    4d56:	1100                	addi	s0,sp,160
    4d58:	02e8                	addi	a0,sp,332
    4d5a:	0000                	unimp
    4d5c:	0558                	addi	a4,sp,644
    4d5e:	0000                	unimp
    4d60:	1312                	slli	t1,t1,0x24
    4d62:	9e000003          	lb	zero,-1568(zero) # fffffffffffff9e0 <ali3_data.1515+0xffffffff7ffaf7e0>
    4d66:	0020                	addi	s0,sp,8
    4d68:	0080                	addi	s0,sp,64
    4d6a:	0000                	unimp
    4d6c:	0000                	unimp
    4d6e:	0000                	unimp
    4d70:	0300                	addi	s0,sp,384
    4d72:	0e12                	slli	t3,t3,0x4
    4d74:	020a                	slli	tp,tp,0x2
    4d76:	0000                	unimp
    4d78:	2e11                	addiw	t3,t3,4
    4d7a:	84000003          	lb	zero,-1984(zero) # fffffffffffff840 <ali3_data.1515+0xffffffff7ffaf640>
    4d7e:	0005                	c.nop	1
    4d80:	1100                	addi	s0,sp,160
    4d82:	0324                	addi	s1,sp,392
    4d84:	0000                	unimp
    4d86:	05a9                	addi	a1,a1,10
    4d88:	0000                	unimp
    4d8a:	00000013          	nop
    4d8e:	1400                	addi	s0,sp,544
    4d90:	0338                	addi	a4,sp,392
    4d92:	0000                	unimp
    4d94:	0000                	unimp
    4d96:	4315                	li	t1,5
    4d98:	a0000003          	lb	zero,-1536(zero) # fffffffffffffa00 <ali3_data.1515+0xffffffff7ffaf800>
    4d9c:	0020                	addi	s0,sp,8
    4d9e:	0080                	addi	s0,sp,64
    4da0:	0000                	unimp
    4da2:	0400                	addi	s0,sp,512
    4da4:	0000                	unimp
    4da6:	0000                	unimp
    4da8:	0000                	unimp
    4daa:	0300                	addi	s0,sp,384
    4dac:	1010                	addi	a2,sp,32
    4dae:	5411                	li	s0,-28
    4db0:	d5000003          	lb	zero,-688(zero) # fffffffffffffd50 <ali3_data.1515+0xffffffff7ffafb50>
    4db4:	0005                	c.nop	1
    4db6:	0000                	unimp
    4db8:	1600                	addi	s0,sp,800
    4dba:	0365                	addi	t1,t1,25
    4dbc:	0000                	unimp
    4dbe:	20ac                	fld	fa1,64(s1)
    4dc0:	8000                	0x8000
    4dc2:	0000                	unimp
    4dc4:	0000                	unimp
    4dc6:	0004                	0x4
    4dc8:	0000                	unimp
    4dca:	0000                	unimp
    4dcc:	0000                	unimp
    4dce:	1801                	addi	a6,a6,-32
    4dd0:	1005                	c.nop	-31
    4dd2:	000002bb          	addw	t0,zero,zero
    4dd6:	20c6                	fld	ft1,80(sp)
    4dd8:	8000                	0x8000
    4dda:	0000                	unimp
    4ddc:	0000                	unimp
    4dde:	0004                	0x4
    4de0:	0000                	unimp
    4de2:	0000                	unimp
    4de4:	0000                	unimp
    4de6:	1c01                	addi	s8,s8,-32
    4de8:	8d05                	sub	a0,a0,s1
    4dea:	0002                	c.slli64	zero
    4dec:	1100                	addi	s0,sp,160
    4dee:	02c8                	addi	a0,sp,324
    4df0:	0000                	unimp
    4df2:	0601                	addi	a2,a2,0
    4df4:	0000                	unimp
    4df6:	f515                	bnez	a0,4d22 <__stack_align+0x4d12>
    4df8:	0002                	c.slli64	zero
    4dfa:	c600                	sw	s0,8(a2)
    4dfc:	0020                	addi	s0,sp,8
    4dfe:	0080                	addi	s0,sp,64
    4e00:	0000                	unimp
    4e02:	0400                	addi	s0,sp,512
    4e04:	0000                	unimp
    4e06:	0000                	unimp
    4e08:	0000                	unimp
    4e0a:	0300                	addi	s0,sp,384
    4e0c:	02110517          	auipc	a0,0x2110
    4e10:	01000003          	lb	zero,16(zero) # 10 <__stack_align>
    4e14:	0006                	c.slli	zero,0x1
    4e16:	0000                	unimp
    4e18:	1600                	addi	s0,sp,800
    4e1a:	036e                	slli	t1,t1,0x1b
    4e1c:	0000                	unimp
    4e1e:	20ca                	fld	ft1,144(sp)
    4e20:	8000                	0x8000
    4e22:	0000                	unimp
    4e24:	0000                	unimp
    4e26:	0004                	0x4
    4e28:	0000                	unimp
    4e2a:	0000                	unimp
    4e2c:	0000                	unimp
    4e2e:	1e01                	addi	t3,t3,-32
    4e30:	0005                	c.nop	1
    4e32:	0000a117          	auipc	sp,0xa
    4e36:	b600                	fsd	fs0,40(a2)
    4e38:	0002                	c.slli64	zero
    4e3a:	1800                	addi	s0,sp,48
    4e3c:	0076                	c.slli	zero,0x1d
    4e3e:	0000                	unimp
    4e40:	a6050007          	0xa6050007
    4e44:	0002                	c.slli64	zero
    4e46:	1900                	addi	s0,sp,176
    4e48:	0828                	addi	a0,sp,24
    4e4a:	0000                	unimp
    4e4c:	03141503          	lh	a0,49(s0) # 316dd <__stack_size+0x296dd>
    4e50:	02d5                	addi	t0,t0,21
    4e52:	0000                	unimp
    4e54:	f01a                	sd	t1,32(sp)
    4e56:	03000007          	0x3000007
    4e5a:	2c15                	addiw	s8,s8,5
    4e5c:	02d5                	addi	t0,t0,21
    4e5e:	0000                	unimp
    4e60:	1b00                	addi	s0,sp,432
    4e62:	da08                	sw	a0,48(a2)
    4e64:	0000                	unimp
    4e66:	1900                	addi	s0,sp,176
    4e68:	081e                	slli	a6,a6,0x7
    4e6a:	0000                	unimp
    4e6c:	03140c03          	lb	s8,49(s0)
    4e70:	02f5                	addi	t0,t0,29
    4e72:	0000                	unimp
    4e74:	f01a                	sd	t1,32(sp)
    4e76:	03000007          	0x3000007
    4e7a:	2a0c                	fld	fa1,16(a2)
    4e7c:	02d5                	addi	t0,t0,21
    4e7e:	0000                	unimp
    4e80:	1900                	addi	s0,sp,176
    4e82:	0834                	addi	a3,sp,24
    4e84:	0000                	unimp
    4e86:	3c02                	fld	fs8,32(sp)
    4e88:	0314                	addi	a3,sp,384
    4e8a:	030d                	addi	t1,t1,3
    4e8c:	0000                	unimp
    4e8e:	701c                	ld	a5,32(s0)
    4e90:	0200                	addi	s0,sp,256
    4e92:	333c                	fld	fa5,96(a4)
    4e94:	030d                	addi	t1,t1,3
    4e96:	0000                	unimp
    4e98:	1b00                	addi	s0,sp,432
    4e9a:	b208                	fsd	fa0,32(a2)
    4e9c:	0000                	unimp
    4e9e:	1d00                	addi	s0,sp,688
    4ea0:	07f5                	addi	a5,a5,29
    4ea2:	0000                	unimp
    4ea4:	2802                	fld	fa6,0(sp)
    4ea6:	6314                	ld	a3,0(a4)
    4ea8:	0000                	unimp
    4eaa:	0300                	addi	s0,sp,384
    4eac:	00000343          	fmadd.s	ft6,ft0,ft0,ft0,rne
    4eb0:	701c                	ld	a5,32(s0)
    4eb2:	0200                	addi	s0,sp,256
    4eb4:	3228                	fld	fa0,96(a2)
    4eb6:	030d                	addi	t1,t1,3
    4eb8:	0000                	unimp
    4eba:	761c                	ld	a5,40(a2)
    4ebc:	0200                	addi	s0,sp,256
    4ebe:	3e28                	fld	fa0,120(a2)
    4ec0:	00b2                	slli	ra,ra,0xc
    4ec2:	0000                	unimp
    4ec4:	6e1e                	ld	t3,448(sp)
    4ec6:	0200                	addi	s0,sp,256
    4ec8:	0a2a                	slli	s4,s4,0xa
    4eca:	00000063          	beqz	zero,4eca <__stack_align+0x4eba>
    4ece:	1d00                	addi	s0,sp,688
    4ed0:	0812                	slli	a6,a6,0x4
    4ed2:	0000                	unimp
    4ed4:	1d02                	slli	s10,s10,0x20
    4ed6:	6314                	ld	a3,0(a4)
    4ed8:	0000                	unimp
    4eda:	0300                	addi	s0,sp,384
    4edc:	035f 0000 701c      	0x701c0000035f
    4ee2:	0200                	addi	s0,sp,256
    4ee4:	301d                	0x301d
    4ee6:	035f 0000 1b00      	0x1b000000035f
    4eec:	be08                	fsd	fa0,56(a2)
    4eee:	0000                	unimp
    4ef0:	1f00                	addi	s0,sp,944
    4ef2:	00626d77          	0x626d77
    4ef6:	1602                	slli	a2,a2,0x20
    4ef8:	0314                	addi	a3,sp,384
    4efa:	721f 626d 0200      	0x200626d721f
    4f00:	1415                	addi	s0,s0,-27
    4f02:	00e30003          	lb	zero,14(t1) # fffffffffffe100e <ali3_data.1515+0xffffffff7ff90e0e>
    4f06:	0000                	unimp
    4f08:	0004                	0x4
    4f0a:	12bd                	addi	t0,t0,-17
    4f0c:	0000                	unimp
    4f0e:	0108                	addi	a0,sp,128
    4f10:	020d                	addi	tp,tp,3
    4f12:	0000                	unimp
    4f14:	490c                	lw	a1,16(a0)
    4f16:	0008                	0x8
    4f18:	b900                	fsd	fs0,48(a0)
    4f1a:	0004                	0x4
    4f1c:	d400                	sw	s0,40(s0)
    4f1e:	0020                	addi	s0,sp,8
    4f20:	0080                	addi	s0,sp,64
    4f22:	0000                	unimp
    4f24:	2200                	fld	fs0,0(a2)
    4f26:	0000                	unimp
    4f28:	0000                	unimp
    4f2a:	0000                	unimp
    4f2c:	1400                	addi	s0,sp,544
    4f2e:	0018                	0x18
    4f30:	0200                	addi	s0,sp,256
    4f32:	0508                	addi	a0,sp,640
    4f34:	00a4                	addi	s1,sp,72
    4f36:	0000                	unimp
    4f38:	0802                	c.slli64	a6
    4f3a:	00004a07          	flq	fs4,0(zero) # 0 <__boot_hart>
    4f3e:	0300                	addi	s0,sp,384
    4f40:	0504                	addi	s1,sp,640
    4f42:	6e69                	lui	t3,0x1a
    4f44:	0074                	addi	a3,sp,12
    4f46:	0802                	c.slli64	a6
    4f48:	9f05                	subw	a4,a4,s1
    4f4a:	0000                	unimp
    4f4c:	0200                	addi	s0,sp,256
    4f4e:	0410                	addi	a2,sp,512
    4f50:	029a                	slli	t0,t0,0x6
    4f52:	0000                	unimp
    4f54:	0102                	c.slli64	sp
    4f56:	f206                	sd	ra,288(sp)
    4f58:	0002                	c.slli64	zero
    4f5a:	0200                	addi	s0,sp,256
    4f5c:	0801                	addi	a6,a6,0
    4f5e:	02f0                	addi	a2,sp,332
    4f60:	0000                	unimp
    4f62:	0202                	c.slli64	tp
    4f64:	0c05                	addi	s8,s8,1
    4f66:	02000003          	lb	zero,32(zero) # 20 <__stack_align+0x10>
    4f6a:	0702                	c.slli64	a4
    4f6c:	000001bb          	addw	gp,zero,zero
    4f70:	0402                	c.slli64	s0
    4f72:	00004f07          	flq	ft10,0(zero) # 0 <__boot_hart>
    4f76:	0400                	addi	s0,sp,512
    4f78:	02c9                	addi	t0,t0,18
    4f7a:	0000                	unimp
    4f7c:	6902                	ld	s2,0(sp)
    4f7e:	3419                	addiw	s0,s0,-26
    4f80:	0000                	unimp
    4f82:	0400                	addi	s0,sp,512
    4f84:	000002cb          	fnmsub.s	ft5,ft0,ft0,ft0,rne
    4f88:	73143c03          	ld	s8,1841(s0)
    4f8c:	0000                	unimp
    4f8e:	0500                	addi	s0,sp,640
    4f90:	007f                	0x7f
    4f92:	0000                	unimp
    4f94:	0102                	c.slli64	sp
    4f96:	f908                	sd	a0,48(a0)
    4f98:	0002                	c.slli64	zero
    4f9a:	0600                	addi	s0,sp,768
    4f9c:	03bc                	addi	a5,sp,456
    4f9e:	0000                	unimp
    4fa0:	0604                	addi	s1,sp,768
    4fa2:	8b1a                	mv	s6,t1
    4fa4:	0000                	unimp
    4fa6:	0600                	addi	s0,sp,768
    4fa8:	0065                	c.nop	25
    4faa:	0000                	unimp
    4fac:	0704                	addi	s1,sp,896
    4fae:	8b1a                	mv	s6,t1
    4fb0:	0000                	unimp
    4fb2:	0700                	addi	s0,sp,896
    4fb4:	00000727          	0x727
    4fb8:	0401                	addi	s0,s0,0
    4fba:	d421                	beqz	s0,4f02 <__stack_align+0x4ef2>
    4fbc:	0020                	addi	s0,sp,8
    4fbe:	0080                	addi	s0,sp,64
    4fc0:	0000                	unimp
    4fc2:	2200                	fld	fs0,0(a2)
    4fc4:	0000                	unimp
    4fc6:	0000                	unimp
    4fc8:	0000                	unimp
    4fca:	0100                	addi	s0,sp,128
    4fcc:	089c                	addi	a5,sp,80
    4fce:	073d                	addi	a4,a4,15
    4fd0:	0000                	unimp
    4fd2:	0401                	addi	s0,s0,0
    4fd4:	00003b2b          	0x3b2b
    4fd8:	0100                	addi	s0,sp,128
    4fda:	095a                	slli	s2,s2,0x16
    4fdc:	00646d63          	bltu	s0,t1,4ff6 <__stack_align+0x4fe6>
    4fe0:	0601                	addi	a2,a2,0
    4fe2:	7f0e                	ld	t5,224(sp)
    4fe4:	0000                	unimp
    4fe6:	0100                	addi	s0,sp,128
    4fe8:	005f        	0x5f

Disassembly of section .debug_abbrev:

0000000000000000 <.debug_abbrev>:
       0:	1101                	addi	sp,sp,-32
       2:	2501                	sext.w	a0,a0
       4:	130e                	slli	t1,t1,0x23
       6:	1b0e030b          	0x1b0e030b
       a:	110e                	slli	sp,sp,0x23
       c:	1201                	addi	tp,tp,-32
       e:	00171007          	0x171007
      12:	0200                	addi	s0,sp,256
      14:	0024                	addi	s1,sp,8
      16:	0b3e0b0b          	0xb3e0b0b
      1a:	00000803          	lb	a6,0(zero) # 0 <__boot_hart>
      1e:	0b002403          	lw	s0,176(zero) # b0 <__stack_align+0xa0>
      22:	030b3e0b          	0x30b3e0b
      26:	000e                	c.slli	zero,0x3
      28:	0400                	addi	s0,sp,512
      2a:	0016                	c.slli	zero,0x5
      2c:	0b3a0e03          	lb	t3,179(s4) # 428f1 <__stack_size+0x3a8f1>
      30:	0b39053b          	0xb39053b
      34:	1349                	addi	t1,t1,-14
      36:	0000                	unimp
      38:	1605                	addi	a2,a2,-31
      3a:	0300                	addi	s0,sp,384
      3c:	3a0e                	fld	fs4,224(sp)
      3e:	390b3b0b          	0x390b3b0b
      42:	0013490b          	0x13490b
      46:	0600                	addi	s0,sp,768
      48:	0b0b0117          	auipc	sp,0xb0b0
      4c:	0b3a                	slli	s6,s6,0xe
      4e:	0b390b3b          	0xb390b3b
      52:	1301                	addi	t1,t1,-32
      54:	0000                	unimp
      56:	03000d07          	0x3000d07
      5a:	3a0e                	fld	fs4,224(sp)
      5c:	390b3b0b          	0x390b3b0b
      60:	0013490b          	0x13490b
      64:	0800                	addi	s0,sp,16
      66:	0101                	addi	sp,sp,0
      68:	1349                	addi	t1,t1,-14
      6a:	1301                	addi	t1,t1,-32
      6c:	0000                	unimp
      6e:	2109                	addiw	sp,sp,2
      70:	4900                	lw	s0,16(a0)
      72:	000b2f13          	slti	t5,s6,0
      76:	0a00                	addi	s0,sp,272
      78:	0b0b0113          	addi	sp,s6,176 # fffffffffffe10b0 <ali3_data.1515+0xffffffff7ff90eb0>
      7c:	0b3a                	slli	s6,s6,0xe
      7e:	0b390b3b          	0xb390b3b
      82:	1301                	addi	t1,t1,-32
      84:	0000                	unimp
      86:	03000d0b          	0x3000d0b
      8a:	3a0e                	fld	fs4,224(sp)
      8c:	390b3b0b          	0x390b3b0b
      90:	3813490b          	0x3813490b
      94:	0c00000b          	0xc00000b
      98:	0b0b000f          	0xb0b000f
      9c:	0000                	unimp
      9e:	130d                	addi	t1,t1,-29
      a0:	0301                	addi	t1,t1,0
      a2:	0b0e                	slli	s6,s6,0x3
      a4:	3b0b3a0b          	0x3b0b3a0b
      a8:	010b390b          	0x10b390b
      ac:	0e000013          	li	zero,224
      b0:	000d                	c.nop	3
      b2:	0b3a0803          	lb	a6,179(s4)
      b6:	0b390b3b          	0xb390b3b
      ba:	1349                	addi	t1,t1,-14
      bc:	0b38                	addi	a4,sp,408
      be:	0000                	unimp
      c0:	0b000f0f          	0xb000f0f
      c4:	0013490b          	0x13490b
      c8:	1000                	addi	s0,sp,32
      ca:	0e030113          	addi	sp,t1,224
      ce:	0b3a050b          	0xb3a050b
      d2:	0b390b3b          	0xb390b3b
      d6:	1301                	addi	t1,t1,-32
      d8:	0000                	unimp
      da:	0d11                	addi	s10,s10,4
      dc:	0300                	addi	s0,sp,384
      de:	3a0e                	fld	fs4,224(sp)
      e0:	390b3b0b          	0x390b3b0b
      e4:	3813490b          	0x3813490b
      e8:	0005                	c.nop	1
      ea:	1200                	addi	s0,sp,288
      ec:	0015                	c.nop	5
      ee:	00001927          	0x1927
      f2:	27011513          	0x27011513
      f6:	4919                	li	s2,6
      f8:	00130113          	addi	sp,t1,1
      fc:	1400                	addi	s0,sp,544
      fe:	0005                	c.nop	1
     100:	1349                	addi	t1,t1,-14
     102:	0000                	unimp
     104:	2615                	addiw	a2,a2,5
     106:	4900                	lw	s0,16(a0)
     108:	16000013          	li	zero,352
     10c:	0e030113          	addi	sp,t1,224
     110:	0b3a050b          	0xb3a050b
     114:	0b39053b          	0xb39053b
     118:	1301                	addi	t1,t1,-32
     11a:	0000                	unimp
     11c:	03000d17          	auipc	s10,0x3000
     120:	3a0e                	fld	fs4,224(sp)
     122:	39053b0b          	0x39053b0b
     126:	3813490b          	0x3813490b
     12a:	1800000b          	0x1800000b
     12e:	000d                	c.nop	3
     130:	0b3a0e03          	lb	t3,179(s4)
     134:	0b39053b          	0xb39053b
     138:	1349                	addi	t1,t1,-14
     13a:	0538                	addi	a4,sp,648
     13c:	0000                	unimp
     13e:	1319                	addi	t1,t1,-26
     140:	0301                	addi	t1,t1,0
     142:	0b0e                	slli	s6,s6,0x3
     144:	3b0b3a0b          	0x3b0b3a0b
     148:	3905                	addiw	s2,s2,-31
     14a:	0013010b          	0x13010b
     14e:	1a00                	addi	s0,sp,304
     150:	0b0b0113          	addi	sp,s6,176
     154:	0b3a                	slli	s6,s6,0xe
     156:	0b39053b          	0xb39053b
     15a:	1301                	addi	t1,t1,-32
     15c:	0000                	unimp
     15e:	0b01131b          	0xb01131b
     162:	3a05                	addiw	s4,s4,-31
     164:	39053b0b          	0x39053b0b
     168:	0013010b          	0x13010b
     16c:	1c00                	addi	s0,sp,560
     16e:	050b0117          	auipc	sp,0x50b0
     172:	0b3a                	slli	s6,s6,0xe
     174:	0b39053b          	0xb39053b
     178:	1301                	addi	t1,t1,-32
     17a:	0000                	unimp
     17c:	0d1d                	addi	s10,s10,7
     17e:	0300                	addi	s0,sp,384
     180:	3a0e                	fld	fs4,224(sp)
     182:	39053b0b          	0x39053b0b
     186:	0013490b          	0x13490b
     18a:	1e00                	addi	s0,sp,816
     18c:	0e030013          	addi	zero,t1,224
     190:	193c                	addi	a5,sp,184
     192:	0000                	unimp
     194:	151f 2701 0119      	0x1192701151f
     19a:	20000013          	li	zero,512
     19e:	0034                	addi	a3,sp,8
     1a0:	0b3a0e03          	lb	t3,179(s4)
     1a4:	0b39053b          	0xb39053b
     1a8:	1349                	addi	t1,t1,-14
     1aa:	193c193f 21210000 	0x21210000193c193f
     1b2:	0000                	unimp
     1b4:	2200                	fld	fs0,0(a2)
     1b6:	0034                	addi	a3,sp,8
     1b8:	0b3a0e03          	lb	t3,179(s4)
     1bc:	0b390b3b          	0xb390b3b
     1c0:	1349                	addi	t1,t1,-14
     1c2:	193c193f 35230000 	0x35230000193c193f
     1ca:	4900                	lw	s0,16(a0)
     1cc:	24000013          	li	zero,576
     1d0:	012e                	slli	sp,sp,0xb
     1d2:	0e03193f 0b3b0b3a 	0xb3b0b3a0e03193f
     1da:	0b39                	addi	s6,s6,14
     1dc:	13491927          	0x13491927
     1e0:	0111                	addi	sp,sp,4
     1e2:	0712                	slli	a4,a4,0x4
     1e4:	1840                	addi	s0,sp,52
     1e6:	01194297          	auipc	t0,0x1194
     1ea:	25000013          	li	zero,592
     1ee:	0005                	c.nop	1
     1f0:	0b3a0e03          	lb	t3,179(s4)
     1f4:	0b390b3b          	0xb390b3b
     1f8:	1349                	addi	t1,t1,-14
     1fa:	1702                	slli	a4,a4,0x20
     1fc:	0000                	unimp
     1fe:	8926                	mv	s2,s1
     200:	0182                	c.slli64	gp
     202:	1100                	addi	s0,sp,160
     204:	3101                	addiw	sp,sp,-32
     206:	27000013          	li	zero,624
     20a:	002e                	c.slli	zero,0xb
     20c:	193c193f 0e030e6e 	0xe030e6e193c193f
     214:	0b3a                	slli	s6,s6,0xe
     216:	0b390b3b          	0xb390b3b
     21a:	0000                	unimp
     21c:	0100                	addi	s0,sp,128
     21e:	0111                	addi	sp,sp,4
     220:	0e25                	addi	t3,t3,9
     222:	0e030b13          	addi	s6,t1,224
     226:	01110e1b          	addiw	t3,sp,17
     22a:	0712                	slli	a4,a4,0x4
     22c:	1710                	addi	a2,sp,928
     22e:	0000                	unimp
     230:	2402                	fld	fs0,0(sp)
     232:	0b00                	addi	s0,sp,400
     234:	030b3e0b          	0x30b3e0b
     238:	0008                	0x8
     23a:	0300                	addi	s0,sp,384
     23c:	0024                	addi	s1,sp,8
     23e:	0b3e0b0b          	0xb3e0b0b
     242:	00000e03          	lb	t3,0(zero) # 0 <__boot_hart>
     246:	1604                	addi	s1,sp,800
     248:	0300                	addi	s0,sp,384
     24a:	3a0e                	fld	fs4,224(sp)
     24c:	39053b0b          	0x39053b0b
     250:	0013490b          	0x13490b
     254:	0500                	addi	s0,sp,640
     256:	0016                	c.slli	zero,0x5
     258:	0b3a0e03          	lb	t3,179(s4)
     25c:	0b390b3b          	0xb390b3b
     260:	1349                	addi	t1,t1,-14
     262:	0000                	unimp
     264:	1706                	slli	a4,a4,0x21
     266:	0b01                	addi	s6,s6,0
     268:	3b0b3a0b          	0x3b0b3a0b
     26c:	010b390b          	0x10b390b
     270:	07000013          	li	zero,112
     274:	000d                	c.nop	3
     276:	0b3a0e03          	lb	t3,179(s4)
     27a:	0b390b3b          	0xb390b3b
     27e:	1349                	addi	t1,t1,-14
     280:	0000                	unimp
     282:	0108                	addi	a0,sp,128
     284:	4901                	li	s2,0
     286:	00130113          	addi	sp,t1,1
     28a:	0900                	addi	s0,sp,144
     28c:	0021                	c.nop	8
     28e:	1349                	addi	t1,t1,-14
     290:	00000b2f          	0xb2f
     294:	130a                	slli	t1,t1,0x22
     296:	0b01                	addi	s6,s6,0
     298:	3b0b3a0b          	0x3b0b3a0b
     29c:	010b390b          	0x10b390b
     2a0:	0b000013          	li	zero,176
     2a4:	000d                	c.nop	3
     2a6:	0b3a0e03          	lb	t3,179(s4)
     2aa:	0b390b3b          	0xb390b3b
     2ae:	1349                	addi	t1,t1,-14
     2b0:	0b38                	addi	a4,sp,408
     2b2:	0000                	unimp
     2b4:	0f0c                	addi	a1,sp,912
     2b6:	0b00                	addi	s0,sp,400
     2b8:	0d00000b          	0xd00000b
     2bc:	0e030113          	addi	sp,t1,224
     2c0:	0b3a0b0b          	0xb3a0b0b
     2c4:	0b390b3b          	0xb390b3b
     2c8:	1301                	addi	t1,t1,-32
     2ca:	0000                	unimp
     2cc:	0d0e                	slli	s10,s10,0x3
     2ce:	0300                	addi	s0,sp,384
     2d0:	3a08                	fld	fa0,48(a2)
     2d2:	390b3b0b          	0x390b3b0b
     2d6:	3813490b          	0x3813490b
     2da:	0f00000b          	0xf00000b
     2de:	0b0b000f          	0xb0b000f
     2e2:	1349                	addi	t1,t1,-14
     2e4:	0000                	unimp
     2e6:	1310                	addi	a2,sp,416
     2e8:	0301                	addi	t1,t1,0
     2ea:	0b0e                	slli	s6,s6,0x3
     2ec:	3a05                	addiw	s4,s4,-31
     2ee:	390b3b0b          	0x390b3b0b
     2f2:	0013010b          	0x13010b
     2f6:	1100                	addi	s0,sp,160
     2f8:	000d                	c.nop	3
     2fa:	0b3a0e03          	lb	t3,179(s4)
     2fe:	0b390b3b          	0xb390b3b
     302:	1349                	addi	t1,t1,-14
     304:	0538                	addi	a4,sp,648
     306:	0000                	unimp
     308:	1512                	slli	a0,a0,0x24
     30a:	2700                	fld	fs0,8(a4)
     30c:	0019                	c.nop	6
     30e:	1300                	addi	s0,sp,416
     310:	0115                	addi	sp,sp,5
     312:	13491927          	0x13491927
     316:	1301                	addi	t1,t1,-32
     318:	0000                	unimp
     31a:	0514                	addi	a3,sp,640
     31c:	4900                	lw	s0,16(a0)
     31e:	15000013          	li	zero,336
     322:	0026                	c.slli	zero,0x9
     324:	1349                	addi	t1,t1,-14
     326:	0000                	unimp
     328:	1316                	slli	t1,t1,0x25
     32a:	0301                	addi	t1,t1,0
     32c:	0b0e                	slli	s6,s6,0x3
     32e:	3a05                	addiw	s4,s4,-31
     330:	39053b0b          	0x39053b0b
     334:	0013010b          	0x13010b
     338:	1700                	addi	s0,sp,928
     33a:	000d                	c.nop	3
     33c:	0b3a0e03          	lb	t3,179(s4)
     340:	0b39053b          	0xb39053b
     344:	1349                	addi	t1,t1,-14
     346:	0b38                	addi	a4,sp,408
     348:	0000                	unimp
     34a:	0d18                	addi	a4,sp,656
     34c:	0300                	addi	s0,sp,384
     34e:	3a0e                	fld	fs4,224(sp)
     350:	39053b0b          	0x39053b0b
     354:	3813490b          	0x3813490b
     358:	0005                	c.nop	1
     35a:	1900                	addi	s0,sp,176
     35c:	0e030113          	addi	sp,t1,224
     360:	0b3a0b0b          	0xb3a0b0b
     364:	0b39053b          	0xb39053b
     368:	1301                	addi	t1,t1,-32
     36a:	0000                	unimp
     36c:	131a                	slli	t1,t1,0x26
     36e:	0b01                	addi	s6,s6,0
     370:	3b0b3a0b          	0x3b0b3a0b
     374:	3905                	addiw	s2,s2,-31
     376:	0013010b          	0x13010b
     37a:	1b00                	addi	s0,sp,432
     37c:	050b0113          	addi	sp,s6,80
     380:	0b3a                	slli	s6,s6,0xe
     382:	0b39053b          	0xb39053b
     386:	1301                	addi	t1,t1,-32
     388:	0000                	unimp
     38a:	171c                	addi	a5,sp,928
     38c:	0b01                	addi	s6,s6,0
     38e:	3a05                	addiw	s4,s4,-31
     390:	39053b0b          	0x39053b0b
     394:	0013010b          	0x13010b
     398:	1d00                	addi	s0,sp,688
     39a:	000d                	c.nop	3
     39c:	0b3a0e03          	lb	t3,179(s4)
     3a0:	0b39053b          	0xb39053b
     3a4:	1349                	addi	t1,t1,-14
     3a6:	0000                	unimp
     3a8:	131e                	slli	t1,t1,0x27
     3aa:	0300                	addi	s0,sp,384
     3ac:	3c0e                	fld	fs8,224(sp)
     3ae:	0019                	c.nop	6
     3b0:	1f00                	addi	s0,sp,944
     3b2:	0115                	addi	sp,sp,5
     3b4:	13011927          	0x13011927
     3b8:	0000                	unimp
     3ba:	3420                	fld	fs0,104(s0)
     3bc:	0300                	addi	s0,sp,384
     3be:	3a0e                	fld	fs4,224(sp)
     3c0:	39053b0b          	0x39053b0b
     3c4:	3f13490b          	0x3f13490b
     3c8:	3c19                	addiw	s8,s8,-26
     3ca:	0019                	c.nop	6
     3cc:	2100                	fld	fs0,0(a0)
     3ce:	0021                	c.nop	8
     3d0:	0000                	unimp
     3d2:	3422                	fld	fs0,40(sp)
     3d4:	0300                	addi	s0,sp,384
     3d6:	3a0e                	fld	fs4,224(sp)
     3d8:	390b3b0b          	0x390b3b0b
     3dc:	3f13490b          	0x3f13490b
     3e0:	3c19                	addiw	s8,s8,-26
     3e2:	0019                	c.nop	6
     3e4:	2300                	fld	fs0,0(a4)
     3e6:	0035                	c.nop	13
     3e8:	1349                	addi	t1,t1,-14
     3ea:	0000                	unimp
     3ec:	2e24                	fld	fs1,88(a2)
     3ee:	3f01                	addiw	t5,t5,-32
     3f0:	0319                	addi	t1,t1,6
     3f2:	3a0e                	fld	fs4,224(sp)
     3f4:	390b3b0b          	0x390b3b0b
     3f8:	4919270b          	0x4919270b
     3fc:	12011113          	0x12011113
     400:	97184007          	flq	ft0,-1679(a6)
     404:	1942                	slli	s2,s2,0x30
     406:	1301                	addi	t1,t1,-32
     408:	0000                	unimp
     40a:	0525                	addi	a0,a0,9
     40c:	0300                	addi	s0,sp,384
     40e:	3a0e                	fld	fs4,224(sp)
     410:	390b3b0b          	0x390b3b0b
     414:	0213490b          	0x213490b
     418:	26000017          	auipc	zero,0x26000
     41c:	0005                	c.nop	1
     41e:	0b3a0803          	lb	a6,179(s4)
     422:	0b390b3b          	0xb390b3b
     426:	1349                	addi	t1,t1,-14
     428:	1702                	slli	a4,a4,0x20
     42a:	0000                	unimp
     42c:	01828927          	0x1828927
     430:	1100                	addi	s0,sp,160
     432:	3101                	addiw	sp,sp,-32
     434:	28000013          	li	zero,640
     438:	002e                	c.slli	zero,0xb
     43a:	193c193f 0e030e6e 	0xe030e6e193c193f
     442:	0b3a                	slli	s6,s6,0xe
     444:	0b390b3b          	0xb390b3b
     448:	0000                	unimp
     44a:	0100                	addi	s0,sp,128
     44c:	0111                	addi	sp,sp,4
     44e:	0e25                	addi	t3,t3,9
     450:	0e030b13          	addi	s6,t1,224
     454:	01110e1b          	addiw	t3,sp,17
     458:	0712                	slli	a4,a4,0x4
     45a:	1710                	addi	a2,sp,928
     45c:	0000                	unimp
     45e:	2402                	fld	fs0,0(sp)
     460:	0b00                	addi	s0,sp,400
     462:	030b3e0b          	0x30b3e0b
     466:	000e                	c.slli	zero,0x3
     468:	0300                	addi	s0,sp,384
     46a:	0024                	addi	s1,sp,8
     46c:	0b3e0b0b          	0xb3e0b0b
     470:	00000803          	lb	a6,0(zero) # 0 <__boot_hart>
     474:	1604                	addi	s1,sp,800
     476:	0300                	addi	s0,sp,384
     478:	3a0e                	fld	fs4,224(sp)
     47a:	390b3b0b          	0x390b3b0b
     47e:	0013490b          	0x13490b
     482:	0500                	addi	s0,sp,640
     484:	0035                	c.nop	13
     486:	1349                	addi	t1,t1,-14
     488:	0000                	unimp
     48a:	0f06                	slli	t5,t5,0x1
     48c:	0b00                	addi	s0,sp,400
     48e:	0013490b          	0x13490b
     492:	0700                	addi	s0,sp,896
     494:	0034                	addi	a3,sp,8
     496:	0b3a0e03          	lb	t3,179(s4)
     49a:	0b390b3b          	0xb390b3b
     49e:	1349                	addi	t1,t1,-14
     4a0:	193c193f 2e080000 	0x2e080000193c193f
     4a8:	3f01                	addiw	t5,t5,-32
     4aa:	0319                	addi	t1,t1,6
     4ac:	3a0e                	fld	fs4,224(sp)
     4ae:	390b3b0b          	0x390b3b0b
     4b2:	4919270b          	0x4919270b
     4b6:	12011113          	0x12011113
     4ba:	97184007          	flq	ft0,-1679(a6)
     4be:	1942                	slli	s2,s2,0x30
     4c0:	0000                	unimp
     4c2:	0509                	addi	a0,a0,2
     4c4:	0300                	addi	s0,sp,384
     4c6:	3a0e                	fld	fs4,224(sp)
     4c8:	390b3b0b          	0x390b3b0b
     4cc:	0213490b          	0x213490b
     4d0:	00000017          	auipc	zero,0x0
     4d4:	1101                	addi	sp,sp,-32
     4d6:	2501                	sext.w	a0,a0
     4d8:	130e                	slli	t1,t1,0x23
     4da:	1b0e030b          	0x1b0e030b
     4de:	110e                	slli	sp,sp,0x23
     4e0:	1201                	addi	tp,tp,-32
     4e2:	00171007          	0x171007
     4e6:	0200                	addi	s0,sp,256
     4e8:	0024                	addi	s1,sp,8
     4ea:	0b3e0b0b          	0xb3e0b0b
     4ee:	00000803          	lb	a6,0(zero) # 0 <__boot_hart>
     4f2:	0b002403          	lw	s0,176(zero) # b0 <__stack_align+0xa0>
     4f6:	030b3e0b          	0x30b3e0b
     4fa:	000e                	c.slli	zero,0x3
     4fc:	0400                	addi	s0,sp,512
     4fe:	0016                	c.slli	zero,0x5
     500:	0b3a0e03          	lb	t3,179(s4)
     504:	0b39053b          	0xb39053b
     508:	1349                	addi	t1,t1,-14
     50a:	0000                	unimp
     50c:	1605                	addi	a2,a2,-31
     50e:	0300                	addi	s0,sp,384
     510:	3a0e                	fld	fs4,224(sp)
     512:	390b3b0b          	0x390b3b0b
     516:	0013490b          	0x13490b
     51a:	0600                	addi	s0,sp,768
     51c:	0b0b0117          	auipc	sp,0xb0b0
     520:	0b3a                	slli	s6,s6,0xe
     522:	0b390b3b          	0xb390b3b
     526:	1301                	addi	t1,t1,-32
     528:	0000                	unimp
     52a:	03000d07          	0x3000d07
     52e:	3a0e                	fld	fs4,224(sp)
     530:	390b3b0b          	0x390b3b0b
     534:	0013490b          	0x13490b
     538:	0800                	addi	s0,sp,16
     53a:	0101                	addi	sp,sp,0
     53c:	1349                	addi	t1,t1,-14
     53e:	1301                	addi	t1,t1,-32
     540:	0000                	unimp
     542:	2109                	addiw	sp,sp,2
     544:	4900                	lw	s0,16(a0)
     546:	000b2f13          	slti	t5,s6,0
     54a:	0a00                	addi	s0,sp,272
     54c:	0b0b0113          	addi	sp,s6,176
     550:	0b3a                	slli	s6,s6,0xe
     552:	0b390b3b          	0xb390b3b
     556:	1301                	addi	t1,t1,-32
     558:	0000                	unimp
     55a:	03000d0b          	0x3000d0b
     55e:	3a0e                	fld	fs4,224(sp)
     560:	390b3b0b          	0x390b3b0b
     564:	3813490b          	0x3813490b
     568:	0c00000b          	0xc00000b
     56c:	0b0b000f          	0xb0b000f
     570:	0000                	unimp
     572:	130d                	addi	t1,t1,-29
     574:	0301                	addi	t1,t1,0
     576:	0b0e                	slli	s6,s6,0x3
     578:	3b0b3a0b          	0x3b0b3a0b
     57c:	010b390b          	0x10b390b
     580:	0e000013          	li	zero,224
     584:	000d                	c.nop	3
     586:	0b3a0803          	lb	a6,179(s4)
     58a:	0b390b3b          	0xb390b3b
     58e:	1349                	addi	t1,t1,-14
     590:	0b38                	addi	a4,sp,408
     592:	0000                	unimp
     594:	0b000f0f          	0xb000f0f
     598:	0013490b          	0x13490b
     59c:	1000                	addi	s0,sp,32
     59e:	0e030113          	addi	sp,t1,224
     5a2:	0b3a050b          	0xb3a050b
     5a6:	0b390b3b          	0xb390b3b
     5aa:	1301                	addi	t1,t1,-32
     5ac:	0000                	unimp
     5ae:	0d11                	addi	s10,s10,4
     5b0:	0300                	addi	s0,sp,384
     5b2:	3a0e                	fld	fs4,224(sp)
     5b4:	390b3b0b          	0x390b3b0b
     5b8:	3813490b          	0x3813490b
     5bc:	0005                	c.nop	1
     5be:	1200                	addi	s0,sp,288
     5c0:	0015                	c.nop	5
     5c2:	00001927          	0x1927
     5c6:	27011513          	0x27011513
     5ca:	4919                	li	s2,6
     5cc:	00130113          	addi	sp,t1,1
     5d0:	1400                	addi	s0,sp,544
     5d2:	0005                	c.nop	1
     5d4:	1349                	addi	t1,t1,-14
     5d6:	0000                	unimp
     5d8:	2615                	addiw	a2,a2,5
     5da:	4900                	lw	s0,16(a0)
     5dc:	16000013          	li	zero,352
     5e0:	0e030113          	addi	sp,t1,224
     5e4:	0b3a050b          	0xb3a050b
     5e8:	0b39053b          	0xb39053b
     5ec:	1301                	addi	t1,t1,-32
     5ee:	0000                	unimp
     5f0:	03000d17          	auipc	s10,0x3000
     5f4:	3a0e                	fld	fs4,224(sp)
     5f6:	39053b0b          	0x39053b0b
     5fa:	3813490b          	0x3813490b
     5fe:	1800000b          	0x1800000b
     602:	000d                	c.nop	3
     604:	0b3a0e03          	lb	t3,179(s4)
     608:	0b39053b          	0xb39053b
     60c:	1349                	addi	t1,t1,-14
     60e:	0538                	addi	a4,sp,648
     610:	0000                	unimp
     612:	1319                	addi	t1,t1,-26
     614:	0301                	addi	t1,t1,0
     616:	0b0e                	slli	s6,s6,0x3
     618:	3b0b3a0b          	0x3b0b3a0b
     61c:	3905                	addiw	s2,s2,-31
     61e:	0013010b          	0x13010b
     622:	1a00                	addi	s0,sp,304
     624:	0b0b0113          	addi	sp,s6,176
     628:	0b3a                	slli	s6,s6,0xe
     62a:	0b39053b          	0xb39053b
     62e:	1301                	addi	t1,t1,-32
     630:	0000                	unimp
     632:	0b01131b          	0xb01131b
     636:	3a05                	addiw	s4,s4,-31
     638:	39053b0b          	0x39053b0b
     63c:	0013010b          	0x13010b
     640:	1c00                	addi	s0,sp,560
     642:	050b0117          	auipc	sp,0x50b0
     646:	0b3a                	slli	s6,s6,0xe
     648:	0b39053b          	0xb39053b
     64c:	1301                	addi	t1,t1,-32
     64e:	0000                	unimp
     650:	0d1d                	addi	s10,s10,7
     652:	0300                	addi	s0,sp,384
     654:	3a0e                	fld	fs4,224(sp)
     656:	39053b0b          	0x39053b0b
     65a:	0013490b          	0x13490b
     65e:	1e00                	addi	s0,sp,816
     660:	0e030013          	addi	zero,t1,224
     664:	193c                	addi	a5,sp,184
     666:	0000                	unimp
     668:	151f 2701 0119      	0x1192701151f
     66e:	20000013          	li	zero,512
     672:	0034                	addi	a3,sp,8
     674:	0b3a0e03          	lb	t3,179(s4)
     678:	0b39053b          	0xb39053b
     67c:	1349                	addi	t1,t1,-14
     67e:	193c193f 21210000 	0x21210000193c193f
     686:	0000                	unimp
     688:	2200                	fld	fs0,0(a2)
     68a:	0034                	addi	a3,sp,8
     68c:	0b3a0e03          	lb	t3,179(s4)
     690:	0b390b3b          	0xb390b3b
     694:	1349                	addi	t1,t1,-14
     696:	193c193f 35230000 	0x35230000193c193f
     69e:	4900                	lw	s0,16(a0)
     6a0:	24000013          	li	zero,576
     6a4:	012e                	slli	sp,sp,0xb
     6a6:	0e03193f 0b3b0b3a 	0xb3b0b3a0e03193f
     6ae:	0b39                	addi	s6,s6,14
     6b0:	13491927          	0x13491927
     6b4:	0111                	addi	sp,sp,4
     6b6:	0712                	slli	a4,a4,0x4
     6b8:	1840                	addi	s0,sp,52
     6ba:	01194297          	auipc	t0,0x1194
     6be:	25000013          	li	zero,592
     6c2:	0005                	c.nop	1
     6c4:	0b3a0e03          	lb	t3,179(s4)
     6c8:	0b390b3b          	0xb390b3b
     6cc:	1349                	addi	t1,t1,-14
     6ce:	1702                	slli	a4,a4,0x20
     6d0:	0000                	unimp
     6d2:	0526                	slli	a0,a0,0x9
     6d4:	0300                	addi	s0,sp,384
     6d6:	3a08                	fld	fa0,48(a2)
     6d8:	390b3b0b          	0x390b3b0b
     6dc:	0213490b          	0x213490b
     6e0:	27000017          	auipc	zero,0x27000
     6e4:	8289                	srli	a3,a3,0x2
     6e6:	0001                	nop
     6e8:	0111                	addi	sp,sp,4
     6ea:	1331                	addi	t1,t1,-20
     6ec:	0000                	unimp
     6ee:	2e28                	fld	fa0,88(a2)
     6f0:	3f00                	fld	fs0,56(a4)
     6f2:	3c19                	addiw	s8,s8,-26
     6f4:	6e19                	lui	t3,0x6
     6f6:	030e                	slli	t1,t1,0x3
     6f8:	3a0e                	fld	fs4,224(sp)
     6fa:	390b3b0b          	0x390b3b0b
     6fe:	0000000b          	0xb
     702:	1101                	addi	sp,sp,-32
     704:	2501                	sext.w	a0,a0
     706:	130e                	slli	t1,t1,0x23
     708:	1b0e030b          	0x1b0e030b
     70c:	110e                	slli	sp,sp,0x23
     70e:	1201                	addi	tp,tp,-32
     710:	00171007          	0x171007
     714:	0200                	addi	s0,sp,256
     716:	0024                	addi	s1,sp,8
     718:	0b3e0b0b          	0xb3e0b0b
     71c:	00000803          	lb	a6,0(zero) # 0 <__boot_hart>
     720:	0b002403          	lw	s0,176(zero) # b0 <__stack_align+0xa0>
     724:	030b3e0b          	0x30b3e0b
     728:	000e                	c.slli	zero,0x3
     72a:	0400                	addi	s0,sp,512
     72c:	0016                	c.slli	zero,0x5
     72e:	0b3a0e03          	lb	t3,179(s4)
     732:	0b390b3b          	0xb390b3b
     736:	1349                	addi	t1,t1,-14
     738:	0000                	unimp
     73a:	1605                	addi	a2,a2,-31
     73c:	0300                	addi	s0,sp,384
     73e:	3a0e                	fld	fs4,224(sp)
     740:	39053b0b          	0x39053b0b
     744:	0013490b          	0x13490b
     748:	0600                	addi	s0,sp,768
     74a:	0b0b0117          	auipc	sp,0xb0b0
     74e:	0b3a                	slli	s6,s6,0xe
     750:	0b390b3b          	0xb390b3b
     754:	1301                	addi	t1,t1,-32
     756:	0000                	unimp
     758:	03000d07          	0x3000d07
     75c:	3a0e                	fld	fs4,224(sp)
     75e:	390b3b0b          	0x390b3b0b
     762:	0013490b          	0x13490b
     766:	0800                	addi	s0,sp,16
     768:	0101                	addi	sp,sp,0
     76a:	1349                	addi	t1,t1,-14
     76c:	1301                	addi	t1,t1,-32
     76e:	0000                	unimp
     770:	2109                	addiw	sp,sp,2
     772:	4900                	lw	s0,16(a0)
     774:	000b2f13          	slti	t5,s6,0
     778:	0a00                	addi	s0,sp,272
     77a:	0b0b0113          	addi	sp,s6,176
     77e:	0b3a                	slli	s6,s6,0xe
     780:	0b390b3b          	0xb390b3b
     784:	1301                	addi	t1,t1,-32
     786:	0000                	unimp
     788:	03000d0b          	0x3000d0b
     78c:	3a0e                	fld	fs4,224(sp)
     78e:	390b3b0b          	0x390b3b0b
     792:	3813490b          	0x3813490b
     796:	0c00000b          	0xc00000b
     79a:	0b0b000f          	0xb0b000f
     79e:	0000                	unimp
     7a0:	130d                	addi	t1,t1,-29
     7a2:	0301                	addi	t1,t1,0
     7a4:	0b0e                	slli	s6,s6,0x3
     7a6:	3b0b3a0b          	0x3b0b3a0b
     7aa:	010b390b          	0x10b390b
     7ae:	0e000013          	li	zero,224
     7b2:	000d                	c.nop	3
     7b4:	0b3a0803          	lb	a6,179(s4)
     7b8:	0b390b3b          	0xb390b3b
     7bc:	1349                	addi	t1,t1,-14
     7be:	0b38                	addi	a4,sp,408
     7c0:	0000                	unimp
     7c2:	0b000f0f          	0xb000f0f
     7c6:	0013490b          	0x13490b
     7ca:	1000                	addi	s0,sp,32
     7cc:	0e030113          	addi	sp,t1,224
     7d0:	0b3a050b          	0xb3a050b
     7d4:	0b390b3b          	0xb390b3b
     7d8:	1301                	addi	t1,t1,-32
     7da:	0000                	unimp
     7dc:	0d11                	addi	s10,s10,4
     7de:	0300                	addi	s0,sp,384
     7e0:	3a0e                	fld	fs4,224(sp)
     7e2:	390b3b0b          	0x390b3b0b
     7e6:	3813490b          	0x3813490b
     7ea:	0005                	c.nop	1
     7ec:	1200                	addi	s0,sp,288
     7ee:	0015                	c.nop	5
     7f0:	00001927          	0x1927
     7f4:	27011513          	0x27011513
     7f8:	4919                	li	s2,6
     7fa:	00130113          	addi	sp,t1,1
     7fe:	1400                	addi	s0,sp,544
     800:	0005                	c.nop	1
     802:	1349                	addi	t1,t1,-14
     804:	0000                	unimp
     806:	2615                	addiw	a2,a2,5
     808:	4900                	lw	s0,16(a0)
     80a:	16000013          	li	zero,352
     80e:	0e030113          	addi	sp,t1,224
     812:	0b3a050b          	0xb3a050b
     816:	0b39053b          	0xb39053b
     81a:	1301                	addi	t1,t1,-32
     81c:	0000                	unimp
     81e:	03000d17          	auipc	s10,0x3000
     822:	3a0e                	fld	fs4,224(sp)
     824:	39053b0b          	0x39053b0b
     828:	3813490b          	0x3813490b
     82c:	1800000b          	0x1800000b
     830:	000d                	c.nop	3
     832:	0b3a0e03          	lb	t3,179(s4)
     836:	0b39053b          	0xb39053b
     83a:	1349                	addi	t1,t1,-14
     83c:	0538                	addi	a4,sp,648
     83e:	0000                	unimp
     840:	1319                	addi	t1,t1,-26
     842:	0301                	addi	t1,t1,0
     844:	0b0e                	slli	s6,s6,0x3
     846:	3b0b3a0b          	0x3b0b3a0b
     84a:	3905                	addiw	s2,s2,-31
     84c:	0013010b          	0x13010b
     850:	1a00                	addi	s0,sp,304
     852:	0b0b0113          	addi	sp,s6,176
     856:	0b3a                	slli	s6,s6,0xe
     858:	0b39053b          	0xb39053b
     85c:	1301                	addi	t1,t1,-32
     85e:	0000                	unimp
     860:	0b01131b          	0xb01131b
     864:	3a05                	addiw	s4,s4,-31
     866:	39053b0b          	0x39053b0b
     86a:	0013010b          	0x13010b
     86e:	1c00                	addi	s0,sp,560
     870:	050b0117          	auipc	sp,0x50b0
     874:	0b3a                	slli	s6,s6,0xe
     876:	0b39053b          	0xb39053b
     87a:	1301                	addi	t1,t1,-32
     87c:	0000                	unimp
     87e:	0d1d                	addi	s10,s10,7
     880:	0300                	addi	s0,sp,384
     882:	3a0e                	fld	fs4,224(sp)
     884:	39053b0b          	0x39053b0b
     888:	0013490b          	0x13490b
     88c:	1e00                	addi	s0,sp,816
     88e:	0e030013          	addi	zero,t1,224
     892:	193c                	addi	a5,sp,184
     894:	0000                	unimp
     896:	151f 2701 0119      	0x1192701151f
     89c:	20000013          	li	zero,512
     8a0:	0034                	addi	a3,sp,8
     8a2:	0b3a0e03          	lb	t3,179(s4)
     8a6:	0b39053b          	0xb39053b
     8aa:	1349                	addi	t1,t1,-14
     8ac:	193c193f 21210000 	0x21210000193c193f
     8b4:	0000                	unimp
     8b6:	2200                	fld	fs0,0(a2)
     8b8:	0034                	addi	a3,sp,8
     8ba:	0b3a0e03          	lb	t3,179(s4)
     8be:	0b390b3b          	0xb390b3b
     8c2:	1349                	addi	t1,t1,-14
     8c4:	193c193f 35230000 	0x35230000193c193f
     8cc:	4900                	lw	s0,16(a0)
     8ce:	24000013          	li	zero,576
     8d2:	012e                	slli	sp,sp,0xb
     8d4:	0e03193f 0b3b0b3a 	0xb3b0b3a0e03193f
     8dc:	0b39                	addi	s6,s6,14
     8de:	13491927          	0x13491927
     8e2:	0111                	addi	sp,sp,4
     8e4:	0712                	slli	a4,a4,0x4
     8e6:	1840                	addi	s0,sp,52
     8e8:	01194297          	auipc	t0,0x1194
     8ec:	25000013          	li	zero,592
     8f0:	0005                	c.nop	1
     8f2:	0b3a0e03          	lb	t3,179(s4)
     8f6:	0b390b3b          	0xb390b3b
     8fa:	1349                	addi	t1,t1,-14
     8fc:	1702                	slli	a4,a4,0x20
     8fe:	0000                	unimp
     900:	0526                	slli	a0,a0,0x9
     902:	0300                	addi	s0,sp,384
     904:	3a08                	fld	fa0,48(a2)
     906:	390b3b0b          	0x390b3b0b
     90a:	0213490b          	0x213490b
     90e:	27000017          	auipc	zero,0x27000
     912:	8289                	srli	a3,a3,0x2
     914:	0001                	nop
     916:	0111                	addi	sp,sp,4
     918:	1331                	addi	t1,t1,-20
     91a:	0000                	unimp
     91c:	2e28                	fld	fa0,88(a2)
     91e:	3f00                	fld	fs0,56(a4)
     920:	3c19                	addiw	s8,s8,-26
     922:	6e19                	lui	t3,0x6
     924:	030e                	slli	t1,t1,0x3
     926:	3a0e                	fld	fs4,224(sp)
     928:	390b3b0b          	0x390b3b0b
     92c:	0000000b          	0xb
     930:	1101                	addi	sp,sp,-32
     932:	2501                	sext.w	a0,a0
     934:	130e                	slli	t1,t1,0x23
     936:	1b0e030b          	0x1b0e030b
     93a:	110e                	slli	sp,sp,0x23
     93c:	1201                	addi	tp,tp,-32
     93e:	00171007          	0x171007
     942:	0200                	addi	s0,sp,256
     944:	0016                	c.slli	zero,0x5
     946:	0b3a0e03          	lb	t3,179(s4)
     94a:	0b390b3b          	0xb390b3b
     94e:	1349                	addi	t1,t1,-14
     950:	0000                	unimp
     952:	0b002403          	lw	s0,176(zero) # b0 <__stack_align+0xa0>
     956:	030b3e0b          	0x30b3e0b
     95a:	000e                	c.slli	zero,0x3
     95c:	0400                	addi	s0,sp,512
     95e:	0024                	addi	s1,sp,8
     960:	0b3e0b0b          	0xb3e0b0b
     964:	00000803          	lb	a6,0(zero) # 0 <__boot_hart>
     968:	1605                	addi	a2,a2,-31
     96a:	0300                	addi	s0,sp,384
     96c:	3a0e                	fld	fs4,224(sp)
     96e:	39053b0b          	0x39053b0b
     972:	0013490b          	0x13490b
     976:	0600                	addi	s0,sp,768
     978:	0b0b0117          	auipc	sp,0xb0b0
     97c:	0b3a                	slli	s6,s6,0xe
     97e:	0b390b3b          	0xb390b3b
     982:	1301                	addi	t1,t1,-32
     984:	0000                	unimp
     986:	03000d07          	0x3000d07
     98a:	3a0e                	fld	fs4,224(sp)
     98c:	390b3b0b          	0x390b3b0b
     990:	0013490b          	0x13490b
     994:	0800                	addi	s0,sp,16
     996:	0101                	addi	sp,sp,0
     998:	1349                	addi	t1,t1,-14
     99a:	1301                	addi	t1,t1,-32
     99c:	0000                	unimp
     99e:	2109                	addiw	sp,sp,2
     9a0:	4900                	lw	s0,16(a0)
     9a2:	000b2f13          	slti	t5,s6,0
     9a6:	0a00                	addi	s0,sp,272
     9a8:	0b0b0113          	addi	sp,s6,176
     9ac:	0b3a                	slli	s6,s6,0xe
     9ae:	0b390b3b          	0xb390b3b
     9b2:	1301                	addi	t1,t1,-32
     9b4:	0000                	unimp
     9b6:	03000d0b          	0x3000d0b
     9ba:	3a0e                	fld	fs4,224(sp)
     9bc:	390b3b0b          	0x390b3b0b
     9c0:	3813490b          	0x3813490b
     9c4:	0c00000b          	0xc00000b
     9c8:	0b0b000f          	0xb0b000f
     9cc:	0000                	unimp
     9ce:	130d                	addi	t1,t1,-29
     9d0:	0301                	addi	t1,t1,0
     9d2:	0b0e                	slli	s6,s6,0x3
     9d4:	3b0b3a0b          	0x3b0b3a0b
     9d8:	010b390b          	0x10b390b
     9dc:	0e000013          	li	zero,224
     9e0:	000d                	c.nop	3
     9e2:	0b3a0803          	lb	a6,179(s4)
     9e6:	0b390b3b          	0xb390b3b
     9ea:	1349                	addi	t1,t1,-14
     9ec:	0b38                	addi	a4,sp,408
     9ee:	0000                	unimp
     9f0:	0b000f0f          	0xb000f0f
     9f4:	0013490b          	0x13490b
     9f8:	1000                	addi	s0,sp,32
     9fa:	0e030113          	addi	sp,t1,224
     9fe:	0b3a050b          	0xb3a050b
     a02:	0b390b3b          	0xb390b3b
     a06:	1301                	addi	t1,t1,-32
     a08:	0000                	unimp
     a0a:	0d11                	addi	s10,s10,4
     a0c:	0300                	addi	s0,sp,384
     a0e:	3a0e                	fld	fs4,224(sp)
     a10:	390b3b0b          	0x390b3b0b
     a14:	3813490b          	0x3813490b
     a18:	0005                	c.nop	1
     a1a:	1200                	addi	s0,sp,288
     a1c:	0015                	c.nop	5
     a1e:	00001927          	0x1927
     a22:	27011513          	0x27011513
     a26:	4919                	li	s2,6
     a28:	00130113          	addi	sp,t1,1
     a2c:	1400                	addi	s0,sp,544
     a2e:	0005                	c.nop	1
     a30:	1349                	addi	t1,t1,-14
     a32:	0000                	unimp
     a34:	2615                	addiw	a2,a2,5
     a36:	4900                	lw	s0,16(a0)
     a38:	16000013          	li	zero,352
     a3c:	0e030113          	addi	sp,t1,224
     a40:	0b3a050b          	0xb3a050b
     a44:	0b39053b          	0xb39053b
     a48:	1301                	addi	t1,t1,-32
     a4a:	0000                	unimp
     a4c:	03000d17          	auipc	s10,0x3000
     a50:	3a0e                	fld	fs4,224(sp)
     a52:	39053b0b          	0x39053b0b
     a56:	3813490b          	0x3813490b
     a5a:	1800000b          	0x1800000b
     a5e:	000d                	c.nop	3
     a60:	0b3a0e03          	lb	t3,179(s4)
     a64:	0b39053b          	0xb39053b
     a68:	1349                	addi	t1,t1,-14
     a6a:	0538                	addi	a4,sp,648
     a6c:	0000                	unimp
     a6e:	1319                	addi	t1,t1,-26
     a70:	0301                	addi	t1,t1,0
     a72:	0b0e                	slli	s6,s6,0x3
     a74:	3b0b3a0b          	0x3b0b3a0b
     a78:	3905                	addiw	s2,s2,-31
     a7a:	0013010b          	0x13010b
     a7e:	1a00                	addi	s0,sp,304
     a80:	0b0b0113          	addi	sp,s6,176
     a84:	0b3a                	slli	s6,s6,0xe
     a86:	0b39053b          	0xb39053b
     a8a:	1301                	addi	t1,t1,-32
     a8c:	0000                	unimp
     a8e:	0b01131b          	0xb01131b
     a92:	3a05                	addiw	s4,s4,-31
     a94:	39053b0b          	0x39053b0b
     a98:	0013010b          	0x13010b
     a9c:	1c00                	addi	s0,sp,560
     a9e:	050b0117          	auipc	sp,0x50b0
     aa2:	0b3a                	slli	s6,s6,0xe
     aa4:	0b39053b          	0xb39053b
     aa8:	1301                	addi	t1,t1,-32
     aaa:	0000                	unimp
     aac:	0d1d                	addi	s10,s10,7
     aae:	0300                	addi	s0,sp,384
     ab0:	3a0e                	fld	fs4,224(sp)
     ab2:	39053b0b          	0x39053b0b
     ab6:	0013490b          	0x13490b
     aba:	1e00                	addi	s0,sp,816
     abc:	0e030013          	addi	zero,t1,224
     ac0:	193c                	addi	a5,sp,184
     ac2:	0000                	unimp
     ac4:	151f 2701 0119      	0x1192701151f
     aca:	20000013          	li	zero,512
     ace:	0034                	addi	a3,sp,8
     ad0:	0b3a0e03          	lb	t3,179(s4)
     ad4:	0b39053b          	0xb39053b
     ad8:	1349                	addi	t1,t1,-14
     ada:	193c193f 21210000 	0x21210000193c193f
     ae2:	0000                	unimp
     ae4:	2200                	fld	fs0,0(a2)
     ae6:	0034                	addi	a3,sp,8
     ae8:	0b3a0e03          	lb	t3,179(s4)
     aec:	0b390b3b          	0xb390b3b
     af0:	1349                	addi	t1,t1,-14
     af2:	193c193f 35230000 	0x35230000193c193f
     afa:	4900                	lw	s0,16(a0)
     afc:	24000013          	li	zero,576
     b00:	0034                	addi	a3,sp,8
     b02:	0b3a0e03          	lb	t3,179(s4)
     b06:	0b390b3b          	0xb390b3b
     b0a:	1349                	addi	t1,t1,-14
     b0c:	1802                	slli	a6,a6,0x20
     b0e:	0000                	unimp
     b10:	2e25                	addiw	t3,t3,9
     b12:	3f01                	addiw	t5,t5,-32
     b14:	0319                	addi	t1,t1,6
     b16:	3a0e                	fld	fs4,224(sp)
     b18:	390b3b0b          	0x390b3b0b
     b1c:	4919270b          	0x4919270b
     b20:	12011113          	0x12011113
     b24:	97184007          	flq	ft0,-1679(a6)
     b28:	1942                	slli	s2,s2,0x30
     b2a:	1301                	addi	t1,t1,-32
     b2c:	0000                	unimp
     b2e:	0526                	slli	a0,a0,0x9
     b30:	0300                	addi	s0,sp,384
     b32:	3a0e                	fld	fs4,224(sp)
     b34:	390b3b0b          	0x390b3b0b
     b38:	0213490b          	0x213490b
     b3c:	27000017          	auipc	zero,0x27000
     b40:	0034                	addi	a3,sp,8
     b42:	0b3a0e03          	lb	t3,179(s4)
     b46:	0b390b3b          	0xb390b3b
     b4a:	1349                	addi	t1,t1,-14
     b4c:	1702                	slli	a4,a4,0x20
     b4e:	0000                	unimp
     b50:	8928                	0x8928
     b52:	0182                	c.slli64	gp
     b54:	1100                	addi	s0,sp,160
     b56:	3101                	addiw	sp,sp,-32
     b58:	29000013          	li	zero,656
     b5c:	002e                	c.slli	zero,0xb
     b5e:	193c193f 0e030e6e 	0xe030e6e193c193f
     b66:	0b3a                	slli	s6,s6,0xe
     b68:	0b390b3b          	0xb390b3b
     b6c:	0000                	unimp
     b6e:	0100                	addi	s0,sp,128
     b70:	0111                	addi	sp,sp,4
     b72:	0e25                	addi	t3,t3,9
     b74:	0e030b13          	addi	s6,t1,224
     b78:	01110e1b          	addiw	t3,sp,17
     b7c:	0712                	slli	a4,a4,0x4
     b7e:	1710                	addi	a2,sp,928
     b80:	0000                	unimp
     b82:	2402                	fld	fs0,0(sp)
     b84:	0b00                	addi	s0,sp,400
     b86:	030b3e0b          	0x30b3e0b
     b8a:	0008                	0x8
     b8c:	0300                	addi	s0,sp,384
     b8e:	0024                	addi	s1,sp,8
     b90:	0b3e0b0b          	0xb3e0b0b
     b94:	00000e03          	lb	t3,0(zero) # 0 <__boot_hart>
     b98:	1604                	addi	s1,sp,800
     b9a:	0300                	addi	s0,sp,384
     b9c:	3a0e                	fld	fs4,224(sp)
     b9e:	390b3b0b          	0x390b3b0b
     ba2:	0013490b          	0x13490b
     ba6:	0500                	addi	s0,sp,640
     ba8:	0016                	c.slli	zero,0x5
     baa:	0b3a0e03          	lb	t3,179(s4)
     bae:	0b39053b          	0xb39053b
     bb2:	1349                	addi	t1,t1,-14
     bb4:	0000                	unimp
     bb6:	1706                	slli	a4,a4,0x21
     bb8:	0b01                	addi	s6,s6,0
     bba:	3b0b3a0b          	0x3b0b3a0b
     bbe:	010b390b          	0x10b390b
     bc2:	07000013          	li	zero,112
     bc6:	000d                	c.nop	3
     bc8:	0b3a0e03          	lb	t3,179(s4)
     bcc:	0b390b3b          	0xb390b3b
     bd0:	1349                	addi	t1,t1,-14
     bd2:	0000                	unimp
     bd4:	0108                	addi	a0,sp,128
     bd6:	4901                	li	s2,0
     bd8:	00130113          	addi	sp,t1,1
     bdc:	0900                	addi	s0,sp,144
     bde:	0021                	c.nop	8
     be0:	1349                	addi	t1,t1,-14
     be2:	00000b2f          	0xb2f
     be6:	130a                	slli	t1,t1,0x22
     be8:	0b01                	addi	s6,s6,0
     bea:	3b0b3a0b          	0x3b0b3a0b
     bee:	010b390b          	0x10b390b
     bf2:	0b000013          	li	zero,176
     bf6:	000d                	c.nop	3
     bf8:	0b3a0e03          	lb	t3,179(s4)
     bfc:	0b390b3b          	0xb390b3b
     c00:	1349                	addi	t1,t1,-14
     c02:	0b38                	addi	a4,sp,408
     c04:	0000                	unimp
     c06:	0f0c                	addi	a1,sp,912
     c08:	0b00                	addi	s0,sp,400
     c0a:	0d00000b          	0xd00000b
     c0e:	0e030113          	addi	sp,t1,224
     c12:	0b3a0b0b          	0xb3a0b0b
     c16:	0b390b3b          	0xb390b3b
     c1a:	1301                	addi	t1,t1,-32
     c1c:	0000                	unimp
     c1e:	0d0e                	slli	s10,s10,0x3
     c20:	0300                	addi	s0,sp,384
     c22:	3a08                	fld	fa0,48(a2)
     c24:	390b3b0b          	0x390b3b0b
     c28:	3813490b          	0x3813490b
     c2c:	0f00000b          	0xf00000b
     c30:	0b0b000f          	0xb0b000f
     c34:	1349                	addi	t1,t1,-14
     c36:	0000                	unimp
     c38:	1310                	addi	a2,sp,416
     c3a:	0301                	addi	t1,t1,0
     c3c:	0b0e                	slli	s6,s6,0x3
     c3e:	3a05                	addiw	s4,s4,-31
     c40:	390b3b0b          	0x390b3b0b
     c44:	0013010b          	0x13010b
     c48:	1100                	addi	s0,sp,160
     c4a:	000d                	c.nop	3
     c4c:	0b3a0e03          	lb	t3,179(s4)
     c50:	0b390b3b          	0xb390b3b
     c54:	1349                	addi	t1,t1,-14
     c56:	0538                	addi	a4,sp,648
     c58:	0000                	unimp
     c5a:	1512                	slli	a0,a0,0x24
     c5c:	2700                	fld	fs0,8(a4)
     c5e:	0019                	c.nop	6
     c60:	1300                	addi	s0,sp,416
     c62:	0115                	addi	sp,sp,5
     c64:	13491927          	0x13491927
     c68:	1301                	addi	t1,t1,-32
     c6a:	0000                	unimp
     c6c:	0514                	addi	a3,sp,640
     c6e:	4900                	lw	s0,16(a0)
     c70:	15000013          	li	zero,336
     c74:	0026                	c.slli	zero,0x9
     c76:	1349                	addi	t1,t1,-14
     c78:	0000                	unimp
     c7a:	1316                	slli	t1,t1,0x25
     c7c:	0301                	addi	t1,t1,0
     c7e:	0b0e                	slli	s6,s6,0x3
     c80:	3a05                	addiw	s4,s4,-31
     c82:	39053b0b          	0x39053b0b
     c86:	0013010b          	0x13010b
     c8a:	1700                	addi	s0,sp,928
     c8c:	000d                	c.nop	3
     c8e:	0b3a0e03          	lb	t3,179(s4)
     c92:	0b39053b          	0xb39053b
     c96:	1349                	addi	t1,t1,-14
     c98:	0b38                	addi	a4,sp,408
     c9a:	0000                	unimp
     c9c:	0d18                	addi	a4,sp,656
     c9e:	0300                	addi	s0,sp,384
     ca0:	3a0e                	fld	fs4,224(sp)
     ca2:	39053b0b          	0x39053b0b
     ca6:	3813490b          	0x3813490b
     caa:	0005                	c.nop	1
     cac:	1900                	addi	s0,sp,176
     cae:	0e030113          	addi	sp,t1,224
     cb2:	0b3a0b0b          	0xb3a0b0b
     cb6:	0b39053b          	0xb39053b
     cba:	1301                	addi	t1,t1,-32
     cbc:	0000                	unimp
     cbe:	131a                	slli	t1,t1,0x26
     cc0:	0b01                	addi	s6,s6,0
     cc2:	3b0b3a0b          	0x3b0b3a0b
     cc6:	3905                	addiw	s2,s2,-31
     cc8:	0013010b          	0x13010b
     ccc:	1b00                	addi	s0,sp,432
     cce:	050b0113          	addi	sp,s6,80
     cd2:	0b3a                	slli	s6,s6,0xe
     cd4:	0b39053b          	0xb39053b
     cd8:	1301                	addi	t1,t1,-32
     cda:	0000                	unimp
     cdc:	171c                	addi	a5,sp,928
     cde:	0b01                	addi	s6,s6,0
     ce0:	3a05                	addiw	s4,s4,-31
     ce2:	39053b0b          	0x39053b0b
     ce6:	0013010b          	0x13010b
     cea:	1d00                	addi	s0,sp,688
     cec:	000d                	c.nop	3
     cee:	0b3a0e03          	lb	t3,179(s4)
     cf2:	0b39053b          	0xb39053b
     cf6:	1349                	addi	t1,t1,-14
     cf8:	0000                	unimp
     cfa:	131e                	slli	t1,t1,0x27
     cfc:	0300                	addi	s0,sp,384
     cfe:	3c0e                	fld	fs8,224(sp)
     d00:	0019                	c.nop	6
     d02:	1f00                	addi	s0,sp,944
     d04:	0115                	addi	sp,sp,5
     d06:	13011927          	0x13011927
     d0a:	0000                	unimp
     d0c:	3420                	fld	fs0,104(s0)
     d0e:	0300                	addi	s0,sp,384
     d10:	3a0e                	fld	fs4,224(sp)
     d12:	39053b0b          	0x39053b0b
     d16:	3f13490b          	0x3f13490b
     d1a:	3c19                	addiw	s8,s8,-26
     d1c:	0019                	c.nop	6
     d1e:	2100                	fld	fs0,0(a0)
     d20:	0021                	c.nop	8
     d22:	0000                	unimp
     d24:	3422                	fld	fs0,40(sp)
     d26:	0300                	addi	s0,sp,384
     d28:	3a0e                	fld	fs4,224(sp)
     d2a:	390b3b0b          	0x390b3b0b
     d2e:	3f13490b          	0x3f13490b
     d32:	3c19                	addiw	s8,s8,-26
     d34:	0019                	c.nop	6
     d36:	2300                	fld	fs0,0(a4)
     d38:	0035                	c.nop	13
     d3a:	1349                	addi	t1,t1,-14
     d3c:	0000                	unimp
     d3e:	2e24                	fld	fs1,88(a2)
     d40:	3f01                	addiw	t5,t5,-32
     d42:	0319                	addi	t1,t1,6
     d44:	3a0e                	fld	fs4,224(sp)
     d46:	390b3b0b          	0x390b3b0b
     d4a:	4919270b          	0x4919270b
     d4e:	12011113          	0x12011113
     d52:	97184007          	flq	ft0,-1679(a6)
     d56:	1942                	slli	s2,s2,0x30
     d58:	1301                	addi	t1,t1,-32
     d5a:	0000                	unimp
     d5c:	0525                	addi	a0,a0,9
     d5e:	0300                	addi	s0,sp,384
     d60:	3a08                	fld	fa0,48(a2)
     d62:	390b3b0b          	0x390b3b0b
     d66:	0213490b          	0x213490b
     d6a:	26000017          	auipc	zero,0x26000
     d6e:	8289                	srli	a3,a3,0x2
     d70:	0101                	addi	sp,sp,0
     d72:	0111                	addi	sp,sp,4
     d74:	4295                	li	t0,5
     d76:	3119                	addiw	sp,sp,-26
     d78:	27000013          	li	zero,624
     d7c:	828a                	mv	t0,sp
     d7e:	0001                	nop
     d80:	1802                	slli	a6,a6,0x20
     d82:	4291                	li	t0,4
     d84:	0018                	0x18
     d86:	2800                	fld	fs0,16(s0)
     d88:	0026                	c.slli	zero,0x9
     d8a:	0000                	unimp
     d8c:	2e29                	addiw	t3,t3,10
     d8e:	3f00                	fld	fs0,56(a4)
     d90:	3c19                	addiw	s8,s8,-26
     d92:	6e19                	lui	t3,0x6
     d94:	030e                	slli	t1,t1,0x3
     d96:	3a0e                	fld	fs4,224(sp)
     d98:	390b3b0b          	0x390b3b0b
     d9c:	0000000b          	0xb
     da0:	1101                	addi	sp,sp,-32
     da2:	1000                	addi	s0,sp,32
     da4:	1106                	slli	sp,sp,0x21
     da6:	1201                	addi	tp,tp,-32
     da8:	0301                	addi	t1,t1,0
     daa:	1b0e                	slli	s6,s6,0x23
     dac:	250e                	fld	fa0,192(sp)
     dae:	130e                	slli	t1,t1,0x23
     db0:	0005                	c.nop	1
     db2:	0000                	unimp
     db4:	1101                	addi	sp,sp,-32
     db6:	1000                	addi	s0,sp,32
     db8:	1106                	slli	sp,sp,0x21
     dba:	1201                	addi	tp,tp,-32
     dbc:	0301                	addi	t1,t1,0
     dbe:	1b0e                	slli	s6,s6,0x23
     dc0:	250e                	fld	fa0,192(sp)
     dc2:	130e                	slli	t1,t1,0x23
     dc4:	0005                	c.nop	1
     dc6:	0000                	unimp
     dc8:	1101                	addi	sp,sp,-32
     dca:	2501                	sext.w	a0,a0
     dcc:	130e                	slli	t1,t1,0x23
     dce:	1b0e030b          	0x1b0e030b
     dd2:	110e                	slli	sp,sp,0x23
     dd4:	1201                	addi	tp,tp,-32
     dd6:	00171007          	0x171007
     dda:	0200                	addi	s0,sp,256
     ddc:	0024                	addi	s1,sp,8
     dde:	0b3e0b0b          	0xb3e0b0b
     de2:	00000e03          	lb	t3,0(zero) # 0 <__boot_hart>
     de6:	0b002403          	lw	s0,176(zero) # b0 <__stack_align+0xa0>
     dea:	030b3e0b          	0x30b3e0b
     dee:	0008                	0x8
     df0:	0400                	addi	s0,sp,512
     df2:	0016                	c.slli	zero,0x5
     df4:	0b3a0e03          	lb	t3,179(s4)
     df8:	0b390b3b          	0xb390b3b
     dfc:	1349                	addi	t1,t1,-14
     dfe:	0000                	unimp
     e00:	3505                	addiw	a0,a0,-31
     e02:	4900                	lw	s0,16(a0)
     e04:	06000013          	li	zero,96
     e08:	0034                	addi	a3,sp,8
     e0a:	0b3a0e03          	lb	t3,179(s4)
     e0e:	0b390b3b          	0xb390b3b
     e12:	1349                	addi	t1,t1,-14
     e14:	193c193f 2e070000 	0x2e070000193c193f
     e1c:	3f01                	addiw	t5,t5,-32
     e1e:	0319                	addi	t1,t1,6
     e20:	3a0e                	fld	fs4,224(sp)
     e22:	390b3b0b          	0x390b3b0b
     e26:	1119270b          	0x1119270b
     e2a:	1201                	addi	tp,tp,-32
     e2c:	97184007          	flq	ft0,-1679(a6)
     e30:	1942                	slli	s2,s2,0x30
     e32:	1301                	addi	t1,t1,-32
     e34:	0000                	unimp
     e36:	0508                	addi	a0,sp,640
     e38:	0300                	addi	s0,sp,384
     e3a:	3a08                	fld	fa0,48(a2)
     e3c:	390b3b0b          	0x390b3b0b
     e40:	0213490b          	0x213490b
     e44:	09000017          	auipc	zero,0x9000
     e48:	0005                	c.nop	1
     e4a:	0b3a0e03          	lb	t3,179(s4)
     e4e:	0b390b3b          	0xb390b3b
     e52:	1349                	addi	t1,t1,-14
     e54:	1702                	slli	a4,a4,0x20
     e56:	0000                	unimp
     e58:	340a                	fld	fs0,160(sp)
     e5a:	0300                	addi	s0,sp,384
     e5c:	3a0e                	fld	fs4,224(sp)
     e5e:	390b3b0b          	0x390b3b0b
     e62:	0213490b          	0x213490b
     e66:	0b000017          	auipc	zero,0xb000
     e6a:	8289                	srli	a3,a3,0x2
     e6c:	0001                	nop
     e6e:	0111                	addi	sp,sp,4
     e70:	1331                	addi	t1,t1,-20
     e72:	0000                	unimp
     e74:	0f0c                	addi	a1,sp,912
     e76:	0b00                	addi	s0,sp,400
     e78:	0013490b          	0x13490b
     e7c:	0d00                	addi	s0,sp,656
     e7e:	002e                	c.slli	zero,0xb
     e80:	193c193f 0e030e6e 	0xe030e6e193c193f
     e88:	0b3a                	slli	s6,s6,0xe
     e8a:	0b390b3b          	0xb390b3b
     e8e:	0000                	unimp
     e90:	0100                	addi	s0,sp,128
     e92:	0111                	addi	sp,sp,4
     e94:	0e25                	addi	t3,t3,9
     e96:	0e030b13          	addi	s6,t1,224
     e9a:	01110e1b          	addiw	t3,sp,17
     e9e:	0712                	slli	a4,a4,0x4
     ea0:	1710                	addi	a2,sp,928
     ea2:	0000                	unimp
     ea4:	2402                	fld	fs0,0(sp)
     ea6:	0b00                	addi	s0,sp,400
     ea8:	030b3e0b          	0x30b3e0b
     eac:	000e                	c.slli	zero,0x3
     eae:	0300                	addi	s0,sp,384
     eb0:	0016                	c.slli	zero,0x5
     eb2:	0b3a0e03          	lb	t3,179(s4)
     eb6:	0b390b3b          	0xb390b3b
     eba:	1349                	addi	t1,t1,-14
     ebc:	0000                	unimp
     ebe:	2404                	fld	fs1,8(s0)
     ec0:	0b00                	addi	s0,sp,400
     ec2:	030b3e0b          	0x30b3e0b
     ec6:	0008                	0x8
     ec8:	0500                	addi	s0,sp,640
     eca:	0016                	c.slli	zero,0x5
     ecc:	0b3a0e03          	lb	t3,179(s4)
     ed0:	0b39053b          	0xb39053b
     ed4:	1349                	addi	t1,t1,-14
     ed6:	0000                	unimp
     ed8:	1706                	slli	a4,a4,0x21
     eda:	0b01                	addi	s6,s6,0
     edc:	3b0b3a0b          	0x3b0b3a0b
     ee0:	010b390b          	0x10b390b
     ee4:	07000013          	li	zero,112
     ee8:	000d                	c.nop	3
     eea:	0b3a0e03          	lb	t3,179(s4)
     eee:	0b390b3b          	0xb390b3b
     ef2:	1349                	addi	t1,t1,-14
     ef4:	0000                	unimp
     ef6:	0108                	addi	a0,sp,128
     ef8:	4901                	li	s2,0
     efa:	00130113          	addi	sp,t1,1
     efe:	0900                	addi	s0,sp,144
     f00:	0021                	c.nop	8
     f02:	1349                	addi	t1,t1,-14
     f04:	00000b2f          	0xb2f
     f08:	130a                	slli	t1,t1,0x22
     f0a:	0b01                	addi	s6,s6,0
     f0c:	3b0b3a0b          	0x3b0b3a0b
     f10:	010b390b          	0x10b390b
     f14:	0b000013          	li	zero,176
     f18:	000d                	c.nop	3
     f1a:	0b3a0e03          	lb	t3,179(s4)
     f1e:	0b390b3b          	0xb390b3b
     f22:	1349                	addi	t1,t1,-14
     f24:	0b38                	addi	a4,sp,408
     f26:	0000                	unimp
     f28:	0f0c                	addi	a1,sp,912
     f2a:	0b00                	addi	s0,sp,400
     f2c:	0d00000b          	0xd00000b
     f30:	0e030113          	addi	sp,t1,224
     f34:	0b3a0b0b          	0xb3a0b0b
     f38:	0b390b3b          	0xb390b3b
     f3c:	1301                	addi	t1,t1,-32
     f3e:	0000                	unimp
     f40:	0d0e                	slli	s10,s10,0x3
     f42:	0300                	addi	s0,sp,384
     f44:	3a08                	fld	fa0,48(a2)
     f46:	390b3b0b          	0x390b3b0b
     f4a:	3813490b          	0x3813490b
     f4e:	0f00000b          	0xf00000b
     f52:	0b0b000f          	0xb0b000f
     f56:	1349                	addi	t1,t1,-14
     f58:	0000                	unimp
     f5a:	1310                	addi	a2,sp,416
     f5c:	0301                	addi	t1,t1,0
     f5e:	0b0e                	slli	s6,s6,0x3
     f60:	3a05                	addiw	s4,s4,-31
     f62:	390b3b0b          	0x390b3b0b
     f66:	0013010b          	0x13010b
     f6a:	1100                	addi	s0,sp,160
     f6c:	000d                	c.nop	3
     f6e:	0b3a0e03          	lb	t3,179(s4)
     f72:	0b390b3b          	0xb390b3b
     f76:	1349                	addi	t1,t1,-14
     f78:	0538                	addi	a4,sp,648
     f7a:	0000                	unimp
     f7c:	1512                	slli	a0,a0,0x24
     f7e:	2700                	fld	fs0,8(a4)
     f80:	0019                	c.nop	6
     f82:	1300                	addi	s0,sp,416
     f84:	0115                	addi	sp,sp,5
     f86:	13491927          	0x13491927
     f8a:	1301                	addi	t1,t1,-32
     f8c:	0000                	unimp
     f8e:	0514                	addi	a3,sp,640
     f90:	4900                	lw	s0,16(a0)
     f92:	15000013          	li	zero,336
     f96:	0026                	c.slli	zero,0x9
     f98:	1349                	addi	t1,t1,-14
     f9a:	0000                	unimp
     f9c:	1316                	slli	t1,t1,0x25
     f9e:	0301                	addi	t1,t1,0
     fa0:	0b0e                	slli	s6,s6,0x3
     fa2:	3a05                	addiw	s4,s4,-31
     fa4:	39053b0b          	0x39053b0b
     fa8:	0013010b          	0x13010b
     fac:	1700                	addi	s0,sp,928
     fae:	000d                	c.nop	3
     fb0:	0b3a0e03          	lb	t3,179(s4)
     fb4:	0b39053b          	0xb39053b
     fb8:	1349                	addi	t1,t1,-14
     fba:	0b38                	addi	a4,sp,408
     fbc:	0000                	unimp
     fbe:	0d18                	addi	a4,sp,656
     fc0:	0300                	addi	s0,sp,384
     fc2:	3a0e                	fld	fs4,224(sp)
     fc4:	39053b0b          	0x39053b0b
     fc8:	3813490b          	0x3813490b
     fcc:	0005                	c.nop	1
     fce:	1900                	addi	s0,sp,176
     fd0:	0e030113          	addi	sp,t1,224
     fd4:	0b3a0b0b          	0xb3a0b0b
     fd8:	0b39053b          	0xb39053b
     fdc:	1301                	addi	t1,t1,-32
     fde:	0000                	unimp
     fe0:	131a                	slli	t1,t1,0x26
     fe2:	0b01                	addi	s6,s6,0
     fe4:	3b0b3a0b          	0x3b0b3a0b
     fe8:	3905                	addiw	s2,s2,-31
     fea:	0013010b          	0x13010b
     fee:	1b00                	addi	s0,sp,432
     ff0:	050b0113          	addi	sp,s6,80
     ff4:	0b3a                	slli	s6,s6,0xe
     ff6:	0b39053b          	0xb39053b
     ffa:	1301                	addi	t1,t1,-32
     ffc:	0000                	unimp
     ffe:	171c                	addi	a5,sp,928
    1000:	0b01                	addi	s6,s6,0
    1002:	3a05                	addiw	s4,s4,-31
    1004:	39053b0b          	0x39053b0b
    1008:	0013010b          	0x13010b
    100c:	1d00                	addi	s0,sp,688
    100e:	000d                	c.nop	3
    1010:	0b3a0e03          	lb	t3,179(s4)
    1014:	0b39053b          	0xb39053b
    1018:	1349                	addi	t1,t1,-14
    101a:	0000                	unimp
    101c:	131e                	slli	t1,t1,0x27
    101e:	0300                	addi	s0,sp,384
    1020:	3c0e                	fld	fs8,224(sp)
    1022:	0019                	c.nop	6
    1024:	1f00                	addi	s0,sp,944
    1026:	0115                	addi	sp,sp,5
    1028:	13011927          	0x13011927
    102c:	0000                	unimp
    102e:	3420                	fld	fs0,104(s0)
    1030:	0300                	addi	s0,sp,384
    1032:	3a0e                	fld	fs4,224(sp)
    1034:	39053b0b          	0x39053b0b
    1038:	3f13490b          	0x3f13490b
    103c:	3c19                	addiw	s8,s8,-26
    103e:	0019                	c.nop	6
    1040:	2100                	fld	fs0,0(a0)
    1042:	012e                	slli	sp,sp,0xb
    1044:	0e03193f 0b3b0b3a 	0xb3b0b3a0e03193f
    104c:	0b39                	addi	s6,s6,14
    104e:	01111927          	0x1111927
    1052:	0712                	slli	a4,a4,0x4
    1054:	1840                	addi	s0,sp,52
    1056:	01194297          	auipc	t0,0x1194
    105a:	22000013          	li	zero,544
    105e:	0034                	addi	a3,sp,8
    1060:	0b3a0e03          	lb	t3,179(s4)
    1064:	0b390b3b          	0xb390b3b
    1068:	1349                	addi	t1,t1,-14
    106a:	1802                	slli	a6,a6,0x20
    106c:	0000                	unimp
    106e:	03003423          	sd	a6,40(zero) # 28 <__stack_align+0x18>
    1072:	3a0e                	fld	fs4,224(sp)
    1074:	390b3b0b          	0x390b3b0b
    1078:	3f13490b          	0x3f13490b
    107c:	3c19                	addiw	s8,s8,-26
    107e:	0019                	c.nop	6
    1080:	2400                	fld	fs0,8(s0)
    1082:	8289                	srli	a3,a3,0x2
    1084:	0101                	addi	sp,sp,0
    1086:	0111                	addi	sp,sp,4
    1088:	1331                	addi	t1,t1,-20
    108a:	1301                	addi	t1,t1,-32
    108c:	0000                	unimp
    108e:	8a25                	andi	a2,a2,9
    1090:	0182                	c.slli64	gp
    1092:	0200                	addi	s0,sp,256
    1094:	9118                	0x9118
    1096:	1842                	slli	a6,a6,0x30
    1098:	0000                	unimp
    109a:	8926                	mv	s2,s1
    109c:	0182                	c.slli64	gp
    109e:	1101                	addi	sp,sp,-32
    10a0:	9501                	srai	a0,a0,0x20
    10a2:	1942                	slli	s2,s2,0x30
    10a4:	1331                	addi	t1,t1,-20
    10a6:	0000                	unimp
    10a8:	00002127          	fsw	ft0,2(zero) # 2 <__boot_hart+0x2>
    10ac:	2800                	fld	fs0,16(s0)
    10ae:	002e                	c.slli	zero,0xb
    10b0:	193c193f 0e030e6e 	0xe030e6e193c193f
    10b8:	0b3a                	slli	s6,s6,0xe
    10ba:	0b390b3b          	0xb390b3b
    10be:	0000                	unimp
    10c0:	0100                	addi	s0,sp,128
    10c2:	0111                	addi	sp,sp,4
    10c4:	0e25                	addi	t3,t3,9
    10c6:	0e030b13          	addi	s6,t1,224
    10ca:	01110e1b          	addiw	t3,sp,17
    10ce:	0712                	slli	a4,a4,0x4
    10d0:	1710                	addi	a2,sp,928
    10d2:	0000                	unimp
    10d4:	2e02                	fld	ft8,0(sp)
    10d6:	3f00                	fld	fs0,56(a4)
    10d8:	0319                	addi	t1,t1,6
    10da:	3a0e                	fld	fs4,224(sp)
    10dc:	390b3b0b          	0x390b3b0b
    10e0:	8719270b          	0x8719270b
    10e4:	1901                	addi	s2,s2,-32
    10e6:	0111                	addi	sp,sp,4
    10e8:	0712                	slli	a4,a4,0x4
    10ea:	1840                	addi	s0,sp,52
    10ec:	00194297          	auipc	t0,0x194
    10f0:	0000                	unimp
    10f2:	1101                	addi	sp,sp,-32
    10f4:	2501                	sext.w	a0,a0
    10f6:	130e                	slli	t1,t1,0x23
    10f8:	1b0e030b          	0x1b0e030b
    10fc:	110e                	slli	sp,sp,0x23
    10fe:	1201                	addi	tp,tp,-32
    1100:	00171007          	0x171007
    1104:	0200                	addi	s0,sp,256
    1106:	0024                	addi	s1,sp,8
    1108:	0b3e0b0b          	0xb3e0b0b
    110c:	00000e03          	lb	t3,0(zero) # 0 <__boot_hart>
    1110:	03001603          	lh	a2,48(zero) # 30 <__stack_align+0x20>
    1114:	3a0e                	fld	fs4,224(sp)
    1116:	390b3b0b          	0x390b3b0b
    111a:	0013490b          	0x13490b
    111e:	0400                	addi	s0,sp,512
    1120:	0024                	addi	s1,sp,8
    1122:	0b3e0b0b          	0xb3e0b0b
    1126:	00000803          	lb	a6,0(zero) # 0 <__boot_hart>
    112a:	3505                	addiw	a0,a0,-31
    112c:	4900                	lw	s0,16(a0)
    112e:	06000013          	li	zero,96
    1132:	0026                	c.slli	zero,0x9
    1134:	1349                	addi	t1,t1,-14
    1136:	0000                	unimp
    1138:	0b011307          	0xb011307
    113c:	3b0b3a0b          	0x3b0b3a0b
    1140:	010b390b          	0x10b390b
    1144:	08000013          	li	zero,128
    1148:	000d                	c.nop	3
    114a:	0b3a0e03          	lb	t3,179(s4)
    114e:	0b390b3b          	0xb390b3b
    1152:	1349                	addi	t1,t1,-14
    1154:	0b38                	addi	a4,sp,408
    1156:	0000                	unimp
    1158:	3409                	addiw	s0,s0,-30
    115a:	0300                	addi	s0,sp,384
    115c:	3a0e                	fld	fs4,224(sp)
    115e:	390b3b0b          	0x390b3b0b
    1162:	3f13490b          	0x3f13490b
    1166:	3c19                	addiw	s8,s8,-26
    1168:	0019                	c.nop	6
    116a:	0a00                	addi	s0,sp,272
    116c:	0034                	addi	a3,sp,8
    116e:	0b3a1347          	fmsub.d	ft6,fs4,fs3,ft1,rtz
    1172:	0b390b3b          	0xb390b3b
    1176:	1802                	slli	a6,a6,0x20
    1178:	0000                	unimp
    117a:	0300340b          	0x300340b
    117e:	3a0e                	fld	fs4,224(sp)
    1180:	390b3b0b          	0x390b3b0b
    1184:	0213490b          	0x213490b
    1188:	0018                	0x18
    118a:	0c00                	addi	s0,sp,528
    118c:	012e                	slli	sp,sp,0xb
    118e:	0e03193f 0b3b0b3a 	0xb3b0b3a0e03193f
    1196:	0b39                	addi	s6,s6,14
    1198:	13491927          	0x13491927
    119c:	0111                	addi	sp,sp,4
    119e:	0712                	slli	a4,a4,0x4
    11a0:	1840                	addi	s0,sp,52
    11a2:	01194297          	auipc	t0,0x1194
    11a6:	0d000013          	li	zero,208
    11aa:	0005                	c.nop	1
    11ac:	0b3a0803          	lb	a6,179(s4)
    11b0:	0b390b3b          	0xb390b3b
    11b4:	1349                	addi	t1,t1,-14
    11b6:	1702                	slli	a4,a4,0x20
    11b8:	0000                	unimp
    11ba:	050e                	slli	a0,a0,0x3
    11bc:	0300                	addi	s0,sp,384
    11be:	3a08                	fld	fa0,48(a2)
    11c0:	390b3b0b          	0x390b3b0b
    11c4:	0213490b          	0x213490b
    11c8:	0018                	0x18
    11ca:	0f00                	addi	s0,sp,912
    11cc:	0034                	addi	a3,sp,8
    11ce:	0b3a0803          	lb	a6,179(s4)
    11d2:	0b390b3b          	0xb390b3b
    11d6:	1349                	addi	t1,t1,-14
    11d8:	1802                	slli	a6,a6,0x20
    11da:	0000                	unimp
    11dc:	1d10                	addi	a2,sp,688
    11de:	3101                	addiw	sp,sp,-32
    11e0:	12011113          	0x12011113
    11e4:	590b5807          	0x590b5807
    11e8:	010b570b          	0x10b570b
    11ec:	11000013          	li	zero,272
    11f0:	0005                	c.nop	1
    11f2:	1331                	addi	t1,t1,-20
    11f4:	1702                	slli	a4,a4,0x20
    11f6:	0000                	unimp
    11f8:	1d12                	slli	s10,s10,0x24
    11fa:	3101                	addiw	sp,sp,-32
    11fc:	55015213          	0x55015213
    1200:	590b5817          	auipc	a6,0x590b5
    1204:	010b570b          	0x10b570b
    1208:	13000013          	li	zero,304
    120c:	1755010b          	0x1755010b
    1210:	0000                	unimp
    1212:	3414                	fld	fa3,40(s0)
    1214:	3100                	fld	fs0,32(a0)
    1216:	15000013          	li	zero,336
    121a:	011d                	addi	sp,sp,7
    121c:	1331                	addi	t1,t1,-20
    121e:	0111                	addi	sp,sp,4
    1220:	0712                	slli	a4,a4,0x4
    1222:	0b58                	addi	a4,sp,404
    1224:	0b59                	addi	s6,s6,22
    1226:	00000b57          	0xb57
    122a:	1d16                	slli	s10,s10,0x25
    122c:	3100                	fld	fs0,32(a0)
    122e:	12011113          	0x12011113
    1232:	590b5807          	0x590b5807
    1236:	000b570b          	0xb570b
    123a:	1700                	addi	s0,sp,928
    123c:	0101                	addi	sp,sp,0
    123e:	1349                	addi	t1,t1,-14
    1240:	1301                	addi	t1,t1,-32
    1242:	0000                	unimp
    1244:	2118                	fld	fa4,0(a0)
    1246:	4900                	lw	s0,16(a0)
    1248:	000b2f13          	slti	t5,s6,0
    124c:	1900                	addi	s0,sp,176
    124e:	012e                	slli	sp,sp,0xb
    1250:	0b3a0e03          	lb	t3,179(s4)
    1254:	0b390b3b          	0xb390b3b
    1258:	0b201927          	0xb201927
    125c:	1301                	addi	t1,t1,-32
    125e:	0000                	unimp
    1260:	051a                	slli	a0,a0,0x6
    1262:	0300                	addi	s0,sp,384
    1264:	3a0e                	fld	fs4,224(sp)
    1266:	390b3b0b          	0x390b3b0b
    126a:	0013490b          	0x13490b
    126e:	1b00                	addi	s0,sp,432
    1270:	0b0b000f          	0xb0b000f
    1274:	1349                	addi	t1,t1,-14
    1276:	0000                	unimp
    1278:	051c                	addi	a5,sp,640
    127a:	0300                	addi	s0,sp,384
    127c:	3a08                	fld	fa0,48(a2)
    127e:	390b3b0b          	0x390b3b0b
    1282:	0013490b          	0x13490b
    1286:	1d00                	addi	s0,sp,688
    1288:	012e                	slli	sp,sp,0xb
    128a:	0b3a0e03          	lb	t3,179(s4)
    128e:	0b390b3b          	0xb390b3b
    1292:	13491927          	0x13491927
    1296:	0b20                	addi	s0,sp,408
    1298:	1301                	addi	t1,t1,-32
    129a:	0000                	unimp
    129c:	341e                	fld	fs0,480(sp)
    129e:	0300                	addi	s0,sp,384
    12a0:	3a08                	fld	fa0,48(a2)
    12a2:	390b3b0b          	0x390b3b0b
    12a6:	0013490b          	0x13490b
    12aa:	1f00                	addi	s0,sp,944
    12ac:	002e                	c.slli	zero,0xb
    12ae:	0b3a0803          	lb	a6,179(s4)
    12b2:	0b390b3b          	0xb390b3b
    12b6:	0b201927          	0xb201927
    12ba:	0000                	unimp
    12bc:	0100                	addi	s0,sp,128
    12be:	0111                	addi	sp,sp,4
    12c0:	0e25                	addi	t3,t3,9
    12c2:	0e030b13          	addi	s6,t1,224
    12c6:	01110e1b          	addiw	t3,sp,17
    12ca:	0712                	slli	a4,a4,0x4
    12cc:	1710                	addi	a2,sp,928
    12ce:	0000                	unimp
    12d0:	2402                	fld	fs0,0(sp)
    12d2:	0b00                	addi	s0,sp,400
    12d4:	030b3e0b          	0x30b3e0b
    12d8:	000e                	c.slli	zero,0x3
    12da:	0300                	addi	s0,sp,384
    12dc:	0024                	addi	s1,sp,8
    12de:	0b3e0b0b          	0xb3e0b0b
    12e2:	00000803          	lb	a6,0(zero) # 0 <__boot_hart>
    12e6:	1604                	addi	s1,sp,800
    12e8:	0300                	addi	s0,sp,384
    12ea:	3a0e                	fld	fs4,224(sp)
    12ec:	390b3b0b          	0x390b3b0b
    12f0:	0013490b          	0x13490b
    12f4:	0500                	addi	s0,sp,640
    12f6:	0035                	c.nop	13
    12f8:	1349                	addi	t1,t1,-14
    12fa:	0000                	unimp
    12fc:	3406                	fld	fs0,96(sp)
    12fe:	0300                	addi	s0,sp,384
    1300:	3a0e                	fld	fs4,224(sp)
    1302:	390b3b0b          	0x390b3b0b
    1306:	3f13490b          	0x3f13490b
    130a:	3c19                	addiw	s8,s8,-26
    130c:	0019                	c.nop	6
    130e:	0700                	addi	s0,sp,896
    1310:	012e                	slli	sp,sp,0xb
    1312:	0e03193f 0b3b0b3a 	0xb3b0b3a0e03193f
    131a:	0b39                	addi	s6,s6,14
    131c:	01871927          	0x1871927
    1320:	1119                	addi	sp,sp,-26
    1322:	1201                	addi	tp,tp,-32
    1324:	97184007          	flq	ft0,-1679(a6) # 590b5b71 <__stack_size+0x590adb71>
    1328:	1942                	slli	s2,s2,0x30
    132a:	0000                	unimp
    132c:	0508                	addi	a0,sp,640
    132e:	0300                	addi	s0,sp,384
    1330:	3a0e                	fld	fs4,224(sp)
    1332:	390b3b0b          	0x390b3b0b
    1336:	0213490b          	0x213490b
    133a:	0018                	0x18
    133c:	0900                	addi	s0,sp,144
    133e:	0034                	addi	a3,sp,8
    1340:	0b3a0803          	lb	a6,179(s4)
    1344:	0b390b3b          	0xb390b3b
    1348:	1349                	addi	t1,t1,-14
    134a:	1802                	slli	a6,a6,0x20
    134c:	0000                	unimp
	...

Disassembly of section .debug_loc:

0000000000000000 <.debug_loc>:
	...
   8:	00000007          	0x7
   c:	0000                	unimp
   e:	0000                	unimp
  10:	0001                	nop
  12:	075a                	slli	a4,a4,0x16
  14:	0000                	unimp
  16:	0000                	unimp
  18:	0000                	unimp
  1a:	1400                	addi	s0,sp,544
  1c:	0000                	unimp
  1e:	0000                	unimp
  20:	0000                	unimp
  22:	0400                	addi	s0,sp,512
  24:	f300                	sd	s0,32(a4)
  26:	5a01                	li	s4,-32
  28:	009f 0000 0000      	0x9f
	...
  3e:	0000                	unimp
  40:	0700                	addi	s0,sp,896
  42:	0000                	unimp
  44:	0000                	unimp
  46:	0000                	unimp
  48:	0100                	addi	s0,sp,128
  4a:	5a00                	lw	s0,48(a2)
  4c:	00000007          	0x7
  50:	0000                	unimp
  52:	0000                	unimp
  54:	0014                	0x14
  56:	0000                	unimp
  58:	0000                	unimp
  5a:	0000                	unimp
  5c:	0004                	0x4
  5e:	9f5a01f3          	0x9f5a01f3
	...
  7a:	00000007          	0x7
  7e:	0000                	unimp
  80:	0000                	unimp
  82:	0001                	nop
  84:	0000075b          	0x75b
  88:	0000                	unimp
  8a:	0000                	unimp
  8c:	1400                	addi	s0,sp,544
  8e:	0000                	unimp
  90:	0000                	unimp
  92:	0000                	unimp
  94:	0400                	addi	s0,sp,512
  96:	f300                	sd	s0,32(a4)
  98:	5b01                	li	s6,-32
  9a:	009f 0000 0000      	0x9f
	...
  b0:	0000                	unimp
  b2:	0200                	addi	s0,sp,256
  b4:	0000                	unimp
  b6:	0000                	unimp
  b8:	0000                	unimp
  ba:	0100                	addi	s0,sp,128
  bc:	5a00                	lw	s0,48(a2)
  be:	0002                	c.slli64	zero
  c0:	0000                	unimp
  c2:	0000                	unimp
  c4:	0000                	unimp
  c6:	0008                	0x8
  c8:	0000                	unimp
  ca:	0000                	unimp
  cc:	0000                	unimp
  ce:	0004                	0x4
  d0:	9f5a01f3          	0x9f5a01f3
	...
  ec:	00000007          	0x7
  f0:	0000                	unimp
  f2:	0000                	unimp
  f4:	0001                	nop
  f6:	075a                	slli	a4,a4,0x16
  f8:	0000                	unimp
  fa:	0000                	unimp
  fc:	0000                	unimp
  fe:	1400                	addi	s0,sp,544
 100:	0000                	unimp
 102:	0000                	unimp
 104:	0000                	unimp
 106:	0400                	addi	s0,sp,512
 108:	f300                	sd	s0,32(a4)
 10a:	5a01                	li	s4,-32
 10c:	009f 0000 0000      	0x9f
	...
 122:	0000                	unimp
 124:	0700                	addi	s0,sp,896
 126:	0000                	unimp
 128:	0000                	unimp
 12a:	0000                	unimp
 12c:	0100                	addi	s0,sp,128
 12e:	5b00                	lw	s0,48(a4)
 130:	00000007          	0x7
 134:	0000                	unimp
 136:	0000                	unimp
 138:	0014                	0x14
 13a:	0000                	unimp
 13c:	0000                	unimp
 13e:	0000                	unimp
 140:	0004                	0x4
 142:	9f5b01f3          	0x9f5b01f3
	...
 15e:	00000007          	0x7
 162:	0000                	unimp
 164:	0000                	unimp
 166:	0001                	nop
 168:	075c                	addi	a5,sp,900
 16a:	0000                	unimp
 16c:	0000                	unimp
 16e:	0000                	unimp
 170:	1400                	addi	s0,sp,544
 172:	0000                	unimp
 174:	0000                	unimp
 176:	0000                	unimp
 178:	0400                	addi	s0,sp,512
 17a:	f300                	sd	s0,32(a4)
 17c:	5c01                	li	s8,-32
 17e:	009f 0000 0000      	0x9f
	...
 194:	0000                	unimp
 196:	0700                	addi	s0,sp,896
 198:	0000                	unimp
 19a:	0000                	unimp
 19c:	0000                	unimp
 19e:	0100                	addi	s0,sp,128
 1a0:	5a00                	lw	s0,48(a2)
 1a2:	00000007          	0x7
 1a6:	0000                	unimp
 1a8:	0000                	unimp
 1aa:	0016                	c.slli	zero,0x5
 1ac:	0000                	unimp
 1ae:	0000                	unimp
 1b0:	0000                	unimp
 1b2:	0004                	0x4
 1b4:	9f5a01f3          	0x9f5a01f3
	...
 1d0:	00000007          	0x7
 1d4:	0000                	unimp
 1d6:	0000                	unimp
 1d8:	0001                	nop
 1da:	0000075b          	0x75b
 1de:	0000                	unimp
 1e0:	0000                	unimp
 1e2:	1600                	addi	s0,sp,800
 1e4:	0000                	unimp
 1e6:	0000                	unimp
 1e8:	0000                	unimp
 1ea:	0400                	addi	s0,sp,512
 1ec:	f300                	sd	s0,32(a4)
 1ee:	5b01                	li	s6,-32
 1f0:	009f 0000 0000      	0x9f
	...
 206:	0000                	unimp
 208:	0700                	addi	s0,sp,896
 20a:	0000                	unimp
 20c:	0000                	unimp
 20e:	0000                	unimp
 210:	0100                	addi	s0,sp,128
 212:	5c00                	lw	s0,56(s0)
 214:	00000007          	0x7
 218:	0000                	unimp
 21a:	0000                	unimp
 21c:	0016                	c.slli	zero,0x5
 21e:	0000                	unimp
 220:	0000                	unimp
 222:	0000                	unimp
 224:	0004                	0x4
 226:	9f5c01f3          	0x9f5c01f3
	...
 242:	0010                	0x10
 244:	0000                	unimp
 246:	0000                	unimp
 248:	0000                	unimp
 24a:	0001                	nop
 24c:	105a                	c.slli	zero,0x36
 24e:	0000                	unimp
 250:	0000                	unimp
 252:	0000                	unimp
 254:	3c00                	fld	fs0,56(s0)
 256:	0000                	unimp
 258:	0000                	unimp
 25a:	0000                	unimp
 25c:	0400                	addi	s0,sp,512
 25e:	f300                	sd	s0,32(a4)
 260:	5a01                	li	s4,-32
 262:	009f 0000 0000      	0x9f
	...
 270:	0000                	unimp
 272:	1000                	addi	s0,sp,32
 274:	0000                	unimp
 276:	0000                	unimp
 278:	0000                	unimp
 27a:	2400                	fld	fs0,8(s0)
 27c:	0000                	unimp
 27e:	0000                	unimp
 280:	0000                	unimp
 282:	0100                	addi	s0,sp,128
 284:	5a00                	lw	s0,48(a2)
 286:	0024                	addi	s1,sp,8
 288:	0000                	unimp
 28a:	0000                	unimp
 28c:	0000                	unimp
 28e:	0026                	c.slli	zero,0x9
 290:	0000                	unimp
 292:	0000                	unimp
 294:	0000                	unimp
 296:	0009                	c.nop	2
 298:	00270803          	lb	a6,2(a4)
 29c:	0080                	addi	s0,sp,64
 29e:	0000                	unimp
 2a0:	2600                	fld	fs0,8(a2)
 2a2:	0000                	unimp
 2a4:	0000                	unimp
 2a6:	0000                	unimp
 2a8:	2d00                	fld	fs0,24(a0)
 2aa:	0000                	unimp
 2ac:	0000                	unimp
 2ae:	0000                	unimp
 2b0:	0100                	addi	s0,sp,128
 2b2:	5a00                	lw	s0,48(a2)
	...
 2c4:	000a                	c.slli	zero,0x2
 2c6:	0000                	unimp
 2c8:	0000                	unimp
 2ca:	0000                	unimp
 2cc:	002d                	c.nop	11
 2ce:	0000                	unimp
 2d0:	0000                	unimp
 2d2:	0000                	unimp
 2d4:	0001                	nop
 2d6:	005f 0000 0000      	0x5f
	...
 2ec:	0000                	unimp
 2ee:	0500                	addi	s0,sp,640
 2f0:	0000                	unimp
 2f2:	0000                	unimp
 2f4:	0000                	unimp
 2f6:	0100                	addi	s0,sp,128
 2f8:	5a00                	lw	s0,48(a2)
 2fa:	0005                	c.nop	1
 2fc:	0000                	unimp
 2fe:	0000                	unimp
 300:	0000                	unimp
 302:	0006                	c.slli	zero,0x1
 304:	0000                	unimp
 306:	0000                	unimp
 308:	0000                	unimp
 30a:	0004                	0x4
 30c:	9f5a01f3          	0x9f5a01f3
	...
 328:	0005                	c.nop	1
 32a:	0000                	unimp
 32c:	0000                	unimp
 32e:	0000                	unimp
 330:	0001                	nop
 332:	0000055b          	0x55b
 336:	0000                	unimp
 338:	0000                	unimp
 33a:	0600                	addi	s0,sp,768
 33c:	0000                	unimp
 33e:	0000                	unimp
 340:	0000                	unimp
 342:	0400                	addi	s0,sp,512
 344:	f300                	sd	s0,32(a4)
 346:	5b01                	li	s6,-32
 348:	009f 0000 0000      	0x9f
	...
 35e:	0000                	unimp
 360:	0500                	addi	s0,sp,640
 362:	0000                	unimp
 364:	0000                	unimp
 366:	0000                	unimp
 368:	0100                	addi	s0,sp,128
 36a:	5c00                	lw	s0,56(s0)
 36c:	0005                	c.nop	1
 36e:	0000                	unimp
 370:	0000                	unimp
 372:	0000                	unimp
 374:	0006                	c.slli	zero,0x1
 376:	0000                	unimp
 378:	0000                	unimp
 37a:	0000                	unimp
 37c:	0004                	0x4
 37e:	9f5c01f3          	0x9f5c01f3
	...
 39a:	0006                	c.slli	zero,0x1
 39c:	0000                	unimp
 39e:	0000                	unimp
 3a0:	0000                	unimp
 3a2:	0001                	nop
 3a4:	065a                	slli	a2,a2,0x16
 3a6:	0000                	unimp
 3a8:	0000                	unimp
 3aa:	0000                	unimp
 3ac:	1600                	addi	s0,sp,800
 3ae:	0000                	unimp
 3b0:	0000                	unimp
 3b2:	0000                	unimp
 3b4:	0400                	addi	s0,sp,512
 3b6:	f300                	sd	s0,32(a4)
 3b8:	5a01                	li	s4,-32
 3ba:	009f 0000 0000      	0x9f
	...
 3d0:	0000                	unimp
 3d2:	1500                	addi	s0,sp,672
 3d4:	0000                	unimp
 3d6:	0000                	unimp
 3d8:	0000                	unimp
 3da:	0100                	addi	s0,sp,128
 3dc:	5b00                	lw	s0,48(a4)
 3de:	0015                	c.nop	5
 3e0:	0000                	unimp
 3e2:	0000                	unimp
 3e4:	0000                	unimp
 3e6:	0016                	c.slli	zero,0x5
 3e8:	0000                	unimp
 3ea:	0000                	unimp
 3ec:	0000                	unimp
 3ee:	0004                	0x4
 3f0:	9f5b01f3          	0x9f5b01f3
	...
 40c:	0015                	c.nop	5
 40e:	0000                	unimp
 410:	0000                	unimp
 412:	0000                	unimp
 414:	0001                	nop
 416:	155c                	addi	a5,sp,676
 418:	0000                	unimp
 41a:	0000                	unimp
 41c:	0000                	unimp
 41e:	1600                	addi	s0,sp,800
 420:	0000                	unimp
 422:	0000                	unimp
 424:	0000                	unimp
 426:	0400                	addi	s0,sp,512
 428:	f300                	sd	s0,32(a4)
 42a:	5c01                	li	s8,-32
 42c:	009f 0000 0000      	0x9f
	...
 442:	0000                	unimp
 444:	1500                	addi	s0,sp,672
 446:	0000                	unimp
 448:	0000                	unimp
 44a:	0000                	unimp
 44c:	0100                	addi	s0,sp,128
 44e:	5d00                	lw	s0,56(a0)
 450:	0015                	c.nop	5
 452:	0000                	unimp
 454:	0000                	unimp
 456:	0000                	unimp
 458:	0016                	c.slli	zero,0x5
 45a:	0000                	unimp
 45c:	0000                	unimp
 45e:	0000                	unimp
 460:	0004                	0x4
 462:	9f5d01f3          	0x9f5d01f3
	...
 476:	000a                	c.slli	zero,0x2
 478:	0000                	unimp
 47a:	0000                	unimp
 47c:	0000                	unimp
 47e:	0015                	c.nop	5
 480:	0000                	unimp
 482:	0000                	unimp
 484:	0000                	unimp
 486:	0001                	nop
 488:	005a                	c.slli	zero,0x16
	...
 49e:	0000                	unimp
 4a0:	4800                	lw	s0,16(s0)
 4a2:	0000                	unimp
 4a4:	0000                	unimp
 4a6:	0000                	unimp
 4a8:	0100                	addi	s0,sp,128
 4aa:	5a00                	lw	s0,48(a2)
 4ac:	0048                	addi	a0,sp,4
 4ae:	0000                	unimp
 4b0:	0000                	unimp
 4b2:	0000                	unimp
 4b4:	004c                	addi	a1,sp,4
 4b6:	0000                	unimp
 4b8:	0000                	unimp
 4ba:	0000                	unimp
 4bc:	0004                	0x4
 4be:	9f5a01f3          	0x9f5a01f3
	...
 4da:	0010                	0x10
 4dc:	0000                	unimp
 4de:	0000                	unimp
 4e0:	0000                	unimp
 4e2:	0001                	nop
 4e4:	105c                	addi	a5,sp,36
 4e6:	0000                	unimp
 4e8:	0000                	unimp
 4ea:	0000                	unimp
 4ec:	3200                	fld	fs0,32(a2)
 4ee:	0000                	unimp
 4f0:	0000                	unimp
 4f2:	0000                	unimp
 4f4:	0200                	addi	s0,sp,256
 4f6:	9100                	0x9100
 4f8:	3258                	fld	fa4,160(a2)
 4fa:	0000                	unimp
 4fc:	0000                	unimp
 4fe:	0000                	unimp
 500:	4c00                	lw	s0,24(s0)
 502:	0000                	unimp
 504:	0000                	unimp
 506:	0000                	unimp
 508:	0400                	addi	s0,sp,512
 50a:	f300                	sd	s0,32(a4)
 50c:	5c01                	li	s8,-32
 50e:	009f 0000 0000      	0x9f
	...
 524:	0000                	unimp
 526:	1800                	addi	s0,sp,48
 528:	0000                	unimp
 52a:	0000                	unimp
 52c:	0000                	unimp
 52e:	0100                	addi	s0,sp,128
 530:	5d00                	lw	s0,56(a0)
 532:	0018                	0x18
 534:	0000                	unimp
 536:	0000                	unimp
 538:	0000                	unimp
 53a:	004c                	addi	a1,sp,4
 53c:	0000                	unimp
 53e:	0000                	unimp
 540:	0000                	unimp
 542:	0004                	0x4
 544:	9f5d01f3          	0x9f5d01f3
	...
 558:	0012                	c.slli	zero,0x4
 55a:	0000                	unimp
 55c:	0000                	unimp
 55e:	0000                	unimp
 560:	0024                	addi	s1,sp,8
 562:	0000                	unimp
 564:	0000                	unimp
 566:	0000                	unimp
 568:	000a                	c.slli	zero,0x2
 56a:	00275003          	lhu	zero,2(a4)
 56e:	0080                	addi	s0,sp,64
 570:	0000                	unimp
 572:	9f00                	0x9f00
	...
 584:	001e                	c.slli	zero,0x7
 586:	0000                	unimp
 588:	0000                	unimp
 58a:	0000                	unimp
 58c:	0022                	c.slli	zero,0x8
 58e:	0000                	unimp
 590:	0000                	unimp
 592:	0000                	unimp
 594:	ff090003          	lb	zero,-16(s2) # 1b680 <__stack_size+0x13680>
 598:	009f 0000 0000      	0x9f
	...
 5a6:	0000                	unimp
 5a8:	1e00                	addi	s0,sp,816
 5aa:	0000                	unimp
 5ac:	0000                	unimp
 5ae:	0000                	unimp
 5b0:	2200                	fld	fs0,0(a2)
 5b2:	0000                	unimp
 5b4:	0000                	unimp
 5b6:	0000                	unimp
 5b8:	0a00                	addi	s0,sp,272
 5ba:	0300                	addi	s0,sp,384
 5bc:	2750                	fld	fa2,136(a4)
 5be:	8000                	0x8000
 5c0:	0000                	unimp
 5c2:	0000                	unimp
 5c4:	009f 0000 0000      	0x9f
	...
 5d2:	0000                	unimp
 5d4:	1800                	addi	s0,sp,48
 5d6:	0000                	unimp
 5d8:	0000                	unimp
 5da:	0000                	unimp
 5dc:	1c00                	addi	s0,sp,560
 5de:	0000                	unimp
 5e0:	0000                	unimp
 5e2:	0000                	unimp
 5e4:	0a00                	addi	s0,sp,272
 5e6:	0300                	addi	s0,sp,384
 5e8:	2750                	fld	fa2,136(a4)
 5ea:	8000                	0x8000
 5ec:	0000                	unimp
 5ee:	0000                	unimp
 5f0:	009f 0000 0000      	0x9f
	...
 5fe:	0000                	unimp
 600:	3e00                	fld	fs0,56(a2)
 602:	0000                	unimp
 604:	0000                	unimp
 606:	0000                	unimp
 608:	4200                	lw	s0,0(a2)
 60a:	0000                	unimp
 60c:	0000                	unimp
 60e:	0000                	unimp
 610:	0a00                	addi	s0,sp,272
 612:	0300                	addi	s0,sp,384
 614:	2750                	fld	fa2,136(a4)
 616:	8000                	0x8000
 618:	0000                	unimp
 61a:	0000                	unimp
 61c:	009f 0000 0000      	0x9f
	...

Disassembly of section .debug_aranges:

0000000000000000 <.debug_aranges>:
   0:	002c                	addi	a1,sp,8
   2:	0000                	unimp
   4:	0002                	c.slli64	zero
   6:	0000                	unimp
   8:	0000                	unimp
   a:	0008                	0x8
   c:	0000                	unimp
   e:	0000                	unimp
  10:	1fa0                	addi	s0,sp,1016
  12:	8000                	0x8000
  14:	0000                	unimp
  16:	0000                	unimp
  18:	0014                	0x14
	...
  2e:	0000                	unimp
  30:	002c                	addi	a1,sp,8
  32:	0000                	unimp
  34:	0002                	c.slli64	zero
  36:	09d0                	addi	a2,sp,212
  38:	0000                	unimp
  3a:	0008                	0x8
  3c:	0000                	unimp
  3e:	0000                	unimp
  40:	1fb4                	addi	a3,sp,1016
  42:	8000                	0x8000
  44:	0000                	unimp
  46:	0000                	unimp
  48:	0014                	0x14
	...
  5e:	0000                	unimp
  60:	002c                	addi	a1,sp,8
  62:	0000                	unimp
  64:	0002                	c.slli64	zero
  66:	15a0                	addi	s0,sp,744
  68:	0000                	unimp
  6a:	0008                	0x8
  6c:	0000                	unimp
  6e:	0000                	unimp
  70:	1fc8                	addi	a0,sp,1012
  72:	8000                	0x8000
  74:	0000                	unimp
  76:	0000                	unimp
  78:	0008                	0x8
	...
  8e:	0000                	unimp
  90:	002c                	addi	a1,sp,8
  92:	0000                	unimp
  94:	0002                	c.slli64	zero
  96:	000016d3          	fadd.s	fa3,ft0,ft0,rtz
  9a:	0008                	0x8
  9c:	0000                	unimp
  9e:	0000                	unimp
  a0:	1fd0                	addi	a2,sp,1012
  a2:	8000                	0x8000
  a4:	0000                	unimp
  a6:	0000                	unimp
  a8:	0014                	0x14
	...
  be:	0000                	unimp
  c0:	002c                	addi	a1,sp,8
  c2:	0000                	unimp
  c4:	0002                	c.slli64	zero
  c6:	000020db          	0x20db
  ca:	0008                	0x8
  cc:	0000                	unimp
  ce:	0000                	unimp
  d0:	1fe4                	addi	s1,sp,1020
  d2:	8000                	0x8000
  d4:	0000                	unimp
  d6:	0000                	unimp
  d8:	0016                	c.slli	zero,0x5
	...
  ee:	0000                	unimp
  f0:	002c                	addi	a1,sp,8
  f2:	0000                	unimp
  f4:	0002                	c.slli64	zero
  f6:	00002ae3          	0x2ae3
  fa:	0008                	0x8
  fc:	0000                	unimp
  fe:	0000                	unimp
 100:	1ffa                	slli	t6,t6,0x3e
 102:	8000                	0x8000
 104:	0000                	unimp
 106:	0000                	unimp
 108:	003c                	addi	a5,sp,8
	...
 11e:	0000                	unimp
 120:	002c                	addi	a1,sp,8
 122:	0000                	unimp
 124:	0002                	c.slli64	zero
 126:	3518                	fld	fa4,40(a0)
 128:	0000                	unimp
 12a:	0008                	0x8
 12c:	0000                	unimp
 12e:	0000                	unimp
 130:	2036                	fld	ft0,328(sp)
 132:	8000                	0x8000
 134:	0000                	unimp
 136:	0000                	unimp
 138:	0006                	c.slli	zero,0x1
	...
 14e:	0000                	unimp
 150:	002c                	addi	a1,sp,8
 152:	0000                	unimp
 154:	0002                	c.slli64	zero
 156:	3fa1                	addiw	t6,t6,-24
 158:	0000                	unimp
 15a:	0008                	0x8
 15c:	0000                	unimp
 15e:	0000                	unimp
 160:	0000                	unimp
 162:	8000                	0x8000
 164:	0000                	unimp
 166:	0000                	unimp
 168:	01ec                	addi	a1,sp,204
	...
 17e:	0000                	unimp
 180:	002c                	addi	a1,sp,8
 182:	0000                	unimp
 184:	0002                	c.slli64	zero
 186:	00003fcf          	fnmadd.s	ft11,ft0,ft0,ft0,rup
 18a:	0008                	0x8
 18c:	0000                	unimp
 18e:	0000                	unimp
 190:	01ee                	slli	gp,gp,0x1b
 192:	8000                	0x8000
 194:	0000                	unimp
 196:	0000                	unimp
 198:	0042                	c.slli	zero,0x10
	...
 1ae:	0000                	unimp
 1b0:	002c                	addi	a1,sp,8
 1b2:	0000                	unimp
 1b4:	0002                	c.slli64	zero
 1b6:	3ffd                	addiw	t6,t6,-1
 1b8:	0000                	unimp
 1ba:	0008                	0x8
 1bc:	0000                	unimp
 1be:	0000                	unimp
 1c0:	203c                	fld	fa5,64(s0)
 1c2:	8000                	0x8000
 1c4:	0000                	unimp
 1c6:	0000                	unimp
 1c8:	0016                	c.slli	zero,0x5
	...
 1de:	0000                	unimp
 1e0:	002c                	addi	a1,sp,8
 1e2:	0000                	unimp
 1e4:	0002                	c.slli64	zero
 1e6:	0000416b          	0x416b
 1ea:	0008                	0x8
 1ec:	0000                	unimp
 1ee:	0000                	unimp
 1f0:	2052                	fld	ft0,272(sp)
 1f2:	8000                	0x8000
 1f4:	0000                	unimp
 1f6:	0000                	unimp
 1f8:	0030                	addi	a2,sp,8
	...
 20e:	0000                	unimp
 210:	002c                	addi	a1,sp,8
 212:	0000                	unimp
 214:	0002                	c.slli64	zero
 216:	4b44                	lw	s1,20(a4)
 218:	0000                	unimp
 21a:	0008                	0x8
 21c:	0000                	unimp
 21e:	0000                	unimp
 220:	2082                	fld	ft1,0(sp)
 222:	8000                	0x8000
 224:	0000                	unimp
 226:	0000                	unimp
 228:	0006                	c.slli	zero,0x1
	...
 23e:	0000                	unimp
 240:	002c                	addi	a1,sp,8
 242:	0000                	unimp
 244:	0002                	c.slli64	zero
 246:	4b8c                	lw	a1,16(a5)
 248:	0000                	unimp
 24a:	0008                	0x8
 24c:	0000                	unimp
 24e:	0000                	unimp
 250:	2088                	fld	fa0,0(s1)
 252:	8000                	0x8000
 254:	0000                	unimp
 256:	0000                	unimp
 258:	004c                	addi	a1,sp,4
	...
 26e:	0000                	unimp
 270:	002c                	addi	a1,sp,8
 272:	0000                	unimp
 274:	0002                	c.slli64	zero
 276:	4f04                	lw	s1,24(a4)
 278:	0000                	unimp
 27a:	0008                	0x8
 27c:	0000                	unimp
 27e:	0000                	unimp
 280:	20d4                	fld	fa3,128(s1)
 282:	8000                	0x8000
 284:	0000                	unimp
 286:	0000                	unimp
 288:	0022                	c.slli	zero,0x8
	...

Disassembly of section .debug_line:

0000000000000000 <.debug_line>:
       0:	01da                	slli	gp,gp,0x16
       2:	0000                	unimp
       4:	01850003          	lb	zero,24(a0) # 2114e24 <__stack_size+0x210ce24>
       8:	0000                	unimp
       a:	0101                	addi	sp,sp,0
       c:	000d0efb          	0xd0efb
      10:	0101                	addi	sp,sp,0
      12:	0101                	addi	sp,sp,0
      14:	0000                	unimp
      16:	0100                	addi	s0,sp,128
      18:	0000                	unimp
      1a:	2e01                	sext.w	t3,t3
      1c:	2f2e                	fld	ft10,200(sp)
      1e:	00737973          	csrrci	s2,0x7,6
      22:	6d6f682f          	0x6d6f682f
      26:	2f65                	addiw	t5,t5,25
      28:	6170                	ld	a2,192(a0)
      2a:	6c6c                	ld	a1,216(s0)
      2c:	6461                	lui	s0,0x18
      2e:	6f69                	lui	t5,0x1a
      30:	6968632f          	0x6968632f
      34:	7970                	ld	a2,240(a0)
      36:	7261                	lui	tp,0xffff8
      38:	2f64                	fld	fs1,216(a4)
      3a:	6972                	ld	s2,280(sp)
      3c:	2d766373          	csrrsi	t1,0x2d7,12
      40:	6f74                	ld	a3,216(a4)
      42:	2d736c6f          	jal	s8,36b18 <__stack_size+0x2eb18>
      46:	6e69                	lui	t3,0x1a
      48:	6c617473          	csrrci	s0,0x6c6,2
      4c:	2f6c                	fld	fa1,216(a4)
      4e:	696c                	ld	a1,208(a0)
      50:	2f62                	fld	ft10,24(sp)
      52:	2f636367          	0x2f636367
      56:	6972                	ld	s2,280(sp)
      58:	36766373          	csrrsi	t1,0x367,12
      5c:	2d34                	fld	fa3,88(a0)
      5e:	6e75                	lui	t3,0x1d
      60:	776f6e6b          	0x776f6e6b
      64:	2d6e                	fld	fs10,216(sp)
      66:	6c65                	lui	s8,0x19
      68:	2f66                	fld	ft10,88(sp)
      6a:	2e39                	addiw	t3,t3,14
      6c:	2e32                	fld	ft8,264(sp)
      6e:	2f30                	fld	fa2,88(a4)
      70:	6e69                	lui	t3,0x1a
      72:	64756c63          	bltu	a0,t2,6ca <__stack_align+0x6ba>
      76:	0065                	c.nop	25
      78:	6d6f682f          	0x6d6f682f
      7c:	2f65                	addiw	t5,t5,25
      7e:	6170                	ld	a2,192(a0)
      80:	6c6c                	ld	a1,216(s0)
      82:	6461                	lui	s0,0x18
      84:	6f69                	lui	t5,0x1a
      86:	6968632f          	0x6968632f
      8a:	7970                	ld	a2,240(a0)
      8c:	7261                	lui	tp,0xffff8
      8e:	2f64                	fld	fs1,216(a4)
      90:	6972                	ld	s2,280(sp)
      92:	2d766373          	csrrsi	t1,0x2d7,12
      96:	6f74                	ld	a3,216(a4)
      98:	2d736c6f          	jal	s8,36b6e <__stack_size+0x2eb6e>
      9c:	6e69                	lui	t3,0x1a
      9e:	6c617473          	csrrci	s0,0x6c6,2
      a2:	2f6c                	fld	fa1,216(a4)
      a4:	6972                	ld	s2,280(sp)
      a6:	36766373          	csrrsi	t1,0x367,12
      aa:	2d34                	fld	fa3,88(a0)
      ac:	6e75                	lui	t3,0x1d
      ae:	776f6e6b          	0x776f6e6b
      b2:	2d6e                	fld	fs10,216(sp)
      b4:	6c65                	lui	s8,0x19
      b6:	2f66                	fld	ft10,88(sp)
      b8:	6e69                	lui	t3,0x1a
      ba:	64756c63          	bltu	a0,t2,712 <__stack_align+0x702>
      be:	2f65                	addiw	t5,t5,25
      c0:	616d                	addi	sp,sp,240
      c2:	6e696863          	bltu	s2,t1,7b2 <__stack_align+0x7a2>
      c6:	0065                	c.nop	25
      c8:	6d6f682f          	0x6d6f682f
      cc:	2f65                	addiw	t5,t5,25
      ce:	6170                	ld	a2,192(a0)
      d0:	6c6c                	ld	a1,216(s0)
      d2:	6461                	lui	s0,0x18
      d4:	6f69                	lui	t5,0x1a
      d6:	6968632f          	0x6968632f
      da:	7970                	ld	a2,240(a0)
      dc:	7261                	lui	tp,0xffff8
      de:	2f64                	fld	fs1,216(a4)
      e0:	6972                	ld	s2,280(sp)
      e2:	2d766373          	csrrsi	t1,0x2d7,12
      e6:	6f74                	ld	a3,216(a4)
      e8:	2d736c6f          	jal	s8,36bbe <__stack_size+0x2ebbe>
      ec:	6e69                	lui	t3,0x1a
      ee:	6c617473          	csrrci	s0,0x6c6,2
      f2:	2f6c                	fld	fa1,216(a4)
      f4:	6972                	ld	s2,280(sp)
      f6:	36766373          	csrrsi	t1,0x367,12
      fa:	2d34                	fld	fa3,88(a0)
      fc:	6e75                	lui	t3,0x1d
      fe:	776f6e6b          	0x776f6e6b
     102:	2d6e                	fld	fs10,216(sp)
     104:	6c65                	lui	s8,0x19
     106:	2f66                	fld	ft10,88(sp)
     108:	6e69                	lui	t3,0x1a
     10a:	64756c63          	bltu	a0,t2,762 <__stack_align+0x752>
     10e:	2f65                	addiw	t5,t5,25
     110:	00737973          	csrrci	s2,0x7,6
     114:	2e2e                	fld	ft8,200(sp)
     116:	636e692f          	0x636e692f
     11a:	756c                	ld	a1,232(a0)
     11c:	6564                	ld	s1,200(a0)
     11e:	0000                	unimp
     120:	736f6c63          	bltu	t5,s6,858 <__stack_align+0x848>
     124:	2e65                	addiw	t3,t3,25
     126:	00010063          	beqz	sp,126 <__stack_align+0x116>
     12a:	7300                	ld	s0,32(a4)
     12c:	6474                	ld	a3,200(s0)
     12e:	6564                	ld	s1,200(a0)
     130:	2e66                	fld	ft8,88(sp)
     132:	0068                	addi	a0,sp,12
     134:	0002                	c.slli64	zero
     136:	5f00                	lw	s0,56(a4)
     138:	6564                	ld	s1,200(a0)
     13a:	6166                	ld	sp,88(sp)
     13c:	6c75                	lui	s8,0x1d
     13e:	5f74                	lw	a3,124(a4)
     140:	7974                	ld	a3,240(a0)
     142:	6570                	ld	a2,200(a0)
     144:	00682e73          	csrrs	t3,0x6,a6
     148:	5f000003          	lb	zero,1520(zero) # 5f0 <__stack_align+0x5e0>
     14c:	7974                	ld	a3,240(a0)
     14e:	6570                	ld	a2,200(a0)
     150:	00682e73          	csrrs	t3,0x6,a6
     154:	0004                	0x4
     156:	7200                	ld	s0,32(a2)
     158:	6565                	lui	a0,0x19
     15a:	746e                	ld	s0,248(sp)
     15c:	682e                	ld	a6,200(sp)
     15e:	0400                	addi	s0,sp,512
     160:	0000                	unimp
     162:	6f6c                	ld	a1,216(a4)
     164:	682e6b63          	bltu	t3,sp,7fa <__stack_align+0x7ea>
     168:	0400                	addi	s0,sp,512
     16a:	0000                	unimp
     16c:	7265                	lui	tp,0xffff9
     16e:	6e72                	ld	t3,280(sp)
     170:	00682e6f          	jal	t3,82176 <__stack_size+0x7a176>
     174:	0004                	0x4
     176:	5f00                	lw	s0,56(a4)
     178:	69647473          	csrrci	s0,0x696,8
     17c:	746e                	ld	s0,248(sp)
     17e:	682e                	ld	a6,200(sp)
     180:	0400                	addi	s0,sp,512
     182:	0000                	unimp
     184:	7468                	ld	a0,232(s0)
     186:	6669                	lui	a2,0x1a
     188:	682e                	ld	a6,200(sp)
     18a:	0500                	addi	s0,sp,640
     18c:	0000                	unimp
     18e:	0500                	addi	s0,sp,640
     190:	0001                	nop
     192:	0209                	addi	tp,tp,2
     194:	1fa0                	addi	s0,sp,1016
     196:	8000                	0x8000
     198:	0000                	unimp
     19a:	0000                	unimp
     19c:	0516                	slli	a0,a0,0x5
     19e:	0305                	addi	t1,t1,1
     1a0:	0901                	addi	s2,s2,0
     1a2:	0000                	unimp
     1a4:	0501                	addi	a0,a0,0
     1a6:	0601                	addi	a2,a2,0
     1a8:	00097f03          	0x97f03
     1ac:	0100                	addi	s0,sp,128
     1ae:	0505                	addi	a0,a0,1
     1b0:	04090103          	lb	sp,64(s2)
     1b4:	0100                	addi	s0,sp,128
     1b6:	0105                	addi	sp,sp,1
     1b8:	04090203          	lb	tp,64(s2)
     1bc:	0100                	addi	s0,sp,128
     1be:	0b05                	addi	s6,s6,1
     1c0:	02097e03          	0x2097e03
     1c4:	0100                	addi	s0,sp,128
     1c6:	0505                	addi	a0,a0,1
     1c8:	0306                	slli	t1,t1,0x1
     1ca:	0901                	addi	s2,s2,0
     1cc:	0004                	0x4
     1ce:	0501                	addi	a0,a0,0
     1d0:	0601                	addi	a2,a2,0
     1d2:	00090103          	lb	sp,0(s2)
     1d6:	0100                	addi	s0,sp,128
     1d8:	0609                	addi	a2,a2,2
     1da:	0000                	unimp
     1dc:	0101                	addi	sp,sp,0
     1de:	000001ef          	jal	gp,1de <__stack_align+0x1ce>
     1e2:	019a0003          	lb	zero,25(s4)
     1e6:	0000                	unimp
     1e8:	0101                	addi	sp,sp,0
     1ea:	000d0efb          	0xd0efb
     1ee:	0101                	addi	sp,sp,0
     1f0:	0101                	addi	sp,sp,0
     1f2:	0000                	unimp
     1f4:	0100                	addi	s0,sp,128
     1f6:	0000                	unimp
     1f8:	2e01                	sext.w	t3,t3
     1fa:	2f2e                	fld	ft10,200(sp)
     1fc:	00737973          	csrrci	s2,0x7,6
     200:	6d6f682f          	0x6d6f682f
     204:	2f65                	addiw	t5,t5,25
     206:	6170                	ld	a2,192(a0)
     208:	6c6c                	ld	a1,216(s0)
     20a:	6461                	lui	s0,0x18
     20c:	6f69                	lui	t5,0x1a
     20e:	6968632f          	0x6968632f
     212:	7970                	ld	a2,240(a0)
     214:	7261                	lui	tp,0xffff8
     216:	2f64                	fld	fs1,216(a4)
     218:	6972                	ld	s2,280(sp)
     21a:	2d766373          	csrrsi	t1,0x2d7,12
     21e:	6f74                	ld	a3,216(a4)
     220:	2d736c6f          	jal	s8,36cf6 <__stack_size+0x2ecf6>
     224:	6e69                	lui	t3,0x1a
     226:	6c617473          	csrrci	s0,0x6c6,2
     22a:	2f6c                	fld	fa1,216(a4)
     22c:	696c                	ld	a1,208(a0)
     22e:	2f62                	fld	ft10,24(sp)
     230:	2f636367          	0x2f636367
     234:	6972                	ld	s2,280(sp)
     236:	36766373          	csrrsi	t1,0x367,12
     23a:	2d34                	fld	fa3,88(a0)
     23c:	6e75                	lui	t3,0x1d
     23e:	776f6e6b          	0x776f6e6b
     242:	2d6e                	fld	fs10,216(sp)
     244:	6c65                	lui	s8,0x19
     246:	2f66                	fld	ft10,88(sp)
     248:	2e39                	addiw	t3,t3,14
     24a:	2e32                	fld	ft8,264(sp)
     24c:	2f30                	fld	fa2,88(a4)
     24e:	6e69                	lui	t3,0x1a
     250:	64756c63          	bltu	a0,t2,8a8 <__stack_align+0x898>
     254:	0065                	c.nop	25
     256:	6d6f682f          	0x6d6f682f
     25a:	2f65                	addiw	t5,t5,25
     25c:	6170                	ld	a2,192(a0)
     25e:	6c6c                	ld	a1,216(s0)
     260:	6461                	lui	s0,0x18
     262:	6f69                	lui	t5,0x1a
     264:	6968632f          	0x6968632f
     268:	7970                	ld	a2,240(a0)
     26a:	7261                	lui	tp,0xffff8
     26c:	2f64                	fld	fs1,216(a4)
     26e:	6972                	ld	s2,280(sp)
     270:	2d766373          	csrrsi	t1,0x2d7,12
     274:	6f74                	ld	a3,216(a4)
     276:	2d736c6f          	jal	s8,36d4c <__stack_size+0x2ed4c>
     27a:	6e69                	lui	t3,0x1a
     27c:	6c617473          	csrrci	s0,0x6c6,2
     280:	2f6c                	fld	fa1,216(a4)
     282:	6972                	ld	s2,280(sp)
     284:	36766373          	csrrsi	t1,0x367,12
     288:	2d34                	fld	fa3,88(a0)
     28a:	6e75                	lui	t3,0x1d
     28c:	776f6e6b          	0x776f6e6b
     290:	2d6e                	fld	fs10,216(sp)
     292:	6c65                	lui	s8,0x19
     294:	2f66                	fld	ft10,88(sp)
     296:	6e69                	lui	t3,0x1a
     298:	64756c63          	bltu	a0,t2,8f0 <__stack_align+0x8e0>
     29c:	2f65                	addiw	t5,t5,25
     29e:	616d                	addi	sp,sp,240
     2a0:	6e696863          	bltu	s2,t1,990 <__stack_align+0x980>
     2a4:	0065                	c.nop	25
     2a6:	6d6f682f          	0x6d6f682f
     2aa:	2f65                	addiw	t5,t5,25
     2ac:	6170                	ld	a2,192(a0)
     2ae:	6c6c                	ld	a1,216(s0)
     2b0:	6461                	lui	s0,0x18
     2b2:	6f69                	lui	t5,0x1a
     2b4:	6968632f          	0x6968632f
     2b8:	7970                	ld	a2,240(a0)
     2ba:	7261                	lui	tp,0xffff8
     2bc:	2f64                	fld	fs1,216(a4)
     2be:	6972                	ld	s2,280(sp)
     2c0:	2d766373          	csrrsi	t1,0x2d7,12
     2c4:	6f74                	ld	a3,216(a4)
     2c6:	2d736c6f          	jal	s8,36d9c <__stack_size+0x2ed9c>
     2ca:	6e69                	lui	t3,0x1a
     2cc:	6c617473          	csrrci	s0,0x6c6,2
     2d0:	2f6c                	fld	fa1,216(a4)
     2d2:	6972                	ld	s2,280(sp)
     2d4:	36766373          	csrrsi	t1,0x367,12
     2d8:	2d34                	fld	fa3,88(a0)
     2da:	6e75                	lui	t3,0x1d
     2dc:	776f6e6b          	0x776f6e6b
     2e0:	2d6e                	fld	fs10,216(sp)
     2e2:	6c65                	lui	s8,0x19
     2e4:	2f66                	fld	ft10,88(sp)
     2e6:	6e69                	lui	t3,0x1a
     2e8:	64756c63          	bltu	a0,t2,940 <__stack_align+0x930>
     2ec:	2f65                	addiw	t5,t5,25
     2ee:	00737973          	csrrci	s2,0x7,6
     2f2:	2e2e                	fld	ft8,200(sp)
     2f4:	636e692f          	0x636e692f
     2f8:	756c                	ld	a1,232(a0)
     2fa:	6564                	ld	s1,200(a0)
     2fc:	0000                	unimp
     2fe:	7366                	ld	t1,120(sp)
     300:	6174                	ld	a3,192(a0)
     302:	2e74                	fld	fa3,216(a2)
     304:	00010063          	beqz	sp,304 <__stack_align+0x2f4>
     308:	7300                	ld	s0,32(a4)
     30a:	6474                	ld	a3,200(s0)
     30c:	6564                	ld	s1,200(a0)
     30e:	2e66                	fld	ft8,88(sp)
     310:	0068                	addi	a0,sp,12
     312:	0002                	c.slli64	zero
     314:	5f00                	lw	s0,56(a4)
     316:	6564                	ld	s1,200(a0)
     318:	6166                	ld	sp,88(sp)
     31a:	6c75                	lui	s8,0x1d
     31c:	5f74                	lw	a3,124(a4)
     31e:	7974                	ld	a3,240(a0)
     320:	6570                	ld	a2,200(a0)
     322:	00682e73          	csrrs	t3,0x6,a6
     326:	5f000003          	lb	zero,1520(zero) # 5f0 <__stack_align+0x5e0>
     32a:	7974                	ld	a3,240(a0)
     32c:	6570                	ld	a2,200(a0)
     32e:	00682e73          	csrrs	t3,0x6,a6
     332:	0004                	0x4
     334:	7200                	ld	s0,32(a2)
     336:	6565                	lui	a0,0x19
     338:	746e                	ld	s0,248(sp)
     33a:	682e                	ld	a6,200(sp)
     33c:	0400                	addi	s0,sp,512
     33e:	0000                	unimp
     340:	6f6c                	ld	a1,216(a4)
     342:	682e6b63          	bltu	t3,sp,9d8 <__stack_align+0x9c8>
     346:	0400                	addi	s0,sp,512
     348:	0000                	unimp
     34a:	7265                	lui	tp,0xffff9
     34c:	6e72                	ld	t3,280(sp)
     34e:	00682e6f          	jal	t3,82354 <__stack_size+0x7a354>
     352:	0004                	0x4
     354:	5f00                	lw	s0,56(a4)
     356:	69647473          	csrrci	s0,0x696,8
     35a:	746e                	ld	s0,248(sp)
     35c:	682e                	ld	a6,200(sp)
     35e:	0400                	addi	s0,sp,512
     360:	0000                	unimp
     362:	7974                	ld	a3,240(a0)
     364:	6570                	ld	a2,200(a0)
     366:	00682e73          	csrrs	t3,0x6,a6
     36a:	0004                	0x4
     36c:	7300                	ld	s0,32(a4)
     36e:	6174                	ld	a3,192(a0)
     370:	2e74                	fld	fa3,216(a2)
     372:	0068                	addi	a0,sp,12
     374:	0004                	0x4
     376:	6800                	ld	s0,16(s0)
     378:	6974                	ld	a3,208(a0)
     37a:	2e66                	fld	ft8,88(sp)
     37c:	0068                	addi	a0,sp,12
     37e:	0005                	c.nop	1
     380:	0000                	unimp
     382:	0105                	addi	sp,sp,1
     384:	0900                	addi	s0,sp,144
     386:	b402                	fsd	ft0,40(sp)
     388:	001f 0080 0000      	0x80001f
     38e:	1700                	addi	s0,sp,928
     390:	0505                	addi	a0,a0,1
     392:	00090103          	lb	sp,0(s2)
     396:	0100                	addi	s0,sp,128
     398:	0105                	addi	sp,sp,1
     39a:	0306                	slli	t1,t1,0x1
     39c:	097f                	0x97f
     39e:	0000                	unimp
     3a0:	0501                	addi	a0,a0,0
     3a2:	0305                	addi	t1,t1,1
     3a4:	0901                	addi	s2,s2,0
     3a6:	0004                	0x4
     3a8:	0501                	addi	a0,a0,0
     3aa:	0301                	addi	t1,t1,0
     3ac:	0902                	c.slli64	s2
     3ae:	0004                	0x4
     3b0:	0501                	addi	a0,a0,0
     3b2:	097e030b          	0x97e030b
     3b6:	0002                	c.slli64	zero
     3b8:	0501                	addi	a0,a0,0
     3ba:	0605                	addi	a2,a2,1
     3bc:	04090103          	lb	sp,64(s2)
     3c0:	0100                	addi	s0,sp,128
     3c2:	0105                	addi	sp,sp,1
     3c4:	0306                	slli	t1,t1,0x1
     3c6:	0901                	addi	s2,s2,0
     3c8:	0000                	unimp
     3ca:	0901                	addi	s2,s2,0
     3cc:	0006                	c.slli	zero,0x1
     3ce:	0100                	addi	s0,sp,128
     3d0:	3701                	addiw	a4,a4,-32
     3d2:	0001                	nop
     3d4:	0300                	addi	s0,sp,384
     3d6:	0400                	addi	s0,sp,512
     3d8:	0001                	nop
     3da:	0100                	addi	s0,sp,128
     3dc:	fb01                	bnez	a4,2ec <__stack_align+0x2dc>
     3de:	0d0e                	slli	s10,s10,0x3
     3e0:	0100                	addi	s0,sp,128
     3e2:	0101                	addi	sp,sp,0
     3e4:	0001                	nop
     3e6:	0000                	unimp
     3e8:	0001                	nop
     3ea:	0100                	addi	s0,sp,128
     3ec:	2e2e                	fld	ft8,200(sp)
     3ee:	7379732f          	0x7379732f
     3f2:	2f00                	fld	fs0,24(a4)
     3f4:	6f68                	ld	a0,216(a4)
     3f6:	656d                	lui	a0,0x1b
     3f8:	6c61702f          	0x6c61702f
     3fc:	616c                	ld	a1,192(a0)
     3fe:	6964                	ld	s1,208(a0)
     400:	68632f6f          	jal	t5,32a86 <__stack_size+0x2aa86>
     404:	7069                	c.lui	zero,0xffffa
     406:	6179                	addi	sp,sp,464
     408:	6472                	ld	s0,280(sp)
     40a:	7369722f          	0x7369722f
     40e:	742d7663          	bgeu	s10,sp,b5a <__stack_align+0xb4a>
     412:	736c6f6f          	jal	t5,c6b48 <__stack_size+0xbeb48>
     416:	692d                	lui	s2,0xb
     418:	736e                	ld	t1,248(sp)
     41a:	6174                	ld	a3,192(a0)
     41c:	6c6c                	ld	a1,216(s0)
     41e:	7369722f          	0x7369722f
     422:	34367663          	bgeu	a2,gp,76e <__stack_align+0x75e>
     426:	752d                	lui	a0,0xfffeb
     428:	6b6e                	ld	s6,216(sp)
     42a:	6f6e                	ld	t5,216(sp)
     42c:	652d6e77          	0x652d6e77
     430:	666c                	ld	a1,200(a2)
     432:	636e692f          	0x636e692f
     436:	756c                	ld	a1,232(a0)
     438:	6564                	ld	s1,200(a0)
     43a:	63616d2f          	0x63616d2f
     43e:	6968                	ld	a0,208(a0)
     440:	656e                	ld	a0,216(sp)
     442:	2f00                	fld	fs0,24(a4)
     444:	6f68                	ld	a0,216(a4)
     446:	656d                	lui	a0,0x1b
     448:	6c61702f          	0x6c61702f
     44c:	616c                	ld	a1,192(a0)
     44e:	6964                	ld	s1,208(a0)
     450:	68632f6f          	jal	t5,32ad6 <__stack_size+0x2aad6>
     454:	7069                	c.lui	zero,0xffffa
     456:	6179                	addi	sp,sp,464
     458:	6472                	ld	s0,280(sp)
     45a:	7369722f          	0x7369722f
     45e:	742d7663          	bgeu	s10,sp,baa <__stack_align+0xb9a>
     462:	736c6f6f          	jal	t5,c6b98 <__stack_size+0xbeb98>
     466:	692d                	lui	s2,0xb
     468:	736e                	ld	t1,248(sp)
     46a:	6174                	ld	a3,192(a0)
     46c:	6c6c                	ld	a1,216(s0)
     46e:	7369722f          	0x7369722f
     472:	34367663          	bgeu	a2,gp,7be <__stack_align+0x7ae>
     476:	752d                	lui	a0,0xfffeb
     478:	6b6e                	ld	s6,216(sp)
     47a:	6f6e                	ld	t5,216(sp)
     47c:	652d6e77          	0x652d6e77
     480:	666c                	ld	a1,200(a2)
     482:	636e692f          	0x636e692f
     486:	756c                	ld	a1,232(a0)
     488:	6564                	ld	s1,200(a0)
     48a:	7379732f          	0x7379732f
     48e:	2e00                	fld	fs0,24(a2)
     490:	2f2e                	fld	ft10,200(sp)
     492:	6e69                	lui	t3,0x1a
     494:	64756c63          	bltu	a0,t2,aec <__stack_align+0xadc>
     498:	0065                	c.nop	25
     49a:	6900                	ld	s0,16(a0)
     49c:	74746173          	csrrsi	sp,0x747,8
     4a0:	2e79                	addiw	t3,t3,30
     4a2:	00010063          	beqz	sp,4a2 <__stack_align+0x492>
     4a6:	5f00                	lw	s0,56(a4)
     4a8:	6564                	ld	s1,200(a0)
     4aa:	6166                	ld	sp,88(sp)
     4ac:	6c75                	lui	s8,0x1d
     4ae:	5f74                	lw	a3,124(a4)
     4b0:	7974                	ld	a3,240(a0)
     4b2:	6570                	ld	a2,200(a0)
     4b4:	00682e73          	csrrs	t3,0x6,a6
     4b8:	0002                	c.slli64	zero
     4ba:	5f00                	lw	s0,56(a4)
     4bc:	69647473          	csrrci	s0,0x696,8
     4c0:	746e                	ld	s0,248(sp)
     4c2:	682e                	ld	a6,200(sp)
     4c4:	0300                	addi	s0,sp,384
     4c6:	0000                	unimp
     4c8:	6e75                	lui	t3,0x1d
     4ca:	7369                	lui	t1,0xffffa
     4cc:	6474                	ld	a3,200(s0)
     4ce:	682e                	ld	a6,200(sp)
     4d0:	0300                	addi	s0,sp,384
     4d2:	0000                	unimp
     4d4:	7468                	ld	a0,232(s0)
     4d6:	6669                	lui	a2,0x1a
     4d8:	682e                	ld	a6,200(sp)
     4da:	0400                	addi	s0,sp,512
     4dc:	0000                	unimp
     4de:	0500                	addi	s0,sp,640
     4e0:	0001                	nop
     4e2:	0209                	addi	tp,tp,2
     4e4:	1fc8                	addi	a0,sp,1012
     4e6:	8000                	0x8000
     4e8:	0000                	unimp
     4ea:	0000                	unimp
     4ec:	0516                	slli	a0,a0,0x5
     4ee:	0305                	addi	t1,t1,1
     4f0:	0901                	addi	s2,s2,0
     4f2:	0000                	unimp
     4f4:	0501                	addi	a0,a0,0
     4f6:	00030623          	sb	zero,12(t1) # ffffffffffffa00c <ali3_data.1515+0xffffffff7ffa9e0c>
     4fa:	0009                	c.nop	2
     4fc:	0100                	addi	s0,sp,128
     4fe:	0105                	addi	sp,sp,1
     500:	02090103          	lb	sp,32(s2) # b020 <__stack_size+0x3020>
     504:	0100                	addi	s0,sp,128
     506:	0609                	addi	a2,a2,2
     508:	0000                	unimp
     50a:	0101                	addi	sp,sp,0
     50c:	01e5                	addi	gp,gp,25
     50e:	0000                	unimp
     510:	01900003          	lb	zero,25(zero) # 19 <__stack_align+0x9>
     514:	0000                	unimp
     516:	0101                	addi	sp,sp,0
     518:	000d0efb          	0xd0efb
     51c:	0101                	addi	sp,sp,0
     51e:	0101                	addi	sp,sp,0
     520:	0000                	unimp
     522:	0100                	addi	s0,sp,128
     524:	0000                	unimp
     526:	2e01                	sext.w	t3,t3
     528:	2f2e                	fld	ft10,200(sp)
     52a:	00737973          	csrrci	s2,0x7,6
     52e:	6d6f682f          	0x6d6f682f
     532:	2f65                	addiw	t5,t5,25
     534:	6170                	ld	a2,192(a0)
     536:	6c6c                	ld	a1,216(s0)
     538:	6461                	lui	s0,0x18
     53a:	6f69                	lui	t5,0x1a
     53c:	6968632f          	0x6968632f
     540:	7970                	ld	a2,240(a0)
     542:	7261                	lui	tp,0xffff8
     544:	2f64                	fld	fs1,216(a4)
     546:	6972                	ld	s2,280(sp)
     548:	2d766373          	csrrsi	t1,0x2d7,12
     54c:	6f74                	ld	a3,216(a4)
     54e:	2d736c6f          	jal	s8,37024 <__stack_size+0x2f024>
     552:	6e69                	lui	t3,0x1a
     554:	6c617473          	csrrci	s0,0x6c6,2
     558:	2f6c                	fld	fa1,216(a4)
     55a:	696c                	ld	a1,208(a0)
     55c:	2f62                	fld	ft10,24(sp)
     55e:	2f636367          	0x2f636367
     562:	6972                	ld	s2,280(sp)
     564:	36766373          	csrrsi	t1,0x367,12
     568:	2d34                	fld	fa3,88(a0)
     56a:	6e75                	lui	t3,0x1d
     56c:	776f6e6b          	0x776f6e6b
     570:	2d6e                	fld	fs10,216(sp)
     572:	6c65                	lui	s8,0x19
     574:	2f66                	fld	ft10,88(sp)
     576:	2e39                	addiw	t3,t3,14
     578:	2e32                	fld	ft8,264(sp)
     57a:	2f30                	fld	fa2,88(a4)
     57c:	6e69                	lui	t3,0x1a
     57e:	64756c63          	bltu	a0,t2,bd6 <__stack_align+0xbc6>
     582:	0065                	c.nop	25
     584:	6d6f682f          	0x6d6f682f
     588:	2f65                	addiw	t5,t5,25
     58a:	6170                	ld	a2,192(a0)
     58c:	6c6c                	ld	a1,216(s0)
     58e:	6461                	lui	s0,0x18
     590:	6f69                	lui	t5,0x1a
     592:	6968632f          	0x6968632f
     596:	7970                	ld	a2,240(a0)
     598:	7261                	lui	tp,0xffff8
     59a:	2f64                	fld	fs1,216(a4)
     59c:	6972                	ld	s2,280(sp)
     59e:	2d766373          	csrrsi	t1,0x2d7,12
     5a2:	6f74                	ld	a3,216(a4)
     5a4:	2d736c6f          	jal	s8,3707a <__stack_size+0x2f07a>
     5a8:	6e69                	lui	t3,0x1a
     5aa:	6c617473          	csrrci	s0,0x6c6,2
     5ae:	2f6c                	fld	fa1,216(a4)
     5b0:	6972                	ld	s2,280(sp)
     5b2:	36766373          	csrrsi	t1,0x367,12
     5b6:	2d34                	fld	fa3,88(a0)
     5b8:	6e75                	lui	t3,0x1d
     5ba:	776f6e6b          	0x776f6e6b
     5be:	2d6e                	fld	fs10,216(sp)
     5c0:	6c65                	lui	s8,0x19
     5c2:	2f66                	fld	ft10,88(sp)
     5c4:	6e69                	lui	t3,0x1a
     5c6:	64756c63          	bltu	a0,t2,c1e <__stack_align+0xc0e>
     5ca:	2f65                	addiw	t5,t5,25
     5cc:	616d                	addi	sp,sp,240
     5ce:	6e696863          	bltu	s2,t1,cbe <__stack_align+0xcae>
     5d2:	0065                	c.nop	25
     5d4:	6d6f682f          	0x6d6f682f
     5d8:	2f65                	addiw	t5,t5,25
     5da:	6170                	ld	a2,192(a0)
     5dc:	6c6c                	ld	a1,216(s0)
     5de:	6461                	lui	s0,0x18
     5e0:	6f69                	lui	t5,0x1a
     5e2:	6968632f          	0x6968632f
     5e6:	7970                	ld	a2,240(a0)
     5e8:	7261                	lui	tp,0xffff8
     5ea:	2f64                	fld	fs1,216(a4)
     5ec:	6972                	ld	s2,280(sp)
     5ee:	2d766373          	csrrsi	t1,0x2d7,12
     5f2:	6f74                	ld	a3,216(a4)
     5f4:	2d736c6f          	jal	s8,370ca <__stack_size+0x2f0ca>
     5f8:	6e69                	lui	t3,0x1a
     5fa:	6c617473          	csrrci	s0,0x6c6,2
     5fe:	2f6c                	fld	fa1,216(a4)
     600:	6972                	ld	s2,280(sp)
     602:	36766373          	csrrsi	t1,0x367,12
     606:	2d34                	fld	fa3,88(a0)
     608:	6e75                	lui	t3,0x1d
     60a:	776f6e6b          	0x776f6e6b
     60e:	2d6e                	fld	fs10,216(sp)
     610:	6c65                	lui	s8,0x19
     612:	2f66                	fld	ft10,88(sp)
     614:	6e69                	lui	t3,0x1a
     616:	64756c63          	bltu	a0,t2,c6e <__stack_align+0xc5e>
     61a:	2f65                	addiw	t5,t5,25
     61c:	00737973          	csrrci	s2,0x7,6
     620:	2e2e                	fld	ft8,200(sp)
     622:	636e692f          	0x636e692f
     626:	756c                	ld	a1,232(a0)
     628:	6564                	ld	s1,200(a0)
     62a:	0000                	unimp
     62c:	736c                	ld	a1,224(a4)
     62e:	6565                	lui	a0,0x19
     630:	00632e6b          	0x632e6b
     634:	0001                	nop
     636:	7300                	ld	s0,32(a4)
     638:	6474                	ld	a3,200(s0)
     63a:	6564                	ld	s1,200(a0)
     63c:	2e66                	fld	ft8,88(sp)
     63e:	0068                	addi	a0,sp,12
     640:	0002                	c.slli64	zero
     642:	5f00                	lw	s0,56(a4)
     644:	6564                	ld	s1,200(a0)
     646:	6166                	ld	sp,88(sp)
     648:	6c75                	lui	s8,0x1d
     64a:	5f74                	lw	a3,124(a4)
     64c:	7974                	ld	a3,240(a0)
     64e:	6570                	ld	a2,200(a0)
     650:	00682e73          	csrrs	t3,0x6,a6
     654:	5f000003          	lb	zero,1520(zero) # 5f0 <__stack_align+0x5e0>
     658:	7974                	ld	a3,240(a0)
     65a:	6570                	ld	a2,200(a0)
     65c:	00682e73          	csrrs	t3,0x6,a6
     660:	0004                	0x4
     662:	7200                	ld	s0,32(a2)
     664:	6565                	lui	a0,0x19
     666:	746e                	ld	s0,248(sp)
     668:	682e                	ld	a6,200(sp)
     66a:	0400                	addi	s0,sp,512
     66c:	0000                	unimp
     66e:	6f6c                	ld	a1,216(a4)
     670:	682e6b63          	bltu	t3,sp,d06 <__stack_align+0xcf6>
     674:	0400                	addi	s0,sp,512
     676:	0000                	unimp
     678:	7265                	lui	tp,0xffff9
     67a:	6e72                	ld	t3,280(sp)
     67c:	00682e6f          	jal	t3,82682 <__stack_size+0x7a682>
     680:	0004                	0x4
     682:	5f00                	lw	s0,56(a4)
     684:	69647473          	csrrci	s0,0x696,8
     688:	746e                	ld	s0,248(sp)
     68a:	682e                	ld	a6,200(sp)
     68c:	0400                	addi	s0,sp,512
     68e:	0000                	unimp
     690:	7974                	ld	a3,240(a0)
     692:	6570                	ld	a2,200(a0)
     694:	00682e73          	csrrs	t3,0x6,a6
     698:	0004                	0x4
     69a:	6800                	ld	s0,16(s0)
     69c:	6974                	ld	a3,208(a0)
     69e:	2e66                	fld	ft8,88(sp)
     6a0:	0068                	addi	a0,sp,12
     6a2:	0005                	c.nop	1
     6a4:	0000                	unimp
     6a6:	0105                	addi	sp,sp,1
     6a8:	0900                	addi	s0,sp,144
     6aa:	d002                	sw	zero,32(sp)
     6ac:	001f 0080 0000      	0x80001f
     6b2:	1700                	addi	s0,sp,928
     6b4:	0505                	addi	a0,a0,1
     6b6:	00090103          	lb	sp,0(s2)
     6ba:	0100                	addi	s0,sp,128
     6bc:	0105                	addi	sp,sp,1
     6be:	0306                	slli	t1,t1,0x1
     6c0:	097f                	0x97f
     6c2:	0000                	unimp
     6c4:	0501                	addi	a0,a0,0
     6c6:	0305                	addi	t1,t1,1
     6c8:	0901                	addi	s2,s2,0
     6ca:	0004                	0x4
     6cc:	0501                	addi	a0,a0,0
     6ce:	0301                	addi	t1,t1,0
     6d0:	0902                	c.slli64	s2
     6d2:	0004                	0x4
     6d4:	0501                	addi	a0,a0,0
     6d6:	097e030b          	0x97e030b
     6da:	0002                	c.slli64	zero
     6dc:	0501                	addi	a0,a0,0
     6de:	0605                	addi	a2,a2,1
     6e0:	04090103          	lb	sp,64(s2)
     6e4:	0100                	addi	s0,sp,128
     6e6:	0105                	addi	sp,sp,1
     6e8:	0306                	slli	t1,t1,0x1
     6ea:	0901                	addi	s2,s2,0
     6ec:	0000                	unimp
     6ee:	0901                	addi	s2,s2,0
     6f0:	0006                	c.slli	zero,0x1
     6f2:	0100                	addi	s0,sp,128
     6f4:	e401                	bnez	s0,6fc <__stack_align+0x6ec>
     6f6:	0001                	nop
     6f8:	0300                	addi	s0,sp,384
     6fa:	8f00                	0x8f00
     6fc:	0001                	nop
     6fe:	0100                	addi	s0,sp,128
     700:	fb01                	bnez	a4,610 <__stack_align+0x600>
     702:	0d0e                	slli	s10,s10,0x3
     704:	0100                	addi	s0,sp,128
     706:	0101                	addi	sp,sp,0
     708:	0001                	nop
     70a:	0000                	unimp
     70c:	0001                	nop
     70e:	0100                	addi	s0,sp,128
     710:	2e2e                	fld	ft8,200(sp)
     712:	7379732f          	0x7379732f
     716:	2f00                	fld	fs0,24(a4)
     718:	6f68                	ld	a0,216(a4)
     71a:	656d                	lui	a0,0x1b
     71c:	6c61702f          	0x6c61702f
     720:	616c                	ld	a1,192(a0)
     722:	6964                	ld	s1,208(a0)
     724:	68632f6f          	jal	t5,32daa <__stack_size+0x2adaa>
     728:	7069                	c.lui	zero,0xffffa
     72a:	6179                	addi	sp,sp,464
     72c:	6472                	ld	s0,280(sp)
     72e:	7369722f          	0x7369722f
     732:	742d7663          	bgeu	s10,sp,e7e <__stack_align+0xe6e>
     736:	736c6f6f          	jal	t5,c6e6c <__stack_size+0xbee6c>
     73a:	692d                	lui	s2,0xb
     73c:	736e                	ld	t1,248(sp)
     73e:	6174                	ld	a3,192(a0)
     740:	6c6c                	ld	a1,216(s0)
     742:	62696c2f          	0x62696c2f
     746:	6363672f          	0x6363672f
     74a:	7369722f          	0x7369722f
     74e:	34367663          	bgeu	a2,gp,a9a <__stack_align+0xa8a>
     752:	752d                	lui	a0,0xfffeb
     754:	6b6e                	ld	s6,216(sp)
     756:	6f6e                	ld	t5,216(sp)
     758:	652d6e77          	0x652d6e77
     75c:	666c                	ld	a1,200(a2)
     75e:	322e392f          	0x322e392f
     762:	302e                	fld	ft0,232(sp)
     764:	636e692f          	0x636e692f
     768:	756c                	ld	a1,232(a0)
     76a:	6564                	ld	s1,200(a0)
     76c:	2f00                	fld	fs0,24(a4)
     76e:	6f68                	ld	a0,216(a4)
     770:	656d                	lui	a0,0x1b
     772:	6c61702f          	0x6c61702f
     776:	616c                	ld	a1,192(a0)
     778:	6964                	ld	s1,208(a0)
     77a:	68632f6f          	jal	t5,32e00 <__stack_size+0x2ae00>
     77e:	7069                	c.lui	zero,0xffffa
     780:	6179                	addi	sp,sp,464
     782:	6472                	ld	s0,280(sp)
     784:	7369722f          	0x7369722f
     788:	742d7663          	bgeu	s10,sp,ed4 <__stack_align+0xec4>
     78c:	736c6f6f          	jal	t5,c6ec2 <__stack_size+0xbeec2>
     790:	692d                	lui	s2,0xb
     792:	736e                	ld	t1,248(sp)
     794:	6174                	ld	a3,192(a0)
     796:	6c6c                	ld	a1,216(s0)
     798:	7369722f          	0x7369722f
     79c:	34367663          	bgeu	a2,gp,ae8 <__stack_align+0xad8>
     7a0:	752d                	lui	a0,0xfffeb
     7a2:	6b6e                	ld	s6,216(sp)
     7a4:	6f6e                	ld	t5,216(sp)
     7a6:	652d6e77          	0x652d6e77
     7aa:	666c                	ld	a1,200(a2)
     7ac:	636e692f          	0x636e692f
     7b0:	756c                	ld	a1,232(a0)
     7b2:	6564                	ld	s1,200(a0)
     7b4:	63616d2f          	0x63616d2f
     7b8:	6968                	ld	a0,208(a0)
     7ba:	656e                	ld	a0,216(sp)
     7bc:	2f00                	fld	fs0,24(a4)
     7be:	6f68                	ld	a0,216(a4)
     7c0:	656d                	lui	a0,0x1b
     7c2:	6c61702f          	0x6c61702f
     7c6:	616c                	ld	a1,192(a0)
     7c8:	6964                	ld	s1,208(a0)
     7ca:	68632f6f          	jal	t5,32e50 <__stack_size+0x2ae50>
     7ce:	7069                	c.lui	zero,0xffffa
     7d0:	6179                	addi	sp,sp,464
     7d2:	6472                	ld	s0,280(sp)
     7d4:	7369722f          	0x7369722f
     7d8:	742d7663          	bgeu	s10,sp,f24 <__stack_align+0xf14>
     7dc:	736c6f6f          	jal	t5,c6f12 <__stack_size+0xbef12>
     7e0:	692d                	lui	s2,0xb
     7e2:	736e                	ld	t1,248(sp)
     7e4:	6174                	ld	a3,192(a0)
     7e6:	6c6c                	ld	a1,216(s0)
     7e8:	7369722f          	0x7369722f
     7ec:	34367663          	bgeu	a2,gp,b38 <__stack_align+0xb28>
     7f0:	752d                	lui	a0,0xfffeb
     7f2:	6b6e                	ld	s6,216(sp)
     7f4:	6f6e                	ld	t5,216(sp)
     7f6:	652d6e77          	0x652d6e77
     7fa:	666c                	ld	a1,200(a2)
     7fc:	636e692f          	0x636e692f
     800:	756c                	ld	a1,232(a0)
     802:	6564                	ld	s1,200(a0)
     804:	7379732f          	0x7379732f
     808:	2e00                	fld	fs0,24(a2)
     80a:	2f2e                	fld	ft10,200(sp)
     80c:	6e69                	lui	t3,0x1a
     80e:	64756c63          	bltu	a0,t2,e66 <__stack_align+0xe56>
     812:	0065                	c.nop	25
     814:	7200                	ld	s0,32(a2)
     816:	6165                	addi	sp,sp,112
     818:	2e64                	fld	fs1,216(a2)
     81a:	00010063          	beqz	sp,81a <__stack_align+0x80a>
     81e:	7300                	ld	s0,32(a4)
     820:	6474                	ld	a3,200(s0)
     822:	6564                	ld	s1,200(a0)
     824:	2e66                	fld	ft8,88(sp)
     826:	0068                	addi	a0,sp,12
     828:	0002                	c.slli64	zero
     82a:	5f00                	lw	s0,56(a4)
     82c:	6564                	ld	s1,200(a0)
     82e:	6166                	ld	sp,88(sp)
     830:	6c75                	lui	s8,0x1d
     832:	5f74                	lw	a3,124(a4)
     834:	7974                	ld	a3,240(a0)
     836:	6570                	ld	a2,200(a0)
     838:	00682e73          	csrrs	t3,0x6,a6
     83c:	5f000003          	lb	zero,1520(zero) # 5f0 <__stack_align+0x5e0>
     840:	7974                	ld	a3,240(a0)
     842:	6570                	ld	a2,200(a0)
     844:	00682e73          	csrrs	t3,0x6,a6
     848:	0004                	0x4
     84a:	7200                	ld	s0,32(a2)
     84c:	6565                	lui	a0,0x19
     84e:	746e                	ld	s0,248(sp)
     850:	682e                	ld	a6,200(sp)
     852:	0400                	addi	s0,sp,512
     854:	0000                	unimp
     856:	6f6c                	ld	a1,216(a4)
     858:	682e6b63          	bltu	t3,sp,eee <__stack_align+0xede>
     85c:	0400                	addi	s0,sp,512
     85e:	0000                	unimp
     860:	7265                	lui	tp,0xffff9
     862:	6e72                	ld	t3,280(sp)
     864:	00682e6f          	jal	t3,8286a <__stack_size+0x7a86a>
     868:	0004                	0x4
     86a:	5f00                	lw	s0,56(a4)
     86c:	69647473          	csrrci	s0,0x696,8
     870:	746e                	ld	s0,248(sp)
     872:	682e                	ld	a6,200(sp)
     874:	0400                	addi	s0,sp,512
     876:	0000                	unimp
     878:	7974                	ld	a3,240(a0)
     87a:	6570                	ld	a2,200(a0)
     87c:	00682e73          	csrrs	t3,0x6,a6
     880:	0004                	0x4
     882:	6800                	ld	s0,16(s0)
     884:	6974                	ld	a3,208(a0)
     886:	2e66                	fld	ft8,88(sp)
     888:	0068                	addi	a0,sp,12
     88a:	0005                	c.nop	1
     88c:	0000                	unimp
     88e:	0105                	addi	sp,sp,1
     890:	0900                	addi	s0,sp,144
     892:	e402                	sd	zero,8(sp)
     894:	001f 0080 0000      	0x80001f
     89a:	1700                	addi	s0,sp,928
     89c:	0505                	addi	a0,a0,1
     89e:	00090103          	lb	sp,0(s2) # b000 <__stack_size+0x3000>
     8a2:	0100                	addi	s0,sp,128
     8a4:	0105                	addi	sp,sp,1
     8a6:	0306                	slli	t1,t1,0x1
     8a8:	097f                	0x97f
     8aa:	0000                	unimp
     8ac:	0501                	addi	a0,a0,0
     8ae:	0305                	addi	t1,t1,1
     8b0:	0901                	addi	s2,s2,0
     8b2:	0004                	0x4
     8b4:	0501                	addi	a0,a0,0
     8b6:	0301                	addi	t1,t1,0
     8b8:	0902                	c.slli64	s2
     8ba:	0004                	0x4
     8bc:	0501                	addi	a0,a0,0
     8be:	097e030b          	0x97e030b
     8c2:	0002                	c.slli64	zero
     8c4:	0501                	addi	a0,a0,0
     8c6:	0605                	addi	a2,a2,1
     8c8:	06090103          	lb	sp,96(s2)
     8cc:	0100                	addi	s0,sp,128
     8ce:	0105                	addi	sp,sp,1
     8d0:	0306                	slli	t1,t1,0x1
     8d2:	0901                	addi	s2,s2,0
     8d4:	0000                	unimp
     8d6:	0901                	addi	s2,s2,0
     8d8:	0006                	c.slli	zero,0x1
     8da:	0100                	addi	s0,sp,128
     8dc:	6101                	0x6101
     8de:	0002                	c.slli64	zero
     8e0:	0300                	addi	s0,sp,384
     8e2:	8400                	0x8400
     8e4:	0001                	nop
     8e6:	0100                	addi	s0,sp,128
     8e8:	fb01                	bnez	a4,7f8 <__stack_align+0x7e8>
     8ea:	0d0e                	slli	s10,s10,0x3
     8ec:	0100                	addi	s0,sp,128
     8ee:	0101                	addi	sp,sp,0
     8f0:	0001                	nop
     8f2:	0000                	unimp
     8f4:	0001                	nop
     8f6:	0100                	addi	s0,sp,128
     8f8:	2e2e                	fld	ft8,200(sp)
     8fa:	7379732f          	0x7379732f
     8fe:	2f00                	fld	fs0,24(a4)
     900:	6f68                	ld	a0,216(a4)
     902:	656d                	lui	a0,0x1b
     904:	6c61702f          	0x6c61702f
     908:	616c                	ld	a1,192(a0)
     90a:	6964                	ld	s1,208(a0)
     90c:	68632f6f          	jal	t5,32f92 <__stack_size+0x2af92>
     910:	7069                	c.lui	zero,0xffffa
     912:	6179                	addi	sp,sp,464
     914:	6472                	ld	s0,280(sp)
     916:	7369722f          	0x7369722f
     91a:	742d7663          	bgeu	s10,sp,1066 <__stack_align+0x1056>
     91e:	736c6f6f          	jal	t5,c7054 <__stack_size+0xbf054>
     922:	692d                	lui	s2,0xb
     924:	736e                	ld	t1,248(sp)
     926:	6174                	ld	a3,192(a0)
     928:	6c6c                	ld	a1,216(s0)
     92a:	62696c2f          	0x62696c2f
     92e:	6363672f          	0x6363672f
     932:	7369722f          	0x7369722f
     936:	34367663          	bgeu	a2,gp,c82 <__stack_align+0xc72>
     93a:	752d                	lui	a0,0xfffeb
     93c:	6b6e                	ld	s6,216(sp)
     93e:	6f6e                	ld	t5,216(sp)
     940:	652d6e77          	0x652d6e77
     944:	666c                	ld	a1,200(a2)
     946:	322e392f          	0x322e392f
     94a:	302e                	fld	ft0,232(sp)
     94c:	636e692f          	0x636e692f
     950:	756c                	ld	a1,232(a0)
     952:	6564                	ld	s1,200(a0)
     954:	2f00                	fld	fs0,24(a4)
     956:	6f68                	ld	a0,216(a4)
     958:	656d                	lui	a0,0x1b
     95a:	6c61702f          	0x6c61702f
     95e:	616c                	ld	a1,192(a0)
     960:	6964                	ld	s1,208(a0)
     962:	68632f6f          	jal	t5,32fe8 <__stack_size+0x2afe8>
     966:	7069                	c.lui	zero,0xffffa
     968:	6179                	addi	sp,sp,464
     96a:	6472                	ld	s0,280(sp)
     96c:	7369722f          	0x7369722f
     970:	742d7663          	bgeu	s10,sp,10bc <__stack_align+0x10ac>
     974:	736c6f6f          	jal	t5,c70aa <__stack_size+0xbf0aa>
     978:	692d                	lui	s2,0xb
     97a:	736e                	ld	t1,248(sp)
     97c:	6174                	ld	a3,192(a0)
     97e:	6c6c                	ld	a1,216(s0)
     980:	7369722f          	0x7369722f
     984:	34367663          	bgeu	a2,gp,cd0 <__stack_align+0xcc0>
     988:	752d                	lui	a0,0xfffeb
     98a:	6b6e                	ld	s6,216(sp)
     98c:	6f6e                	ld	t5,216(sp)
     98e:	652d6e77          	0x652d6e77
     992:	666c                	ld	a1,200(a2)
     994:	636e692f          	0x636e692f
     998:	756c                	ld	a1,232(a0)
     99a:	6564                	ld	s1,200(a0)
     99c:	63616d2f          	0x63616d2f
     9a0:	6968                	ld	a0,208(a0)
     9a2:	656e                	ld	a0,216(sp)
     9a4:	2f00                	fld	fs0,24(a4)
     9a6:	6f68                	ld	a0,216(a4)
     9a8:	656d                	lui	a0,0x1b
     9aa:	6c61702f          	0x6c61702f
     9ae:	616c                	ld	a1,192(a0)
     9b0:	6964                	ld	s1,208(a0)
     9b2:	68632f6f          	jal	t5,33038 <__stack_size+0x2b038>
     9b6:	7069                	c.lui	zero,0xffffa
     9b8:	6179                	addi	sp,sp,464
     9ba:	6472                	ld	s0,280(sp)
     9bc:	7369722f          	0x7369722f
     9c0:	742d7663          	bgeu	s10,sp,110c <__stack_align+0x10fc>
     9c4:	736c6f6f          	jal	t5,c70fa <__stack_size+0xbf0fa>
     9c8:	692d                	lui	s2,0xb
     9ca:	736e                	ld	t1,248(sp)
     9cc:	6174                	ld	a3,192(a0)
     9ce:	6c6c                	ld	a1,216(s0)
     9d0:	7369722f          	0x7369722f
     9d4:	34367663          	bgeu	a2,gp,d20 <__stack_align+0xd10>
     9d8:	752d                	lui	a0,0xfffeb
     9da:	6b6e                	ld	s6,216(sp)
     9dc:	6f6e                	ld	t5,216(sp)
     9de:	652d6e77          	0x652d6e77
     9e2:	666c                	ld	a1,200(a2)
     9e4:	636e692f          	0x636e692f
     9e8:	756c                	ld	a1,232(a0)
     9ea:	6564                	ld	s1,200(a0)
     9ec:	7379732f          	0x7379732f
     9f0:	2e00                	fld	fs0,24(a2)
     9f2:	2f2e                	fld	ft10,200(sp)
     9f4:	6e69                	lui	t3,0x1a
     9f6:	64756c63          	bltu	a0,t2,104e <__stack_align+0x103e>
     9fa:	0065                	c.nop	25
     9fc:	7300                	ld	s0,32(a4)
     9fe:	7262                	ld	tp,56(sp)
     a00:	00632e6b          	0x632e6b
     a04:	0001                	nop
     a06:	7300                	ld	s0,32(a4)
     a08:	6474                	ld	a3,200(s0)
     a0a:	6564                	ld	s1,200(a0)
     a0c:	2e66                	fld	ft8,88(sp)
     a0e:	0068                	addi	a0,sp,12
     a10:	0002                	c.slli64	zero
     a12:	5f00                	lw	s0,56(a4)
     a14:	6564                	ld	s1,200(a0)
     a16:	6166                	ld	sp,88(sp)
     a18:	6c75                	lui	s8,0x1d
     a1a:	5f74                	lw	a3,124(a4)
     a1c:	7974                	ld	a3,240(a0)
     a1e:	6570                	ld	a2,200(a0)
     a20:	00682e73          	csrrs	t3,0x6,a6
     a24:	5f000003          	lb	zero,1520(zero) # 5f0 <__stack_align+0x5e0>
     a28:	7974                	ld	a3,240(a0)
     a2a:	6570                	ld	a2,200(a0)
     a2c:	00682e73          	csrrs	t3,0x6,a6
     a30:	0004                	0x4
     a32:	7200                	ld	s0,32(a2)
     a34:	6565                	lui	a0,0x19
     a36:	746e                	ld	s0,248(sp)
     a38:	682e                	ld	a6,200(sp)
     a3a:	0400                	addi	s0,sp,512
     a3c:	0000                	unimp
     a3e:	6f6c                	ld	a1,216(a4)
     a40:	682e6b63          	bltu	t3,sp,10d6 <__stack_align+0x10c6>
     a44:	0400                	addi	s0,sp,512
     a46:	0000                	unimp
     a48:	7265                	lui	tp,0xffff9
     a4a:	6e72                	ld	t3,280(sp)
     a4c:	00682e6f          	jal	t3,82a52 <__stack_size+0x7aa52>
     a50:	0004                	0x4
     a52:	5f00                	lw	s0,56(a4)
     a54:	69647473          	csrrci	s0,0x696,8
     a58:	746e                	ld	s0,248(sp)
     a5a:	682e                	ld	a6,200(sp)
     a5c:	0400                	addi	s0,sp,512
     a5e:	0000                	unimp
     a60:	7468                	ld	a0,232(s0)
     a62:	6669                	lui	a2,0x1a
     a64:	682e                	ld	a6,200(sp)
     a66:	0500                	addi	s0,sp,640
     a68:	0000                	unimp
     a6a:	0500                	addi	s0,sp,640
     a6c:	0001                	nop
     a6e:	0209                	addi	tp,tp,2
     a70:	1ffa                	slli	t6,t6,0x3e
     a72:	8000                	0x8000
     a74:	0000                	unimp
     a76:	0000                	unimp
     a78:	05010903          	lb	s2,80(sp) # 50b0aee <__stack_size+0x50a8aee>
     a7c:	0305                	addi	t1,t1,1
     a7e:	0901                	addi	s2,s2,0
     a80:	0000                	unimp
     a82:	0301                	addi	t1,t1,0
     a84:	0901                	addi	s2,s2,0
     a86:	0000                	unimp
     a88:	0301                	addi	t1,t1,0
     a8a:	0901                	addi	s2,s2,0
     a8c:	0000                	unimp
     a8e:	0301                	addi	t1,t1,0
     a90:	0902                	c.slli64	s2
     a92:	0000                	unimp
     a94:	0501                	addi	a0,a0,0
     a96:	060c                	addi	a1,sp,768
     a98:	00090003          	lb	zero,0(s2) # b000 <__stack_size+0x3000>
     a9c:	0100                	addi	s0,sp,128
     a9e:	0505                	addi	a0,a0,1
     aa0:	0306                	slli	t1,t1,0x1
     aa2:	0901                	addi	s2,s2,0
     aa4:	000a                	c.slli	zero,0x2
     aa6:	0501                	addi	a0,a0,0
     aa8:	0608                	addi	a0,sp,768
     aaa:	00090103          	lb	sp,0(s2)
     aae:	0100                	addi	s0,sp,128
     ab0:	0c05                	addi	s8,s8,1
     ab2:	04097f03          	0x4097f03
     ab6:	0100                	addi	s0,sp,128
     ab8:	0505                	addi	a0,a0,1
     aba:	0306                	slli	t1,t1,0x1
     abc:	0901                	addi	s2,s2,0
     abe:	0002                	c.slli64	zero
     ac0:	0501                	addi	a0,a0,0
     ac2:	0608                	addi	a0,sp,768
     ac4:	00090003          	lb	zero,0(s2)
     ac8:	0100                	addi	s0,sp,128
     aca:	0200                	addi	s0,sp,256
     acc:	0104                	addi	s1,sp,128
     ace:	04090003          	lb	zero,64(s2)
     ad2:	0100                	addi	s0,sp,128
     ad4:	0505                	addi	a0,a0,1
     ad6:	0306                	slli	t1,t1,0x1
     ad8:	0905                	addi	s2,s2,1
     ada:	000c                	0xc
     adc:	0501                	addi	a0,a0,0
     ade:	060c                	addi	a1,sp,768
     ae0:	00090003          	lb	zero,0(s2)
     ae4:	0100                	addi	s0,sp,128
     ae6:	0505                	addi	a0,a0,1
     ae8:	0306                	slli	t1,t1,0x1
     aea:	0901                	addi	s2,s2,0
     aec:	0002                	c.slli64	zero
     aee:	0501                	addi	a0,a0,0
     af0:	0601                	addi	a2,a2,0
     af2:	00090103          	lb	sp,0(s2)
     af6:	0100                	addi	s0,sp,128
     af8:	0905                	addi	s2,s2,1
     afa:	0306                	slli	t1,t1,0x1
     afc:	097a                	slli	s2,s2,0x1e
     afe:	0004                	0x4
     b00:	0501                	addi	a0,a0,0
     b02:	0601                	addi	a2,a2,0
     b04:	00097803          	0x97803
     b08:	0100                	addi	s0,sp,128
     b0a:	0905                	addi	s2,s2,1
     b0c:	04090803          	lb	a6,64(s2)
     b10:	0100                	addi	s0,sp,128
     b12:	0105                	addi	sp,sp,1
     b14:	04090603          	lb	a2,64(s2)
     b18:	0100                	addi	s0,sp,128
     b1a:	0f05                	addi	t5,t5,1
     b1c:	02097a03          	0x2097a03
     b20:	0100                	addi	s0,sp,128
     b22:	0905                	addi	s2,s2,1
     b24:	0306                	slli	t1,t1,0x1
     b26:	0901                	addi	s2,s2,0
     b28:	0004                	0x4
     b2a:	0501                	addi	a0,a0,0
     b2c:	0610                	addi	a2,sp,768
     b2e:	00090003          	lb	zero,0(s2)
     b32:	0100                	addi	s0,sp,128
     b34:	0105                	addi	sp,sp,1
     b36:	02090503          	lb	a0,32(s2)
     b3a:	0100                	addi	s0,sp,128
     b3c:	0609                	addi	a2,a2,2
     b3e:	0000                	unimp
     b40:	0101                	addi	sp,sp,0
     b42:	000001c7          	fmsub.s	ft3,ft0,ft0,ft0,rne
     b46:	019c0003          	lb	zero,25(s8) # 1d019 <__stack_size+0x15019>
     b4a:	0000                	unimp
     b4c:	0101                	addi	sp,sp,0
     b4e:	000d0efb          	0xd0efb
     b52:	0101                	addi	sp,sp,0
     b54:	0101                	addi	sp,sp,0
     b56:	0000                	unimp
     b58:	0100                	addi	s0,sp,128
     b5a:	0000                	unimp
     b5c:	2e01                	sext.w	t3,t3
     b5e:	2f2e                	fld	ft10,200(sp)
     b60:	00737973          	csrrci	s2,0x7,6
     b64:	6d6f682f          	0x6d6f682f
     b68:	2f65                	addiw	t5,t5,25
     b6a:	6170                	ld	a2,192(a0)
     b6c:	6c6c                	ld	a1,216(s0)
     b6e:	6461                	lui	s0,0x18
     b70:	6f69                	lui	t5,0x1a
     b72:	6968632f          	0x6968632f
     b76:	7970                	ld	a2,240(a0)
     b78:	7261                	lui	tp,0xffff8
     b7a:	2f64                	fld	fs1,216(a4)
     b7c:	6972                	ld	s2,280(sp)
     b7e:	2d766373          	csrrsi	t1,0x2d7,12
     b82:	6f74                	ld	a3,216(a4)
     b84:	2d736c6f          	jal	s8,3765a <__stack_size+0x2f65a>
     b88:	6e69                	lui	t3,0x1a
     b8a:	6c617473          	csrrci	s0,0x6c6,2
     b8e:	2f6c                	fld	fa1,216(a4)
     b90:	696c                	ld	a1,208(a0)
     b92:	2f62                	fld	ft10,24(sp)
     b94:	2f636367          	0x2f636367
     b98:	6972                	ld	s2,280(sp)
     b9a:	36766373          	csrrsi	t1,0x367,12
     b9e:	2d34                	fld	fa3,88(a0)
     ba0:	6e75                	lui	t3,0x1d
     ba2:	776f6e6b          	0x776f6e6b
     ba6:	2d6e                	fld	fs10,216(sp)
     ba8:	6c65                	lui	s8,0x19
     baa:	2f66                	fld	ft10,88(sp)
     bac:	2e39                	addiw	t3,t3,14
     bae:	2e32                	fld	ft8,264(sp)
     bb0:	2f30                	fld	fa2,88(a4)
     bb2:	6e69                	lui	t3,0x1a
     bb4:	64756c63          	bltu	a0,t2,120c <__stack_align+0x11fc>
     bb8:	0065                	c.nop	25
     bba:	6d6f682f          	0x6d6f682f
     bbe:	2f65                	addiw	t5,t5,25
     bc0:	6170                	ld	a2,192(a0)
     bc2:	6c6c                	ld	a1,216(s0)
     bc4:	6461                	lui	s0,0x18
     bc6:	6f69                	lui	t5,0x1a
     bc8:	6968632f          	0x6968632f
     bcc:	7970                	ld	a2,240(a0)
     bce:	7261                	lui	tp,0xffff8
     bd0:	2f64                	fld	fs1,216(a4)
     bd2:	6972                	ld	s2,280(sp)
     bd4:	2d766373          	csrrsi	t1,0x2d7,12
     bd8:	6f74                	ld	a3,216(a4)
     bda:	2d736c6f          	jal	s8,376b0 <__stack_size+0x2f6b0>
     bde:	6e69                	lui	t3,0x1a
     be0:	6c617473          	csrrci	s0,0x6c6,2
     be4:	2f6c                	fld	fa1,216(a4)
     be6:	6972                	ld	s2,280(sp)
     be8:	36766373          	csrrsi	t1,0x367,12
     bec:	2d34                	fld	fa3,88(a0)
     bee:	6e75                	lui	t3,0x1d
     bf0:	776f6e6b          	0x776f6e6b
     bf4:	2d6e                	fld	fs10,216(sp)
     bf6:	6c65                	lui	s8,0x19
     bf8:	2f66                	fld	ft10,88(sp)
     bfa:	6e69                	lui	t3,0x1a
     bfc:	64756c63          	bltu	a0,t2,1254 <__stack_align+0x1244>
     c00:	2f65                	addiw	t5,t5,25
     c02:	616d                	addi	sp,sp,240
     c04:	6e696863          	bltu	s2,t1,12f4 <__stack_align+0x12e4>
     c08:	0065                	c.nop	25
     c0a:	6d6f682f          	0x6d6f682f
     c0e:	2f65                	addiw	t5,t5,25
     c10:	6170                	ld	a2,192(a0)
     c12:	6c6c                	ld	a1,216(s0)
     c14:	6461                	lui	s0,0x18
     c16:	6f69                	lui	t5,0x1a
     c18:	6968632f          	0x6968632f
     c1c:	7970                	ld	a2,240(a0)
     c1e:	7261                	lui	tp,0xffff8
     c20:	2f64                	fld	fs1,216(a4)
     c22:	6972                	ld	s2,280(sp)
     c24:	2d766373          	csrrsi	t1,0x2d7,12
     c28:	6f74                	ld	a3,216(a4)
     c2a:	2d736c6f          	jal	s8,37700 <__stack_size+0x2f700>
     c2e:	6e69                	lui	t3,0x1a
     c30:	6c617473          	csrrci	s0,0x6c6,2
     c34:	2f6c                	fld	fa1,216(a4)
     c36:	6972                	ld	s2,280(sp)
     c38:	36766373          	csrrsi	t1,0x367,12
     c3c:	2d34                	fld	fa3,88(a0)
     c3e:	6e75                	lui	t3,0x1d
     c40:	776f6e6b          	0x776f6e6b
     c44:	2d6e                	fld	fs10,216(sp)
     c46:	6c65                	lui	s8,0x19
     c48:	2f66                	fld	ft10,88(sp)
     c4a:	6e69                	lui	t3,0x1a
     c4c:	64756c63          	bltu	a0,t2,12a4 <__stack_align+0x1294>
     c50:	2f65                	addiw	t5,t5,25
     c52:	00737973          	csrrci	s2,0x7,6
     c56:	2e2e                	fld	ft8,200(sp)
     c58:	636e692f          	0x636e692f
     c5c:	756c                	ld	a1,232(a0)
     c5e:	6564                	ld	s1,200(a0)
     c60:	0000                	unimp
     c62:	74697277          	0x74697277
     c66:	2e65                	addiw	t3,t3,25
     c68:	00010063          	beqz	sp,c68 <__stack_align+0xc58>
     c6c:	7300                	ld	s0,32(a4)
     c6e:	6474                	ld	a3,200(s0)
     c70:	6564                	ld	s1,200(a0)
     c72:	2e66                	fld	ft8,88(sp)
     c74:	0068                	addi	a0,sp,12
     c76:	0002                	c.slli64	zero
     c78:	5f00                	lw	s0,56(a4)
     c7a:	6564                	ld	s1,200(a0)
     c7c:	6166                	ld	sp,88(sp)
     c7e:	6c75                	lui	s8,0x1d
     c80:	5f74                	lw	a3,124(a4)
     c82:	7974                	ld	a3,240(a0)
     c84:	6570                	ld	a2,200(a0)
     c86:	00682e73          	csrrs	t3,0x6,a6
     c8a:	5f000003          	lb	zero,1520(zero) # 5f0 <__stack_align+0x5e0>
     c8e:	7974                	ld	a3,240(a0)
     c90:	6570                	ld	a2,200(a0)
     c92:	00682e73          	csrrs	t3,0x6,a6
     c96:	0004                	0x4
     c98:	7200                	ld	s0,32(a2)
     c9a:	6565                	lui	a0,0x19
     c9c:	746e                	ld	s0,248(sp)
     c9e:	682e                	ld	a6,200(sp)
     ca0:	0400                	addi	s0,sp,512
     ca2:	0000                	unimp
     ca4:	6f6c                	ld	a1,216(a4)
     ca6:	682e6b63          	bltu	t3,sp,133c <__stack_align+0x132c>
     caa:	0400                	addi	s0,sp,512
     cac:	0000                	unimp
     cae:	7265                	lui	tp,0xffff9
     cb0:	6e72                	ld	t3,280(sp)
     cb2:	00682e6f          	jal	t3,82cb8 <__stack_size+0x7acb8>
     cb6:	0004                	0x4
     cb8:	5f00                	lw	s0,56(a4)
     cba:	69647473          	csrrci	s0,0x696,8
     cbe:	746e                	ld	s0,248(sp)
     cc0:	682e                	ld	a6,200(sp)
     cc2:	0400                	addi	s0,sp,512
     cc4:	0000                	unimp
     cc6:	7974                	ld	a3,240(a0)
     cc8:	6570                	ld	a2,200(a0)
     cca:	00682e73          	csrrs	t3,0x6,a6
     cce:	0004                	0x4
     cd0:	7500                	ld	s0,40(a0)
     cd2:	696e                	ld	s2,216(sp)
     cd4:	2e647473          	csrrci	s0,0x2e6,8
     cd8:	0068                	addi	a0,sp,12
     cda:	0004                	0x4
     cdc:	6800                	ld	s0,16(s0)
     cde:	6974                	ld	a3,208(a0)
     ce0:	2e66                	fld	ft8,88(sp)
     ce2:	0068                	addi	a0,sp,12
     ce4:	0005                	c.nop	1
     ce6:	0000                	unimp
     ce8:	0105                	addi	sp,sp,1
     cea:	0900                	addi	s0,sp,144
     cec:	3602                	fld	fa2,32(sp)
     cee:	0020                	addi	s0,sp,8
     cf0:	0080                	addi	s0,sp,64
     cf2:	0000                	unimp
     cf4:	1800                	addi	s0,sp,48
     cf6:	0505                	addi	a0,a0,1
     cf8:	00090103          	lb	sp,0(s2)
     cfc:	0100                	addi	s0,sp,128
     cfe:	0c05                	addi	s8,s8,1
     d00:	0306                	slli	t1,t1,0x1
     d02:	0900                	addi	s0,sp,144
     d04:	0000                	unimp
     d06:	0901                	addi	s2,s2,0
     d08:	0006                	c.slli	zero,0x1
     d0a:	0100                	addi	s0,sp,128
     d0c:	2301                	sext.w	t1,t1
     d0e:	0004                	0x4
     d10:	0300                	addi	s0,sp,384
     d12:	2500                	fld	fs0,8(a0)
     d14:	0000                	unimp
     d16:	0100                	addi	s0,sp,128
     d18:	fb01                	bnez	a4,c28 <__stack_align+0xc18>
     d1a:	0d0e                	slli	s10,s10,0x3
     d1c:	0100                	addi	s0,sp,128
     d1e:	0101                	addi	sp,sp,0
     d20:	0001                	nop
     d22:	0000                	unimp
     d24:	0001                	nop
     d26:	0100                	addi	s0,sp,128
     d28:	2e2e                	fld	ft8,200(sp)
     d2a:	73696d2f          	0x73696d2f
     d2e:	63000063          	beq	zero,a6,134e <__stack_align+0x133e>
     d32:	7472                	ld	s0,312(sp)
     d34:	2e30                	fld	fa2,88(a2)
     d36:	00010053          	fadd.s	ft0,ft2,ft0,rne
     d3a:	0000                	unimp
     d3c:	0900                	addi	s0,sp,144
     d3e:	0002                	c.slli64	zero
     d40:	0000                	unimp
     d42:	0080                	addi	s0,sp,64
     d44:	0000                	unimp
     d46:	0300                	addi	s0,sp,384
     d48:	0109                	addi	sp,sp,2
     d4a:	02090103          	lb	sp,32(s2)
     d4e:	0100                	addi	s0,sp,128
     d50:	02090103          	lb	sp,32(s2)
     d54:	0100                	addi	s0,sp,128
     d56:	02090103          	lb	sp,32(s2)
     d5a:	0100                	addi	s0,sp,128
     d5c:	02090103          	lb	sp,32(s2)
     d60:	0100                	addi	s0,sp,128
     d62:	02090103          	lb	sp,32(s2)
     d66:	0100                	addi	s0,sp,128
     d68:	02090103          	lb	sp,32(s2)
     d6c:	0100                	addi	s0,sp,128
     d6e:	02090103          	lb	sp,32(s2)
     d72:	0100                	addi	s0,sp,128
     d74:	02090103          	lb	sp,32(s2)
     d78:	0100                	addi	s0,sp,128
     d7a:	02090103          	lb	sp,32(s2)
     d7e:	0100                	addi	s0,sp,128
     d80:	02090103          	lb	sp,32(s2)
     d84:	0100                	addi	s0,sp,128
     d86:	02090103          	lb	sp,32(s2)
     d8a:	0100                	addi	s0,sp,128
     d8c:	02090103          	lb	sp,32(s2)
     d90:	0100                	addi	s0,sp,128
     d92:	02090103          	lb	sp,32(s2)
     d96:	0100                	addi	s0,sp,128
     d98:	02090103          	lb	sp,32(s2)
     d9c:	0100                	addi	s0,sp,128
     d9e:	02090103          	lb	sp,32(s2)
     da2:	0100                	addi	s0,sp,128
     da4:	02090103          	lb	sp,32(s2)
     da8:	0100                	addi	s0,sp,128
     daa:	02090103          	lb	sp,32(s2)
     dae:	0100                	addi	s0,sp,128
     db0:	02090103          	lb	sp,32(s2)
     db4:	0100                	addi	s0,sp,128
     db6:	02090103          	lb	sp,32(s2)
     dba:	0100                	addi	s0,sp,128
     dbc:	02090103          	lb	sp,32(s2)
     dc0:	0100                	addi	s0,sp,128
     dc2:	02090103          	lb	sp,32(s2)
     dc6:	0100                	addi	s0,sp,128
     dc8:	02090103          	lb	sp,32(s2)
     dcc:	0100                	addi	s0,sp,128
     dce:	02090103          	lb	sp,32(s2)
     dd2:	0100                	addi	s0,sp,128
     dd4:	02090103          	lb	sp,32(s2)
     dd8:	0100                	addi	s0,sp,128
     dda:	02090103          	lb	sp,32(s2)
     dde:	0100                	addi	s0,sp,128
     de0:	02090103          	lb	sp,32(s2)
     de4:	0100                	addi	s0,sp,128
     de6:	02090103          	lb	sp,32(s2)
     dea:	0100                	addi	s0,sp,128
     dec:	02090103          	lb	sp,32(s2)
     df0:	0100                	addi	s0,sp,128
     df2:	02090103          	lb	sp,32(s2)
     df6:	0100                	addi	s0,sp,128
     df8:	02090103          	lb	sp,32(s2)
     dfc:	0100                	addi	s0,sp,128
     dfe:	02090203          	lb	tp,32(s2)
     e02:	0100                	addi	s0,sp,128
     e04:	02090103          	lb	sp,32(s2)
     e08:	0100                	addi	s0,sp,128
     e0a:	04090403          	lb	s0,64(s2)
     e0e:	0100                	addi	s0,sp,128
     e10:	08090103          	lb	sp,128(s2)
     e14:	0100                	addi	s0,sp,128
     e16:	04090203          	lb	tp,64(s2)
     e1a:	0100                	addi	s0,sp,128
     e1c:	04090103          	lb	sp,64(s2)
     e20:	0100                	addi	s0,sp,128
     e22:	04090103          	lb	sp,64(s2)
     e26:	0100                	addi	s0,sp,128
     e28:	04090103          	lb	sp,64(s2)
     e2c:	0100                	addi	s0,sp,128
     e2e:	04090103          	lb	sp,64(s2)
     e32:	0100                	addi	s0,sp,128
     e34:	04090103          	lb	sp,64(s2)
     e38:	0100                	addi	s0,sp,128
     e3a:	04090103          	lb	sp,64(s2)
     e3e:	0100                	addi	s0,sp,128
     e40:	04090103          	lb	sp,64(s2)
     e44:	0100                	addi	s0,sp,128
     e46:	04090103          	lb	sp,64(s2)
     e4a:	0100                	addi	s0,sp,128
     e4c:	04090103          	lb	sp,64(s2)
     e50:	0100                	addi	s0,sp,128
     e52:	04090103          	lb	sp,64(s2)
     e56:	0100                	addi	s0,sp,128
     e58:	04090103          	lb	sp,64(s2)
     e5c:	0100                	addi	s0,sp,128
     e5e:	04090103          	lb	sp,64(s2)
     e62:	0100                	addi	s0,sp,128
     e64:	04090103          	lb	sp,64(s2)
     e68:	0100                	addi	s0,sp,128
     e6a:	04090103          	lb	sp,64(s2)
     e6e:	0100                	addi	s0,sp,128
     e70:	04090103          	lb	sp,64(s2)
     e74:	0100                	addi	s0,sp,128
     e76:	04090103          	lb	sp,64(s2)
     e7a:	0100                	addi	s0,sp,128
     e7c:	04090103          	lb	sp,64(s2)
     e80:	0100                	addi	s0,sp,128
     e82:	04090103          	lb	sp,64(s2)
     e86:	0100                	addi	s0,sp,128
     e88:	04090103          	lb	sp,64(s2)
     e8c:	0100                	addi	s0,sp,128
     e8e:	04090103          	lb	sp,64(s2)
     e92:	0100                	addi	s0,sp,128
     e94:	04090103          	lb	sp,64(s2)
     e98:	0100                	addi	s0,sp,128
     e9a:	04090103          	lb	sp,64(s2)
     e9e:	0100                	addi	s0,sp,128
     ea0:	04090103          	lb	sp,64(s2)
     ea4:	0100                	addi	s0,sp,128
     ea6:	04090103          	lb	sp,64(s2)
     eaa:	0100                	addi	s0,sp,128
     eac:	04090103          	lb	sp,64(s2)
     eb0:	0100                	addi	s0,sp,128
     eb2:	04090103          	lb	sp,64(s2)
     eb6:	0100                	addi	s0,sp,128
     eb8:	04090103          	lb	sp,64(s2)
     ebc:	0100                	addi	s0,sp,128
     ebe:	04090103          	lb	sp,64(s2)
     ec2:	0100                	addi	s0,sp,128
     ec4:	04090103          	lb	sp,64(s2)
     ec8:	0100                	addi	s0,sp,128
     eca:	04090103          	lb	sp,64(s2)
     ece:	0100                	addi	s0,sp,128
     ed0:	04090103          	lb	sp,64(s2)
     ed4:	0100                	addi	s0,sp,128
     ed6:	04090103          	lb	sp,64(s2)
     eda:	0100                	addi	s0,sp,128
     edc:	04090803          	lb	a6,64(s2)
     ee0:	0100                	addi	s0,sp,128
     ee2:	08090403          	lb	s0,128(s2)
     ee6:	0100                	addi	s0,sp,128
     ee8:	04090103          	lb	sp,64(s2)
     eec:	0100                	addi	s0,sp,128
     eee:	00090103          	lb	sp,0(s2)
     ef2:	0100                	addi	s0,sp,128
     ef4:	04090103          	lb	sp,64(s2)
     ef8:	0100                	addi	s0,sp,128
     efa:	08090103          	lb	sp,128(s2)
     efe:	0100                	addi	s0,sp,128
     f00:	04090103          	lb	sp,64(s2)
     f04:	0100                	addi	s0,sp,128
     f06:	02090303          	lb	t1,32(s2)
     f0a:	0100                	addi	s0,sp,128
     f0c:	02090103          	lb	sp,32(s2)
     f10:	0100                	addi	s0,sp,128
     f12:	04090103          	lb	sp,64(s2)
     f16:	0100                	addi	s0,sp,128
     f18:	04090303          	lb	t1,64(s2)
     f1c:	0100                	addi	s0,sp,128
     f1e:	08090103          	lb	sp,128(s2)
     f22:	0100                	addi	s0,sp,128
     f24:	04090303          	lb	t1,64(s2)
     f28:	0100                	addi	s0,sp,128
     f2a:	04090303          	lb	t1,64(s2)
     f2e:	0100                	addi	s0,sp,128
     f30:	04090103          	lb	sp,64(s2)
     f34:	0100                	addi	s0,sp,128
     f36:	08090303          	lb	t1,128(s2)
     f3a:	0100                	addi	s0,sp,128
     f3c:	04090103          	lb	sp,64(s2)
     f40:	0100                	addi	s0,sp,128
     f42:	04090103          	lb	sp,64(s2)
     f46:	0100                	addi	s0,sp,128
     f48:	04090203          	lb	tp,64(s2)
     f4c:	0100                	addi	s0,sp,128
     f4e:	04090103          	lb	sp,64(s2)
     f52:	0100                	addi	s0,sp,128
     f54:	02090103          	lb	sp,32(s2)
     f58:	0100                	addi	s0,sp,128
     f5a:	04090403          	lb	s0,64(s2)
     f5e:	0100                	addi	s0,sp,128
     f60:	08090103          	lb	sp,128(s2)
     f64:	0100                	addi	s0,sp,128
     f66:	04090103          	lb	sp,64(s2)
     f6a:	0100                	addi	s0,sp,128
     f6c:	04090303          	lb	t1,64(s2)
     f70:	0100                	addi	s0,sp,128
     f72:	02090703          	lb	a4,32(s2)
     f76:	0100                	addi	s0,sp,128
     f78:	04090103          	lb	sp,64(s2)
     f7c:	0100                	addi	s0,sp,128
     f7e:	02090303          	lb	t1,32(s2)
     f82:	0100                	addi	s0,sp,128
     f84:	02090103          	lb	sp,32(s2)
     f88:	0100                	addi	s0,sp,128
     f8a:	04090103          	lb	sp,64(s2)
     f8e:	0100                	addi	s0,sp,128
     f90:	02090103          	lb	sp,32(s2)
     f94:	0100                	addi	s0,sp,128
     f96:	02090103          	lb	sp,32(s2)
     f9a:	0100                	addi	s0,sp,128
     f9c:	02090103          	lb	sp,32(s2)
     fa0:	0100                	addi	s0,sp,128
     fa2:	02090103          	lb	sp,32(s2)
     fa6:	0100                	addi	s0,sp,128
     fa8:	02090103          	lb	sp,32(s2)
     fac:	0100                	addi	s0,sp,128
     fae:	02090103          	lb	sp,32(s2)
     fb2:	0100                	addi	s0,sp,128
     fb4:	02090103          	lb	sp,32(s2)
     fb8:	0100                	addi	s0,sp,128
     fba:	02090103          	lb	sp,32(s2)
     fbe:	0100                	addi	s0,sp,128
     fc0:	02090103          	lb	sp,32(s2)
     fc4:	0100                	addi	s0,sp,128
     fc6:	02090103          	lb	sp,32(s2)
     fca:	0100                	addi	s0,sp,128
     fcc:	02090103          	lb	sp,32(s2)
     fd0:	0100                	addi	s0,sp,128
     fd2:	02090103          	lb	sp,32(s2)
     fd6:	0100                	addi	s0,sp,128
     fd8:	02090103          	lb	sp,32(s2)
     fdc:	0100                	addi	s0,sp,128
     fde:	02090103          	lb	sp,32(s2)
     fe2:	0100                	addi	s0,sp,128
     fe4:	02090103          	lb	sp,32(s2)
     fe8:	0100                	addi	s0,sp,128
     fea:	02090103          	lb	sp,32(s2)
     fee:	0100                	addi	s0,sp,128
     ff0:	02090103          	lb	sp,32(s2)
     ff4:	0100                	addi	s0,sp,128
     ff6:	02090103          	lb	sp,32(s2)
     ffa:	0100                	addi	s0,sp,128
     ffc:	02090103          	lb	sp,32(s2)
    1000:	0100                	addi	s0,sp,128
    1002:	02090103          	lb	sp,32(s2)
    1006:	0100                	addi	s0,sp,128
    1008:	02090103          	lb	sp,32(s2)
    100c:	0100                	addi	s0,sp,128
    100e:	02090103          	lb	sp,32(s2)
    1012:	0100                	addi	s0,sp,128
    1014:	02090103          	lb	sp,32(s2)
    1018:	0100                	addi	s0,sp,128
    101a:	02090103          	lb	sp,32(s2)
    101e:	0100                	addi	s0,sp,128
    1020:	02090103          	lb	sp,32(s2)
    1024:	0100                	addi	s0,sp,128
    1026:	02090103          	lb	sp,32(s2)
    102a:	0100                	addi	s0,sp,128
    102c:	02090103          	lb	sp,32(s2)
    1030:	0100                	addi	s0,sp,128
    1032:	02090103          	lb	sp,32(s2)
    1036:	0100                	addi	s0,sp,128
    1038:	02090103          	lb	sp,32(s2)
    103c:	0100                	addi	s0,sp,128
    103e:	02090303          	lb	t1,32(s2)
    1042:	0100                	addi	s0,sp,128
    1044:	04090103          	lb	sp,64(s2)
    1048:	0100                	addi	s0,sp,128
    104a:	04090103          	lb	sp,64(s2)
    104e:	0100                	addi	s0,sp,128
    1050:	04090103          	lb	sp,64(s2)
    1054:	0100                	addi	s0,sp,128
    1056:	02090103          	lb	sp,32(s2)
    105a:	0100                	addi	s0,sp,128
    105c:	04090103          	lb	sp,64(s2)
    1060:	0100                	addi	s0,sp,128
    1062:	04090303          	lb	t1,64(s2)
    1066:	0100                	addi	s0,sp,128
    1068:	08090103          	lb	sp,128(s2)
    106c:	0100                	addi	s0,sp,128
    106e:	04090203          	lb	tp,64(s2)
    1072:	0100                	addi	s0,sp,128
    1074:	02090103          	lb	sp,32(s2)
    1078:	0100                	addi	s0,sp,128
    107a:	02090103          	lb	sp,32(s2)
    107e:	0100                	addi	s0,sp,128
    1080:	02090103          	lb	sp,32(s2)
    1084:	0100                	addi	s0,sp,128
    1086:	02090103          	lb	sp,32(s2)
    108a:	0100                	addi	s0,sp,128
    108c:	02090103          	lb	sp,32(s2)
    1090:	0100                	addi	s0,sp,128
    1092:	02090103          	lb	sp,32(s2)
    1096:	0100                	addi	s0,sp,128
    1098:	02090103          	lb	sp,32(s2)
    109c:	0100                	addi	s0,sp,128
    109e:	02090103          	lb	sp,32(s2)
    10a2:	0100                	addi	s0,sp,128
    10a4:	02090103          	lb	sp,32(s2)
    10a8:	0100                	addi	s0,sp,128
    10aa:	02090103          	lb	sp,32(s2)
    10ae:	0100                	addi	s0,sp,128
    10b0:	02090103          	lb	sp,32(s2)
    10b4:	0100                	addi	s0,sp,128
    10b6:	02090103          	lb	sp,32(s2)
    10ba:	0100                	addi	s0,sp,128
    10bc:	02090103          	lb	sp,32(s2)
    10c0:	0100                	addi	s0,sp,128
    10c2:	02090103          	lb	sp,32(s2)
    10c6:	0100                	addi	s0,sp,128
    10c8:	02090103          	lb	sp,32(s2)
    10cc:	0100                	addi	s0,sp,128
    10ce:	02090103          	lb	sp,32(s2)
    10d2:	0100                	addi	s0,sp,128
    10d4:	02090103          	lb	sp,32(s2)
    10d8:	0100                	addi	s0,sp,128
    10da:	02090103          	lb	sp,32(s2)
    10de:	0100                	addi	s0,sp,128
    10e0:	02090103          	lb	sp,32(s2)
    10e4:	0100                	addi	s0,sp,128
    10e6:	02090103          	lb	sp,32(s2)
    10ea:	0100                	addi	s0,sp,128
    10ec:	02090103          	lb	sp,32(s2)
    10f0:	0100                	addi	s0,sp,128
    10f2:	02090103          	lb	sp,32(s2)
    10f6:	0100                	addi	s0,sp,128
    10f8:	02090103          	lb	sp,32(s2)
    10fc:	0100                	addi	s0,sp,128
    10fe:	02090103          	lb	sp,32(s2)
    1102:	0100                	addi	s0,sp,128
    1104:	02090103          	lb	sp,32(s2)
    1108:	0100                	addi	s0,sp,128
    110a:	02090103          	lb	sp,32(s2)
    110e:	0100                	addi	s0,sp,128
    1110:	02090103          	lb	sp,32(s2)
    1114:	0100                	addi	s0,sp,128
    1116:	02090103          	lb	sp,32(s2)
    111a:	0100                	addi	s0,sp,128
    111c:	02090103          	lb	sp,32(s2)
    1120:	0100                	addi	s0,sp,128
    1122:	02090203          	lb	tp,32(s2)
    1126:	0100                	addi	s0,sp,128
    1128:	02090203          	lb	tp,32(s2)
    112c:	0100                	addi	s0,sp,128
    112e:	0409                	addi	s0,s0,2
    1130:	0000                	unimp
    1132:	0101                	addi	sp,sp,0
    1134:	0054                	addi	a3,sp,4
    1136:	0000                	unimp
    1138:	00280003          	lb	zero,2(a6)
    113c:	0000                	unimp
    113e:	0101                	addi	sp,sp,0
    1140:	000d0efb          	0xd0efb
    1144:	0101                	addi	sp,sp,0
    1146:	0101                	addi	sp,sp,0
    1148:	0000                	unimp
    114a:	0100                	addi	s0,sp,128
    114c:	0000                	unimp
    114e:	2e01                	sext.w	t3,t3
    1150:	2f2e                	fld	ft10,200(sp)
    1152:	696d                	lui	s2,0x1b
    1154:	00006373          	csrrsi	t1,ustatus,0
    1158:	6d747263          	bgeu	s0,s7,181c <__stack_align+0x180c>
    115c:	6961                	lui	s2,0x18
    115e:	2e6e                	fld	ft8,216(sp)
    1160:	00010053          	fadd.s	ft0,ft2,ft0,rne
    1164:	0000                	unimp
    1166:	0900                	addi	s0,sp,144
    1168:	ee02                	sd	zero,280(sp)
    116a:	0001                	nop
    116c:	0080                	addi	s0,sp,64
    116e:	0000                	unimp
    1170:	0300                	addi	s0,sp,384
    1172:	0110                	addi	a2,sp,128
    1174:	0a090103          	lb	sp,160(s2) # 180a0 <__stack_size+0x100a0>
    1178:	0100                	addi	s0,sp,128
    117a:	16090603          	lb	a2,352(s2)
    117e:	0100                	addi	s0,sp,128
    1180:	0c090103          	lb	sp,192(s2)
    1184:	0100                	addi	s0,sp,128
    1186:	1609                	addi	a2,a2,-30
    1188:	0000                	unimp
    118a:	0101                	addi	sp,sp,0
    118c:	0171                	addi	sp,sp,28
    118e:	0000                	unimp
    1190:	01050003          	lb	zero,16(a0) # 19010 <__stack_size+0x11010>
    1194:	0000                	unimp
    1196:	0101                	addi	sp,sp,0
    1198:	000d0efb          	0xd0efb
    119c:	0101                	addi	sp,sp,0
    119e:	0101                	addi	sp,sp,0
    11a0:	0000                	unimp
    11a2:	0100                	addi	s0,sp,128
    11a4:	0000                	unimp
    11a6:	2e01                	sext.w	t3,t3
    11a8:	2f2e                	fld	ft10,200(sp)
    11aa:	696d                	lui	s2,0x1b
    11ac:	2f006373          	csrrsi	t1,0x2f0,0
    11b0:	6f68                	ld	a0,216(a4)
    11b2:	656d                	lui	a0,0x1b
    11b4:	6c61702f          	0x6c61702f
    11b8:	616c                	ld	a1,192(a0)
    11ba:	6964                	ld	s1,208(a0)
    11bc:	68632f6f          	jal	t5,33842 <__stack_size+0x2b842>
    11c0:	7069                	c.lui	zero,0xffffa
    11c2:	6179                	addi	sp,sp,464
    11c4:	6472                	ld	s0,280(sp)
    11c6:	7369722f          	0x7369722f
    11ca:	742d7663          	bgeu	s10,sp,1916 <__stack_align+0x1906>
    11ce:	736c6f6f          	jal	t5,c7904 <__stack_size+0xbf904>
    11d2:	692d                	lui	s2,0xb
    11d4:	736e                	ld	t1,248(sp)
    11d6:	6174                	ld	a3,192(a0)
    11d8:	6c6c                	ld	a1,216(s0)
    11da:	7369722f          	0x7369722f
    11de:	34367663          	bgeu	a2,gp,152a <__stack_align+0x151a>
    11e2:	752d                	lui	a0,0xfffeb
    11e4:	6b6e                	ld	s6,216(sp)
    11e6:	6f6e                	ld	t5,216(sp)
    11e8:	652d6e77          	0x652d6e77
    11ec:	666c                	ld	a1,200(a2)
    11ee:	636e692f          	0x636e692f
    11f2:	756c                	ld	a1,232(a0)
    11f4:	6564                	ld	s1,200(a0)
    11f6:	63616d2f          	0x63616d2f
    11fa:	6968                	ld	a0,208(a0)
    11fc:	656e                	ld	a0,216(sp)
    11fe:	2f00                	fld	fs0,24(a4)
    1200:	6f68                	ld	a0,216(a4)
    1202:	656d                	lui	a0,0x1b
    1204:	6c61702f          	0x6c61702f
    1208:	616c                	ld	a1,192(a0)
    120a:	6964                	ld	s1,208(a0)
    120c:	68632f6f          	jal	t5,33892 <__stack_size+0x2b892>
    1210:	7069                	c.lui	zero,0xffffa
    1212:	6179                	addi	sp,sp,464
    1214:	6472                	ld	s0,280(sp)
    1216:	7369722f          	0x7369722f
    121a:	742d7663          	bgeu	s10,sp,1966 <__stack_align+0x1956>
    121e:	736c6f6f          	jal	t5,c7954 <__stack_size+0xbf954>
    1222:	692d                	lui	s2,0xb
    1224:	736e                	ld	t1,248(sp)
    1226:	6174                	ld	a3,192(a0)
    1228:	6c6c                	ld	a1,216(s0)
    122a:	7369722f          	0x7369722f
    122e:	34367663          	bgeu	a2,gp,157a <__stack_align+0x156a>
    1232:	752d                	lui	a0,0xfffeb
    1234:	6b6e                	ld	s6,216(sp)
    1236:	6f6e                	ld	t5,216(sp)
    1238:	652d6e77          	0x652d6e77
    123c:	666c                	ld	a1,200(a2)
    123e:	636e692f          	0x636e692f
    1242:	756c                	ld	a1,232(a0)
    1244:	6564                	ld	s1,200(a0)
    1246:	7379732f          	0x7379732f
    124a:	2e00                	fld	fs0,24(a2)
    124c:	2f2e                	fld	ft10,200(sp)
    124e:	6e69                	lui	t3,0x1a
    1250:	64756c63          	bltu	a0,t2,18a8 <__stack_align+0x1898>
    1254:	0065                	c.nop	25
    1256:	7400                	ld	s0,40(s0)
    1258:	6172                	ld	sp,280(sp)
    125a:	7370                	ld	a2,224(a4)
    125c:	632e                	ld	t1,200(sp)
    125e:	0100                	addi	s0,sp,128
    1260:	0000                	unimp
    1262:	645f 6665 7561      	0x75616665645f
    1268:	746c                	ld	a1,232(s0)
    126a:	745f 7079 7365      	0x73657079745f
    1270:	682e                	ld	a6,200(sp)
    1272:	0200                	addi	s0,sp,256
    1274:	0000                	unimp
    1276:	735f 6474 6e69      	0x6e696474735f
    127c:	2e74                	fld	fa3,216(a2)
    127e:	0068                	addi	a0,sp,12
    1280:	68000003          	lb	zero,1664(zero) # 680 <__stack_align+0x670>
    1284:	6974                	ld	a3,208(a0)
    1286:	2e66                	fld	ft8,88(sp)
    1288:	0068                	addi	a0,sp,12
    128a:	0004                	0x4
    128c:	7300                	ld	s0,32(a4)
    128e:	7379                	lui	t1,0xffffe
    1290:	6c6c6163          	bltu	s8,t1,1952 <__stack_align+0x1942>
    1294:	682e                	ld	a6,200(sp)
    1296:	0400                	addi	s0,sp,512
    1298:	0000                	unimp
    129a:	0500                	addi	s0,sp,640
    129c:	0001                	nop
    129e:	0209                	addi	tp,tp,2
    12a0:	203c                	fld	fa5,64(s0)
    12a2:	8000                	0x8000
    12a4:	0000                	unimp
    12a6:	0000                	unimp
    12a8:	0516                	slli	a0,a0,0x5
    12aa:	0305                	addi	t1,t1,1
    12ac:	0902                	c.slli64	s2
    12ae:	0000                	unimp
    12b0:	0501                	addi	a0,a0,0
    12b2:	0601                	addi	a2,a2,0
    12b4:	00097e03          	0x97e03
    12b8:	0100                	addi	s0,sp,128
    12ba:	0905                	addi	s2,s2,1
    12bc:	02090203          	lb	tp,32(s2) # b020 <__stack_size+0x3020>
    12c0:	0100                	addi	s0,sp,128
    12c2:	0105                	addi	sp,sp,1
    12c4:	04097e03          	0x4097e03
    12c8:	0100                	addi	s0,sp,128
    12ca:	0905                	addi	s2,s2,1
    12cc:	02090203          	lb	tp,32(s2)
    12d0:	0100                	addi	s0,sp,128
    12d2:	0505                	addi	a0,a0,1
    12d4:	0306                	slli	t1,t1,0x1
    12d6:	0902                	c.slli64	s2
    12d8:	0002                	c.slli64	zero
    12da:	0501                	addi	a0,a0,0
    12dc:	062a                	slli	a2,a2,0xa
    12de:	00090003          	lb	zero,0(s2)
    12e2:	0100                	addi	s0,sp,128
    12e4:	0200                	addi	s0,sp,256
    12e6:	0104                	addi	s1,sp,128
    12e8:	04090003          	lb	zero,64(s2)
    12ec:	0100                	addi	s0,sp,128
    12ee:	0505                	addi	a0,a0,1
    12f0:	0200                	addi	s0,sp,256
    12f2:	0404                	addi	s1,sp,512
    12f4:	0306                	slli	t1,t1,0x1
    12f6:	0901                	addi	s2,s2,0
    12f8:	0004                	0x4
    12fa:	0901                	addi	s2,s2,0
    12fc:	0004                	0x4
    12fe:	0100                	addi	s0,sp,128
    1300:	e001                	bnez	s0,1300 <__stack_align+0x12f0>
    1302:	0001                	nop
    1304:	0300                	addi	s0,sp,384
    1306:	4700                	lw	s0,8(a4)
    1308:	0001                	nop
    130a:	0100                	addi	s0,sp,128
    130c:	fb01                	bnez	a4,121c <__stack_align+0x120c>
    130e:	0d0e                	slli	s10,s10,0x3
    1310:	0100                	addi	s0,sp,128
    1312:	0101                	addi	sp,sp,0
    1314:	0001                	nop
    1316:	0000                	unimp
    1318:	0001                	nop
    131a:	0100                	addi	s0,sp,128
    131c:	2e2e                	fld	ft8,200(sp)
    131e:	73696d2f          	0x73696d2f
    1322:	682f0063          	beq	t5,sp,19a2 <__stack_align+0x1992>
    1326:	2f656d6f          	jal	s10,5761c <__stack_size+0x4f61c>
    132a:	6170                	ld	a2,192(a0)
    132c:	6c6c                	ld	a1,216(s0)
    132e:	6461                	lui	s0,0x18
    1330:	6f69                	lui	t5,0x1a
    1332:	6968632f          	0x6968632f
    1336:	7970                	ld	a2,240(a0)
    1338:	7261                	lui	tp,0xffff8
    133a:	2f64                	fld	fs1,216(a4)
    133c:	6972                	ld	s2,280(sp)
    133e:	2d766373          	csrrsi	t1,0x2d7,12
    1342:	6f74                	ld	a3,216(a4)
    1344:	2d736c6f          	jal	s8,37e1a <__stack_size+0x2fe1a>
    1348:	6e69                	lui	t3,0x1a
    134a:	6c617473          	csrrci	s0,0x6c6,2
    134e:	2f6c                	fld	fa1,216(a4)
    1350:	696c                	ld	a1,208(a0)
    1352:	2f62                	fld	ft10,24(sp)
    1354:	2f636367          	0x2f636367
    1358:	6972                	ld	s2,280(sp)
    135a:	36766373          	csrrsi	t1,0x367,12
    135e:	2d34                	fld	fa3,88(a0)
    1360:	6e75                	lui	t3,0x1d
    1362:	776f6e6b          	0x776f6e6b
    1366:	2d6e                	fld	fs10,216(sp)
    1368:	6c65                	lui	s8,0x19
    136a:	2f66                	fld	ft10,88(sp)
    136c:	2e39                	addiw	t3,t3,14
    136e:	2e32                	fld	ft8,264(sp)
    1370:	2f30                	fld	fa2,88(a4)
    1372:	6e69                	lui	t3,0x1a
    1374:	64756c63          	bltu	a0,t2,19cc <__stack_align+0x19bc>
    1378:	0065                	c.nop	25
    137a:	6d6f682f          	0x6d6f682f
    137e:	2f65                	addiw	t5,t5,25
    1380:	6170                	ld	a2,192(a0)
    1382:	6c6c                	ld	a1,216(s0)
    1384:	6461                	lui	s0,0x18
    1386:	6f69                	lui	t5,0x1a
    1388:	6968632f          	0x6968632f
    138c:	7970                	ld	a2,240(a0)
    138e:	7261                	lui	tp,0xffff8
    1390:	2f64                	fld	fs1,216(a4)
    1392:	6972                	ld	s2,280(sp)
    1394:	2d766373          	csrrsi	t1,0x2d7,12
    1398:	6f74                	ld	a3,216(a4)
    139a:	2d736c6f          	jal	s8,37e70 <__stack_size+0x2fe70>
    139e:	6e69                	lui	t3,0x1a
    13a0:	6c617473          	csrrci	s0,0x6c6,2
    13a4:	2f6c                	fld	fa1,216(a4)
    13a6:	6972                	ld	s2,280(sp)
    13a8:	36766373          	csrrsi	t1,0x367,12
    13ac:	2d34                	fld	fa3,88(a0)
    13ae:	6e75                	lui	t3,0x1d
    13b0:	776f6e6b          	0x776f6e6b
    13b4:	2d6e                	fld	fs10,216(sp)
    13b6:	6c65                	lui	s8,0x19
    13b8:	2f66                	fld	ft10,88(sp)
    13ba:	6e69                	lui	t3,0x1a
    13bc:	64756c63          	bltu	a0,t2,1a14 <__stack_align+0x1a04>
    13c0:	2f65                	addiw	t5,t5,25
    13c2:	00737973          	csrrci	s2,0x7,6
    13c6:	6d6f682f          	0x6d6f682f
    13ca:	2f65                	addiw	t5,t5,25
    13cc:	6170                	ld	a2,192(a0)
    13ce:	6c6c                	ld	a1,216(s0)
    13d0:	6461                	lui	s0,0x18
    13d2:	6f69                	lui	t5,0x1a
    13d4:	6968632f          	0x6968632f
    13d8:	7970                	ld	a2,240(a0)
    13da:	7261                	lui	tp,0xffff8
    13dc:	2f64                	fld	fs1,216(a4)
    13de:	6972                	ld	s2,280(sp)
    13e0:	2d766373          	csrrsi	t1,0x2d7,12
    13e4:	6f74                	ld	a3,216(a4)
    13e6:	2d736c6f          	jal	s8,37ebc <__stack_size+0x2febc>
    13ea:	6e69                	lui	t3,0x1a
    13ec:	6c617473          	csrrci	s0,0x6c6,2
    13f0:	2f6c                	fld	fa1,216(a4)
    13f2:	6972                	ld	s2,280(sp)
    13f4:	36766373          	csrrsi	t1,0x367,12
    13f8:	2d34                	fld	fa3,88(a0)
    13fa:	6e75                	lui	t3,0x1d
    13fc:	776f6e6b          	0x776f6e6b
    1400:	2d6e                	fld	fs10,216(sp)
    1402:	6c65                	lui	s8,0x19
    1404:	2f66                	fld	ft10,88(sp)
    1406:	6e69                	lui	t3,0x1a
    1408:	64756c63          	bltu	a0,t2,1a60 <__stack_align+0x1a50>
    140c:	0065                	c.nop	25
    140e:	7400                	ld	s0,40(s0)
    1410:	736c                	ld	a1,224(a4)
    1412:	632e                	ld	t1,200(sp)
    1414:	0100                	addi	s0,sp,128
    1416:	0000                	unimp
    1418:	64647473          	csrrci	s0,0x646,8
    141c:	6665                	lui	a2,0x19
    141e:	682e                	ld	a6,200(sp)
    1420:	0200                	addi	s0,sp,256
    1422:	0000                	unimp
    1424:	745f 7079 7365      	0x73657079745f
    142a:	682e                	ld	a6,200(sp)
    142c:	0300                	addi	s0,sp,384
    142e:	0000                	unimp
    1430:	6572                	ld	a0,280(sp)
    1432:	6e65                	lui	t3,0x19
    1434:	2e74                	fld	fa3,216(a2)
    1436:	0068                	addi	a0,sp,12
    1438:	6c000003          	lb	zero,1728(zero) # 6c0 <__stack_align+0x6b0>
    143c:	2e6b636f          	jal	t1,b7722 <__stack_size+0xaf722>
    1440:	0068                	addi	a0,sp,12
    1442:	73000003          	lb	zero,1840(zero) # 730 <__stack_align+0x720>
    1446:	7274                	ld	a3,224(a2)
    1448:	6e69                	lui	t3,0x1a
    144a:	00682e67          	0x682e67
    144e:	0004                	0x4
    1450:	0000                	unimp
    1452:	0105                	addi	sp,sp,1
    1454:	0900                	addi	s0,sp,144
    1456:	5202                	lw	tp,32(sp)
    1458:	0020                	addi	s0,sp,8
    145a:	0080                	addi	s0,sp,64
    145c:	0000                	unimp
    145e:	1500                	addi	s0,sp,672
    1460:	0505                	addi	a0,a0,1
    1462:	00090103          	lb	sp,0(s2)
    1466:	0100                	addi	s0,sp,128
    1468:	00090103          	lb	sp,0(s2)
    146c:	0100                	addi	s0,sp,128
    146e:	00090103          	lb	sp,0(s2)
    1472:	0100                	addi	s0,sp,128
    1474:	00090103          	lb	sp,0(s2)
    1478:	0100                	addi	s0,sp,128
    147a:	00090103          	lb	sp,0(s2)
    147e:	0100                	addi	s0,sp,128
    1480:	00090203          	lb	tp,0(s2)
    1484:	0100                	addi	s0,sp,128
    1486:	0105                	addi	sp,sp,1
    1488:	0306                	slli	t1,t1,0x1
    148a:	0979                	addi	s2,s2,30
    148c:	0000                	unimp
    148e:	0501                	addi	a0,a0,0
    1490:	0305                	addi	t1,t1,1
    1492:	00020907          	0x20907
    1496:	0501                	addi	a0,a0,0
    1498:	0301                	addi	t1,t1,0
    149a:	0979                	addi	s2,s2,30
    149c:	000e                	c.slli	zero,0x3
    149e:	0501                	addi	a0,a0,0
    14a0:	0305                	addi	t1,t1,1
    14a2:	00040907          	0x40907
    14a6:	0601                	addi	a2,a2,0
    14a8:	06090103          	lb	sp,96(s2)
    14ac:	0100                	addi	s0,sp,128
    14ae:	0105                	addi	sp,sp,1
    14b0:	0306                	slli	t1,t1,0x1
    14b2:	0901                	addi	s2,s2,0
    14b4:	0006                	c.slli	zero,0x1
    14b6:	0501                	addi	a0,a0,0
    14b8:	0305                	addi	t1,t1,1
    14ba:	097f                	0x97f
    14bc:	0004                	0x4
    14be:	0501                	addi	a0,a0,0
    14c0:	0301                	addi	t1,t1,0
    14c2:	0901                	addi	s2,s2,0
    14c4:	0004                	0x4
    14c6:	0501                	addi	a0,a0,0
    14c8:	0305                	addi	t1,t1,1
    14ca:	097f                	0x97f
    14cc:	0000                	unimp
    14ce:	0501                	addi	a0,a0,0
    14d0:	0301                	addi	t1,t1,0
    14d2:	0901                	addi	s2,s2,0
    14d4:	0002                	c.slli64	zero
    14d6:	0501                	addi	a0,a0,0
    14d8:	0305                	addi	t1,t1,1
    14da:	097f                	0x97f
    14dc:	0002                	c.slli64	zero
    14de:	0901                	addi	s2,s2,0
    14e0:	0004                	0x4
    14e2:	0100                	addi	s0,sp,128
    14e4:	6301                	0x6301
    14e6:	0000                	unimp
    14e8:	0300                	addi	s0,sp,384
    14ea:	2500                	fld	fs0,8(a0)
    14ec:	0000                	unimp
    14ee:	0100                	addi	s0,sp,128
    14f0:	fb01                	bnez	a4,1400 <__stack_align+0x13f0>
    14f2:	0d0e                	slli	s10,s10,0x3
    14f4:	0100                	addi	s0,sp,128
    14f6:	0101                	addi	sp,sp,0
    14f8:	0001                	nop
    14fa:	0000                	unimp
    14fc:	0001                	nop
    14fe:	0100                	addi	s0,sp,128
    1500:	2e2e                	fld	ft8,200(sp)
    1502:	73696d2f          	0x73696d2f
    1506:	6d000063          	beq	zero,a6,1bc6 <__stack_align+0x1bb6>
    150a:	6961                	lui	s2,0x18
    150c:	2e6e                	fld	ft8,216(sp)
    150e:	00010063          	beqz	sp,150e <__stack_align+0x14fe>
    1512:	0000                	unimp
    1514:	0105                	addi	sp,sp,1
    1516:	0900                	addi	s0,sp,144
    1518:	8202                	jr	tp
    151a:	0020                	addi	s0,sp,8
    151c:	0080                	addi	s0,sp,64
    151e:	0000                	unimp
    1520:	1900                	addi	s0,sp,176
    1522:	0505                	addi	a0,a0,1
    1524:	0200                	addi	s0,sp,256
    1526:	0104                	addi	s1,sp,128
    1528:	00090103          	lb	sp,0(s2) # 18000 <__stack_size+0x10000>
    152c:	0100                	addi	s0,sp,128
    152e:	0905                	addi	s2,s2,1
    1530:	0200                	addi	s0,sp,256
    1532:	0104                	addi	s1,sp,128
    1534:	00090103          	lb	sp,0(s2)
    1538:	0100                	addi	s0,sp,128
    153a:	0b05                	addi	s6,s6,1
    153c:	0200                	addi	s0,sp,256
    153e:	0104                	addi	s1,sp,128
    1540:	04097f03          	0x4097f03
    1544:	0100                	addi	s0,sp,128
    1546:	0209                	addi	tp,tp,2
    1548:	0000                	unimp
    154a:	0101                	addi	sp,sp,0
    154c:	02c4                	addi	s1,sp,324
    154e:	0000                	unimp
    1550:	01110003          	lb	zero,17(sp)
    1554:	0000                	unimp
    1556:	0101                	addi	sp,sp,0
    1558:	000d0efb          	0xd0efb
    155c:	0101                	addi	sp,sp,0
    155e:	0101                	addi	sp,sp,0
    1560:	0000                	unimp
    1562:	0100                	addi	s0,sp,128
    1564:	0000                	unimp
    1566:	2e01                	sext.w	t3,t3
    1568:	2f2e                	fld	ft10,200(sp)
    156a:	696d                	lui	s2,0x1b
    156c:	2e006373          	csrrsi	t1,0x2e0,0
    1570:	2f2e                	fld	ft10,200(sp)
    1572:	6e69                	lui	t3,0x1a
    1574:	64756c63          	bltu	a0,t2,1bcc <__stack_align+0x1bbc>
    1578:	0065                	c.nop	25
    157a:	6d6f682f          	0x6d6f682f
    157e:	2f65                	addiw	t5,t5,25
    1580:	6170                	ld	a2,192(a0)
    1582:	6c6c                	ld	a1,216(s0)
    1584:	6461                	lui	s0,0x18
    1586:	6f69                	lui	t5,0x1a
    1588:	6968632f          	0x6968632f
    158c:	7970                	ld	a2,240(a0)
    158e:	7261                	lui	tp,0xffff8
    1590:	2f64                	fld	fs1,216(a4)
    1592:	6972                	ld	s2,280(sp)
    1594:	2d766373          	csrrsi	t1,0x2d7,12
    1598:	6f74                	ld	a3,216(a4)
    159a:	2d736c6f          	jal	s8,38070 <__stack_size+0x30070>
    159e:	6e69                	lui	t3,0x1a
    15a0:	6c617473          	csrrci	s0,0x6c6,2
    15a4:	2f6c                	fld	fa1,216(a4)
    15a6:	6972                	ld	s2,280(sp)
    15a8:	36766373          	csrrsi	t1,0x367,12
    15ac:	2d34                	fld	fa3,88(a0)
    15ae:	6e75                	lui	t3,0x1d
    15b0:	776f6e6b          	0x776f6e6b
    15b4:	2d6e                	fld	fs10,216(sp)
    15b6:	6c65                	lui	s8,0x19
    15b8:	2f66                	fld	ft10,88(sp)
    15ba:	6e69                	lui	t3,0x1a
    15bc:	64756c63          	bltu	a0,t2,1c14 <__stack_align+0x1c04>
    15c0:	2f65                	addiw	t5,t5,25
    15c2:	616d                	addi	sp,sp,240
    15c4:	6e696863          	bltu	s2,t1,1cb4 <__stack_align+0x1ca4>
    15c8:	0065                	c.nop	25
    15ca:	6d6f682f          	0x6d6f682f
    15ce:	2f65                	addiw	t5,t5,25
    15d0:	6170                	ld	a2,192(a0)
    15d2:	6c6c                	ld	a1,216(s0)
    15d4:	6461                	lui	s0,0x18
    15d6:	6f69                	lui	t5,0x1a
    15d8:	6968632f          	0x6968632f
    15dc:	7970                	ld	a2,240(a0)
    15de:	7261                	lui	tp,0xffff8
    15e0:	2f64                	fld	fs1,216(a4)
    15e2:	6972                	ld	s2,280(sp)
    15e4:	2d766373          	csrrsi	t1,0x2d7,12
    15e8:	6f74                	ld	a3,216(a4)
    15ea:	2d736c6f          	jal	s8,380c0 <__stack_size+0x300c0>
    15ee:	6e69                	lui	t3,0x1a
    15f0:	6c617473          	csrrci	s0,0x6c6,2
    15f4:	2f6c                	fld	fa1,216(a4)
    15f6:	6972                	ld	s2,280(sp)
    15f8:	36766373          	csrrsi	t1,0x367,12
    15fc:	2d34                	fld	fa3,88(a0)
    15fe:	6e75                	lui	t3,0x1d
    1600:	776f6e6b          	0x776f6e6b
    1604:	2d6e                	fld	fs10,216(sp)
    1606:	6c65                	lui	s8,0x19
    1608:	2f66                	fld	ft10,88(sp)
    160a:	6e69                	lui	t3,0x1a
    160c:	64756c63          	bltu	a0,t2,1c64 <__stack_align+0x1c54>
    1610:	2f65                	addiw	t5,t5,25
    1612:	00737973          	csrrci	s2,0x7,6
    1616:	6800                	ld	s0,16(s0)
    1618:	6974                	ld	a3,208(a0)
    161a:	2e66                	fld	ft8,88(sp)
    161c:	00010063          	beqz	sp,161c <__stack_align+0x160c>
    1620:	6100                	ld	s0,0(a0)
    1622:	6f74                	ld	a3,216(a4)
    1624:	696d                	lui	s2,0x1b
    1626:	00682e63          	0x682e63
    162a:	0002                	c.slli64	zero
    162c:	7300                	ld	s0,32(a4)
    162e:	6970                	ld	a2,208(a0)
    1630:	6c6e                	ld	s8,216(sp)
    1632:	2e6b636f          	jal	t1,b7918 <__stack_size+0xaf918>
    1636:	0068                	addi	a0,sp,12
    1638:	0002                	c.slli64	zero
    163a:	5f00                	lw	s0,56(a4)
    163c:	6564                	ld	s1,200(a0)
    163e:	6166                	ld	sp,88(sp)
    1640:	6c75                	lui	s8,0x1d
    1642:	5f74                	lw	a3,124(a4)
    1644:	7974                	ld	a3,240(a0)
    1646:	6570                	ld	a2,200(a0)
    1648:	00682e73          	csrrs	t3,0x6,a6
    164c:	5f000003          	lb	zero,1520(zero) # 5f0 <__stack_align+0x5e0>
    1650:	69647473          	csrrci	s0,0x696,8
    1654:	746e                	ld	s0,248(sp)
    1656:	682e                	ld	a6,200(sp)
    1658:	0400                	addi	s0,sp,512
    165a:	0000                	unimp
    165c:	7468                	ld	a0,232(s0)
    165e:	6669                	lui	a2,0x1a
    1660:	682e                	ld	a6,200(sp)
    1662:	0200                	addi	s0,sp,256
    1664:	0000                	unimp
    1666:	0500                	addi	s0,sp,640
    1668:	0001                	nop
    166a:	0209                	addi	tp,tp,2
    166c:	2088                	fld	fa0,0(s1)
    166e:	8000                	0x8000
    1670:	0000                	unimp
    1672:	0000                	unimp
    1674:	05010c03          	lb	s8,80(sp)
    1678:	0305                	addi	t1,t1,1
    167a:	0901                	addi	s2,s2,0
    167c:	0000                	unimp
    167e:	0301                	addi	t1,t1,0
    1680:	0901                	addi	s2,s2,0
    1682:	0000                	unimp
    1684:	0301                	addi	t1,t1,0
    1686:	0902                	c.slli64	s2
    1688:	0000                	unimp
    168a:	0501                	addi	a0,a0,0
    168c:	0601                	addi	a2,a2,0
    168e:	00097c03          	0x97c03
    1692:	0100                	addi	s0,sp,128
    1694:	0c05                	addi	s8,s8,1
    1696:	02090403          	lb	s0,32(s2) # 1b020 <__stack_size+0x13020>
    169a:	0100                	addi	s0,sp,128
    169c:	0505                	addi	a0,a0,1
    169e:	0306                	slli	t1,t1,0x1
    16a0:	0901                	addi	s2,s2,0
    16a2:	0002                	c.slli64	zero
    16a4:	0501                	addi	a0,a0,0
    16a6:	060c                	addi	a1,sp,768
    16a8:	00090003          	lb	zero,0(s2)
    16ac:	0100                	addi	s0,sp,128
    16ae:	0505                	addi	a0,a0,1
    16b0:	0306                	slli	t1,t1,0x1
    16b2:	0901                	addi	s2,s2,0
    16b4:	0002                	c.slli64	zero
    16b6:	0501                	addi	a0,a0,0
    16b8:	060c                	addi	a1,sp,768
    16ba:	00090003          	lb	zero,0(s2)
    16be:	0100                	addi	s0,sp,128
    16c0:	0505                	addi	a0,a0,1
    16c2:	0306                	slli	t1,t1,0x1
    16c4:	0901                	addi	s2,s2,0
    16c6:	0002                	c.slli64	zero
    16c8:	0501                	addi	a0,a0,0
    16ca:	0608                	addi	a0,sp,768
    16cc:	00090203          	lb	tp,0(s2)
    16d0:	0100                	addi	s0,sp,128
    16d2:	0c05                	addi	s8,s8,1
    16d4:	02097e03          	0x2097e03
    16d8:	0100                	addi	s0,sp,128
    16da:	0505                	addi	a0,a0,1
    16dc:	0306                	slli	t1,t1,0x1
    16de:	0902                	c.slli64	s2
    16e0:	0002                	c.slli64	zero
    16e2:	0501                	addi	a0,a0,0
    16e4:	0608                	addi	a0,sp,768
    16e6:	00090003          	lb	zero,0(s2)
    16ea:	0100                	addi	s0,sp,128
    16ec:	0505                	addi	a0,a0,1
    16ee:	0306                	slli	t1,t1,0x1
    16f0:	0901                	addi	s2,s2,0
    16f2:	0006                	c.slli	zero,0x1
    16f4:	0401                	addi	s0,s0,0
    16f6:	0602                	c.slli64	a2
    16f8:	04091503          	lh	a0,64(s2)
    16fc:	0100                	addi	s0,sp,128
    16fe:	0304                	addi	s1,sp,384
    1700:	2905                	addiw	s2,s2,1
    1702:	0306                	slli	t1,t1,0x1
    1704:	0964                	addi	s1,sp,156
    1706:	0002                	c.slli64	zero
    1708:	0501                	addi	a0,a0,0
    170a:	0900030f          	0x900030f
    170e:	0000                	unimp
    1710:	0401                	addi	s0,s0,0
    1712:	0502                	c.slli64	a0
    1714:	0305                	addi	t1,t1,1
    1716:	0910                	addi	a2,sp,144
    1718:	0000                	unimp
    171a:	0501                	addi	a0,a0,0
    171c:	060c                	addi	a1,sp,768
    171e:	00090003          	lb	zero,0(s2)
    1722:	0100                	addi	s0,sp,128
    1724:	0304                	addi	s1,sp,384
    1726:	0f05                	addi	t5,t5,1
    1728:	04097003          	0x4097003
    172c:	0100                	addi	s0,sp,128
    172e:	0d05                	addi	s10,s10,1
    1730:	0306                	slli	t1,t1,0x1
    1732:	0902                	c.slli64	s2
    1734:	0002                	c.slli64	zero
    1736:	0401                	addi	s0,s0,0
    1738:	0502                	c.slli64	a0
    173a:	0305                	addi	t1,t1,1
    173c:	0918                	addi	a4,sp,144
    173e:	0000                	unimp
    1740:	0301                	addi	t1,t1,0
    1742:	0902                	c.slli64	s2
    1744:	0000                	unimp
    1746:	0301                	addi	t1,t1,0
    1748:	090d                	addi	s2,s2,3
    174a:	0004                	0x4
    174c:	0401                	addi	s0,s0,0
    174e:	59030603          	lb	a2,1424(t1) # ffffffffffffe590 <ali3_data.1515+0xffffffff7ffae390>
    1752:	0009                	c.nop	2
    1754:	0100                	addi	s0,sp,128
    1756:	0104                	addi	s1,sp,128
    1758:	0306                	slli	t1,t1,0x1
    175a:	0906                	slli	s2,s2,0x1
    175c:	0002                	c.slli64	zero
    175e:	0401                	addi	s0,s0,0
    1760:	0502                	c.slli64	a0
    1762:	0320                	addi	s0,sp,392
    1764:	097e                	slli	s2,s2,0x1f
    1766:	0000                	unimp
    1768:	0401                	addi	s0,s0,0
    176a:	0501                	addi	a0,a0,0
    176c:	0305                	addi	t1,t1,1
    176e:	00040903          	lb	s2,0(s0) # 18000 <__stack_size+0x10000>
    1772:	0501                	addi	a0,a0,0
    1774:	060c                	addi	a1,sp,768
    1776:	00090003          	lb	zero,0(s2)
    177a:	0100                	addi	s0,sp,128
    177c:	0505                	addi	a0,a0,1
    177e:	0306                	slli	t1,t1,0x1
    1780:	0901                	addi	s2,s2,0
    1782:	000a                	c.slli	zero,0x2
    1784:	0501                	addi	a0,a0,0
    1786:	001a                	c.slli	zero,0x6
    1788:	0402                	c.slli64	s0
    178a:	0301                	addi	t1,t1,0
    178c:	0900                	addi	s0,sp,144
    178e:	0000                	unimp
    1790:	0501                	addi	a0,a0,0
    1792:	0402000b          	0x402000b
    1796:	0301                	addi	t1,t1,0
    1798:	0900                	addi	s0,sp,144
    179a:	0000                	unimp
    179c:	0501                	addi	a0,a0,0
    179e:	0015                	c.nop	5
    17a0:	0402                	c.slli64	s0
    17a2:	0601                	addi	a2,a2,0
    17a4:	00090003          	lb	zero,0(s2)
    17a8:	0100                	addi	s0,sp,128
    17aa:	0b05                	addi	s6,s6,1
    17ac:	0200                	addi	s0,sp,256
    17ae:	0104                	addi	s1,sp,128
    17b0:	02090003          	lb	zero,32(s2)
    17b4:	0100                	addi	s0,sp,128
    17b6:	0505                	addi	a0,a0,1
    17b8:	0306                	slli	t1,t1,0x1
    17ba:	0901                	addi	s2,s2,0
    17bc:	0002                	c.slli64	zero
    17be:	0501                	addi	a0,a0,0
    17c0:	060e                	slli	a2,a2,0x3
    17c2:	00090003          	lb	zero,0(s2)
    17c6:	0100                	addi	s0,sp,128
    17c8:	0505                	addi	a0,a0,1
    17ca:	0306                	slli	t1,t1,0x1
    17cc:	0901                	addi	s2,s2,0
    17ce:	0008                	0x8
    17d0:	0401                	addi	s0,s0,0
    17d2:	097b0303          	lb	t1,151(s6)
    17d6:	0000                	unimp
    17d8:	0401                	addi	s0,s0,0
    17da:	0302                	c.slli64	t1
    17dc:	0928                	addi	a0,sp,152
    17de:	0000                	unimp
    17e0:	0401                	addi	s0,s0,0
    17e2:	0301                	addi	t1,t1,0
    17e4:	095f 0004 0401      	0x4010004095f
    17ea:	0502                	c.slli64	a0
    17ec:	0320                	addi	s0,sp,392
    17ee:	00000977          	0x977
    17f2:	0401                	addi	s0,s0,0
    17f4:	0501                	addi	a0,a0,0
    17f6:	0305                	addi	t1,t1,1
    17f8:	090a                	slli	s2,s2,0x2
    17fa:	0004                	0x4
    17fc:	0501                	addi	a0,a0,0
    17fe:	0003060f          	0x3060f
    1802:	0009                	c.nop	2
    1804:	0100                	addi	s0,sp,128
    1806:	0105                	addi	sp,sp,1
    1808:	02090103          	lb	sp,32(s2)
    180c:	0100                	addi	s0,sp,128
    180e:	0409                	addi	s0,s0,2
    1810:	0000                	unimp
    1812:	0101                	addi	sp,sp,0
    1814:	0176                	slli	sp,sp,0x1d
    1816:	0000                	unimp
    1818:	00f60003          	lb	zero,15(a2) # 1a00f <__stack_size+0x1200f>
    181c:	0000                	unimp
    181e:	0101                	addi	sp,sp,0
    1820:	000d0efb          	0xd0efb
    1824:	0101                	addi	sp,sp,0
    1826:	0101                	addi	sp,sp,0
    1828:	0000                	unimp
    182a:	0100                	addi	s0,sp,128
    182c:	0000                	unimp
    182e:	2e01                	sext.w	t3,t3
    1830:	2f2e                	fld	ft10,200(sp)
    1832:	00737973          	csrrci	s2,0x7,6
    1836:	6d6f682f          	0x6d6f682f
    183a:	2f65                	addiw	t5,t5,25
    183c:	6170                	ld	a2,192(a0)
    183e:	6c6c                	ld	a1,216(s0)
    1840:	6461                	lui	s0,0x18
    1842:	6f69                	lui	t5,0x1a
    1844:	6968632f          	0x6968632f
    1848:	7970                	ld	a2,240(a0)
    184a:	7261                	lui	tp,0xffff8
    184c:	2f64                	fld	fs1,216(a4)
    184e:	6972                	ld	s2,280(sp)
    1850:	2d766373          	csrrsi	t1,0x2d7,12
    1854:	6f74                	ld	a3,216(a4)
    1856:	2d736c6f          	jal	s8,3832c <__stack_size+0x3032c>
    185a:	6e69                	lui	t3,0x1a
    185c:	6c617473          	csrrci	s0,0x6c6,2
    1860:	2f6c                	fld	fa1,216(a4)
    1862:	6972                	ld	s2,280(sp)
    1864:	36766373          	csrrsi	t1,0x367,12
    1868:	2d34                	fld	fa3,88(a0)
    186a:	6e75                	lui	t3,0x1d
    186c:	776f6e6b          	0x776f6e6b
    1870:	2d6e                	fld	fs10,216(sp)
    1872:	6c65                	lui	s8,0x19
    1874:	2f66                	fld	ft10,88(sp)
    1876:	6e69                	lui	t3,0x1a
    1878:	64756c63          	bltu	a0,t2,1ed0 <__stack_align+0x1ec0>
    187c:	2f65                	addiw	t5,t5,25
    187e:	616d                	addi	sp,sp,240
    1880:	6e696863          	bltu	s2,t1,1f70 <__stack_align+0x1f60>
    1884:	0065                	c.nop	25
    1886:	6d6f682f          	0x6d6f682f
    188a:	2f65                	addiw	t5,t5,25
    188c:	6170                	ld	a2,192(a0)
    188e:	6c6c                	ld	a1,216(s0)
    1890:	6461                	lui	s0,0x18
    1892:	6f69                	lui	t5,0x1a
    1894:	6968632f          	0x6968632f
    1898:	7970                	ld	a2,240(a0)
    189a:	7261                	lui	tp,0xffff8
    189c:	2f64                	fld	fs1,216(a4)
    189e:	6972                	ld	s2,280(sp)
    18a0:	2d766373          	csrrsi	t1,0x2d7,12
    18a4:	6f74                	ld	a3,216(a4)
    18a6:	2d736c6f          	jal	s8,3837c <__stack_size+0x3037c>
    18aa:	6e69                	lui	t3,0x1a
    18ac:	6c617473          	csrrci	s0,0x6c6,2
    18b0:	2f6c                	fld	fa1,216(a4)
    18b2:	6972                	ld	s2,280(sp)
    18b4:	36766373          	csrrsi	t1,0x367,12
    18b8:	2d34                	fld	fa3,88(a0)
    18ba:	6e75                	lui	t3,0x1d
    18bc:	776f6e6b          	0x776f6e6b
    18c0:	2d6e                	fld	fs10,216(sp)
    18c2:	6c65                	lui	s8,0x19
    18c4:	2f66                	fld	ft10,88(sp)
    18c6:	6e69                	lui	t3,0x1a
    18c8:	64756c63          	bltu	a0,t2,1f20 <__stack_align+0x1f10>
    18cc:	2f65                	addiw	t5,t5,25
    18ce:	00737973          	csrrci	s2,0x7,6
    18d2:	2e2e                	fld	ft8,200(sp)
    18d4:	636e692f          	0x636e692f
    18d8:	756c                	ld	a1,232(a0)
    18da:	6564                	ld	s1,200(a0)
    18dc:	0000                	unimp
    18de:	7865                	lui	a6,0xffff9
    18e0:	7469                	lui	s0,0xffffa
    18e2:	632e                	ld	t1,200(sp)
    18e4:	0100                	addi	s0,sp,128
    18e6:	0000                	unimp
    18e8:	645f 6665 7561      	0x75616665645f
    18ee:	746c                	ld	a1,232(s0)
    18f0:	745f 7079 7365      	0x73657079745f
    18f6:	682e                	ld	a6,200(sp)
    18f8:	0200                	addi	s0,sp,256
    18fa:	0000                	unimp
    18fc:	735f 6474 6e69      	0x6e696474735f
    1902:	2e74                	fld	fa3,216(a2)
    1904:	0068                	addi	a0,sp,12
    1906:	68000003          	lb	zero,1664(zero) # 680 <__stack_align+0x670>
    190a:	6974                	ld	a3,208(a0)
    190c:	2e66                	fld	ft8,88(sp)
    190e:	0068                	addi	a0,sp,12
    1910:	0004                	0x4
    1912:	0000                	unimp
    1914:	0105                	addi	sp,sp,1
    1916:	0900                	addi	s0,sp,144
    1918:	d402                	sw	zero,40(sp)
    191a:	0020                	addi	s0,sp,8
    191c:	0080                	addi	s0,sp,64
    191e:	0000                	unimp
    1920:	1600                	addi	s0,sp,800
    1922:	0505                	addi	a0,a0,1
    1924:	00090103          	lb	sp,0(s2)
    1928:	0100                	addi	s0,sp,128
    192a:	1405                	addi	s0,s0,-31
    192c:	0306                	slli	t1,t1,0x1
    192e:	0900                	addi	s0,sp,144
    1930:	0000                	unimp
    1932:	0501                	addi	a0,a0,0
    1934:	030e                	slli	t1,t1,0x3
    1936:	0900                	addi	s0,sp,144
    1938:	000a                	c.slli	zero,0x2
    193a:	0501                	addi	a0,a0,0
    193c:	0005                	c.nop	1
    193e:	0402                	c.slli64	s0
    1940:	0601                	addi	a2,a2,0
    1942:	0c090103          	lb	sp,192(s2)
    1946:	0100                	addi	s0,sp,128
    1948:	0905                	addi	s2,s2,1
    194a:	0200                	addi	s0,sp,256
    194c:	0104                	addi	s1,sp,128
    194e:	00090103          	lb	sp,0(s2)
    1952:	0100                	addi	s0,sp,128
    1954:	1205                	addi	tp,tp,-31
    1956:	0200                	addi	s0,sp,256
    1958:	0104                	addi	s1,sp,128
    195a:	0306                	slli	t1,t1,0x1
    195c:	0900                	addi	s0,sp,144
    195e:	0000                	unimp
    1960:	0501                	addi	a0,a0,0
    1962:	0009                	c.nop	2
    1964:	0402                	c.slli64	s0
    1966:	0601                	addi	a2,a2,0
    1968:	08090103          	lb	sp,128(s2)
    196c:	0100                	addi	s0,sp,128
    196e:	1005                	c.nop	-31
    1970:	0200                	addi	s0,sp,256
    1972:	0104                	addi	s1,sp,128
    1974:	0306                	slli	t1,t1,0x1
    1976:	0900                	addi	s0,sp,144
    1978:	0000                	unimp
    197a:	0501                	addi	a0,a0,0
    197c:	0402000b          	0x402000b
    1980:	0601                	addi	a2,a2,0
    1982:	02097e03          	0x2097e03
    1986:	0100                	addi	s0,sp,128
    1988:	0209                	addi	tp,tp,2
    198a:	0000                	unimp
    198c:	0101                	addi	sp,sp,0

Disassembly of section .debug_str:

0000000000000000 <.debug_str>:
   0:	645f 6f73 685f      	0x685f6f73645f
   6:	6e61                	lui	t3,0x18
   8:	6c64                	ld	s1,216(s0)
   a:	0065                	c.nop	25
   c:	725f 6e61 3464      	0x34646e61725f
  12:	0038                	addi	a4,sp,8
  14:	655f 656d 6772      	0x6772656d655f
  1a:	6e65                	lui	t3,0x19
  1c:	5f007963          	bgeu	zero,a6,60e <__stack_align+0x5fe>
  20:	6164                	ld	s1,192(a0)
  22:	6174                	ld	a3,192(a0)
  24:	5f00                	lw	s0,56(a4)
  26:	74726377          	0x74726377
  2a:	5f626d6f          	jal	s10,26620 <__stack_size+0x1e620>
  2e:	74617473          	csrrci	s0,0x746,2
  32:	0065                	c.nop	25
  34:	775f 7363 7472      	0x74727363775f
  3a:	73626d6f          	jal	s10,26770 <__stack_size+0x1e770>
  3e:	735f 6174 6574      	0x65746174735f
  44:	6c00                	ld	s0,24(s0)
  46:	20676e6f          	jal	t3,7624c <__stack_size+0x6e24c>
  4a:	6f6c                	ld	a1,216(a4)
  4c:	676e                	ld	a4,216(sp)
  4e:	7520                	ld	s0,104(a0)
  50:	736e                	ld	t1,248(sp)
  52:	6769                	lui	a4,0x1a
  54:	656e                	ld	a0,216(sp)
  56:	2064                	fld	fs1,192(s0)
  58:	6e69                	lui	t3,0x1a
  5a:	0074                	addi	a3,sp,12
  5c:	6c5f 6662 6973      	0x697366626c5f
  62:	657a                	ld	a0,408(sp)
  64:	6600                	ld	s0,8(a2)
  66:	6f72                	ld	t5,280(sp)
  68:	686d                	lui	a6,0x1b
  6a:	0074736f          	jal	t1,47870 <__stack_size+0x3f870>
  6e:	5f5f 6f6c 6163      	0x61636f6c5f5f
  74:	656c                	ld	a1,200(a0)
  76:	745f 5f00 626d      	0x626d5f00745f
  7c:	7472                	ld	s0,312(sp)
  7e:	5f63776f          	jal	a4,37674 <__stack_size+0x2f674>
  82:	74617473          	csrrci	s0,0x746,2
  86:	0065                	c.nop	25
  88:	775f 7463 6d6f      	0x6d6f7463775f
  8e:	5f62                	lw	t5,56(sp)
  90:	74617473          	csrrci	s0,0x746,2
  94:	0065                	c.nop	25
  96:	5f5f 6d74 735f      	0x735f6d745f5f
  9c:	6365                	lui	t1,0x19
  9e:	6c00                	ld	s0,24(s0)
  a0:	20676e6f          	jal	t3,762a6 <__stack_size+0x6e2a6>
  a4:	6f6c                	ld	a1,216(a4)
  a6:	676e                	ld	a4,216(sp)
  a8:	6920                	ld	s0,80(a0)
  aa:	746e                	ld	s0,248(sp)
  ac:	5f00                	lw	s0,56(a4)
  ae:	6275                	lui	tp,0x1d
  b0:	6675                	lui	a2,0x1d
  b2:	5f00                	lw	s0,56(a4)
  b4:	6162                	ld	sp,24(sp)
  b6:	5f006573          	csrrsi	a0,0x5f0,0
  ba:	745f 5f6d 6f68      	0x6f685f6d745f
  c0:	7275                	lui	tp,0xffffd
  c2:	5f00                	lw	s0,56(a4)
  c4:	735f 0066 6f5f      	0x6f5f0066735f
  ca:	5f6e                	lw	t5,248(sp)
  cc:	7865                	lui	a6,0xffff9
  ce:	7469                	lui	s0,0xffffa
  d0:	615f 6772 0073      	0x736772615f
  d6:	635f 6f6f 696b      	0x696b6f6f635f
  dc:	0065                	c.nop	25
  de:	5f5f 6773 756c      	0x756c67735f5f
  e4:	0065                	c.nop	25
  e6:	5f5f 7265 6e72      	0x6e7272655f5f
  ec:	665f006f          	j	f0f50 <__stack_size+0xe8f50>
  f0:	616c                	ld	a1,192(a0)
  f2:	5f007367          	0x5f007367
  f6:	7369                	lui	t1,0xffffa
  f8:	635f 6178 5f00      	0x5f006178635f
  fe:	69647473          	csrrci	s0,0x696,8
 102:	006e                	c.slli	zero,0x1b
 104:	735f 7379 655f      	0x655f7379735f
 10a:	7272                	ld	tp,312(sp)
 10c:	696c                	ld	a1,208(a0)
 10e:	5f007473          	csrrci	s0,0x5f0,0
 112:	62747663          	bgeu	s0,t2,73e <__stack_align+0x72e>
 116:	6675                	lui	a2,0x1d
 118:	5f00                	lw	s0,56(a4)
 11a:	626d                	lui	tp,0x1b
 11c:	6f747273          	csrrci	tp,0x6f7,8
 120:	5f736377          	0x5f736377
 124:	74617473          	csrrci	s0,0x746,2
 128:	0065                	c.nop	25
 12a:	6d5f 7262 656c      	0x656c72626d5f
 130:	5f6e                	lw	t5,248(sp)
 132:	74617473          	csrrci	s0,0x746,2
 136:	0065                	c.nop	25
 138:	665f 616e 6772      	0x6772616e665f
 13e:	665f0073          	0x665f0073
 142:	736e                	ld	t1,248(sp)
 144:	5f00                	lw	s0,56(a4)
 146:	6e676973          	csrrsi	s2,0x6e6,14
 14a:	5f00                	lw	s0,56(a4)
 14c:	6c66                	ld	s8,88(sp)
 14e:	5f6b636f          	jal	t1,b6744 <__stack_size+0xae744>
 152:	0074                	addi	a3,sp,12
 154:	735f 6474 7265      	0x72656474735f
 15a:	0072                	c.slli	zero,0x1c
 15c:	425f 6769 6e69      	0x6e696769425f
 162:	0074                	addi	a3,sp,12
 164:	675f 6d61 616d      	0x616d6d61675f
 16a:	735f 6769 676e      	0x676e6769735f
 170:	6d61                	lui	s10,0x18
 172:	5f00                	lw	s0,56(a4)
 174:	6572                	ld	a0,280(sp)
 176:	6461                	lui	s0,0x18
 178:	5f00                	lw	s0,56(a4)
 17a:	6572                	ld	a0,280(sp)
 17c:	746c7573          	csrrci	a0,0x746,24
 180:	6b5f 5f00 745f      	0x745f5f006b5f
 186:	006d                	c.nop	27
 188:	5f5f 6377 6268      	0x626863775f5f
 18e:	5f00                	lw	s0,56(a4)
 190:	6f647473          	csrrci	s0,0x6f6,8
 194:	7475                	lui	s0,0xffffd
 196:	5f00                	lw	s0,56(a4)
 198:	6c747663          	bgeu	s0,t2,864 <__stack_align+0x854>
 19c:	6e65                	lui	t3,0x19
 19e:	5f00                	lw	s0,56(a4)
 1a0:	6966                	ld	s2,88(sp)
 1a2:	656c                	ld	a1,200(a0)
 1a4:	2e00                	fld	fs0,24(a2)
 1a6:	2f2e                	fld	ft10,200(sp)
 1a8:	2f737973          	csrrci	s2,0x2f7,6
 1ac:	736f6c63          	bltu	t5,s6,8e4 <__stack_align+0x8d4>
 1b0:	2e65                	addiw	t3,t3,25
 1b2:	6e5f0063          	beq	t5,t0,892 <__stack_align+0x882>
 1b6:	6f69                	lui	t5,0x1a
 1b8:	7362                	ld	t1,56(sp)
 1ba:	7300                	ld	s0,32(a4)
 1bc:	6f68                	ld	a0,216(a4)
 1be:	7472                	ld	s0,312(sp)
 1c0:	7520                	ld	s0,104(a0)
 1c2:	736e                	ld	t1,248(sp)
 1c4:	6769                	lui	a4,0x1a
 1c6:	656e                	ld	a0,216(sp)
 1c8:	2064                	fld	fs1,192(s0)
 1ca:	6e69                	lui	t3,0x1a
 1cc:	0074                	addi	a3,sp,12
 1ce:	615f 6574 6978      	0x69786574615f
 1d4:	3074                	fld	fa3,224(s0)
 1d6:	5f00                	lw	s0,56(a4)
 1d8:	6e676973          	csrrsi	s2,0x6e6,14
 1dc:	6c61                	lui	s8,0x18
 1de:	625f 6675 5f00      	0x5f006675625f
 1e4:	7361                	lui	t1,0xffff8
 1e6:	6d697463          	bgeu	s2,s6,8ae <__stack_align+0x89e>
 1ea:	5f65                	li	t5,-7
 1ec:	7562                	ld	a0,56(sp)
 1ee:	0066                	c.slli	zero,0x19
 1f0:	725f 7365 6c75      	0x6c757365725f
 1f6:	0074                	addi	a3,sp,12
 1f8:	5f5f 6377 0068      	0x6863775f5f
 1fe:	746e6977          	0x746e6977
 202:	745f 5f00 6c66      	0x6c665f00745f
 208:	6761                	lui	a4,0x18
 20a:	47003273          	csrrc	tp,0x470,zero
 20e:	554e                	lw	a0,240(sp)
 210:	4320                	lw	s0,64(a4)
 212:	3131                	addiw	sp,sp,-20
 214:	3920                	fld	fs0,112(a0)
 216:	322e                	fld	ft4,232(sp)
 218:	302e                	fld	ft0,232(sp)
 21a:	2d20                	fld	fs0,88(a0)
 21c:	636d                	lui	t1,0x1b
 21e:	6f6d                	lui	t5,0x1b
 220:	6564                	ld	s1,200(a0)
 222:	3d6c                	fld	fa1,248(a0)
 224:	656d                	lui	a0,0x1b
 226:	6164                	ld	s1,192(a0)
 228:	796e                	ld	s2,248(sp)
 22a:	2d20                	fld	fs0,88(a0)
 22c:	746d                	lui	s0,0xffffb
 22e:	6e75                	lui	t3,0x1d
 230:	3d65                	addiw	s10,s10,-7
 232:	6f72                	ld	t5,280(sp)
 234:	74656b63          	bltu	a0,t1,98a <__stack_align+0x97a>
 238:	2d20                	fld	fs0,88(a0)
 23a:	616d                	addi	sp,sp,240
 23c:	6372                	ld	t1,280(sp)
 23e:	3d68                	fld	fa0,248(a0)
 240:	7672                	ld	a2,312(sp)
 242:	3436                	fld	fs0,360(sp)
 244:	6d69                	lui	s10,0x1a
 246:	6661                	lui	a2,0x18
 248:	6364                	ld	s1,192(a4)
 24a:	2d20                	fld	fs0,88(a0)
 24c:	616d                	addi	sp,sp,240
 24e:	6962                	ld	s2,24(sp)
 250:	6c3d                	lui	s8,0xf
 252:	3670                	fld	fa2,232(a2)
 254:	6434                	ld	a3,72(s0)
 256:	2d20                	fld	fs0,88(a0)
 258:	4f2d2067          	0x4f2d2067
 25c:	2032                	fld	ft0,264(sp)
 25e:	732d                	lui	t1,0xfffeb
 260:	6474                	ld	a3,200(s0)
 262:	633d                	lui	t1,0xf
 264:	3131                	addiw	sp,sp,-20
 266:	2d20                	fld	fs0,88(a0)
 268:	6e66                	ld	t3,88(sp)
 26a:	6f632d6f          	jal	s10,32960 <__stack_size+0x2a960>
 26e:	6d6d                	lui	s10,0x1b
 270:	2d206e6f          	jal	t3,6542 <__stack_size_min+0x542>
 274:	6e66                	ld	t3,88(sp)
 276:	75622d6f          	jal	s10,229cc <__stack_size+0x1a9cc>
 27a:	6c69                	lui	s8,0x1a
 27c:	6974                	ld	a3,208(a0)
 27e:	006e                	c.slli	zero,0x1b
 280:	775f 6972 6574      	0x65746972775f
 286:	5f00                	lw	s0,56(a4)
 288:	745f 5f6d 6579      	0x65795f6d745f
 28e:	7261                	lui	tp,0xffff8
 290:	5f00                	lw	s0,56(a4)
 292:	6d6e                	ld	s10,216(sp)
 294:	6c61                	lui	s8,0x18
 296:	6f6c                	ld	a1,216(a4)
 298:	6f6c0063          	beq	s8,s6,978 <__stack_align+0x968>
 29c:	676e                	ld	a4,216(sp)
 29e:	6420                	ld	s0,72(s0)
 2a0:	6c62756f          	jal	a0,27966 <__stack_size+0x1f966>
 2a4:	0065                	c.nop	25
 2a6:	6e5f 7865 6674      	0x667478656e5f
 2ac:	5f00                	lw	s0,56(a4)
 2ae:	745f 5f6d 6f6d      	0x6f6d5f6d745f
 2b4:	006e                	c.slli	zero,0x1b
 2b6:	615f 6574 6978      	0x69786574615f
 2bc:	0074                	addi	a3,sp,12
 2be:	5f5f 6473 6469      	0x646964735f5f
 2c4:	6e69                	lui	t3,0x1a
 2c6:	7469                	lui	s0,0xffffa
 2c8:	5f00                	lw	s0,56(a4)
 2ca:	755f 6e69 3674      	0x36746e69755f
 2d0:	5f34                	lw	a3,120(a4)
 2d2:	0074                	addi	a3,sp,12
 2d4:	665f 6572 6c65      	0x6c656572665f
 2da:	7369                	lui	t1,0xffffa
 2dc:	0074                	addi	a3,sp,12
 2de:	4c5f 434f 5f4b      	0x5f4b434f4c5f
 2e4:	4552                	lw	a0,20(sp)
 2e6:	53525543          	fmadd.d	fa0,ft4,fs5,fa0,unknown
 2ea:	5649                	li	a2,-14
 2ec:	5f45                	li	t5,-15
 2ee:	0054                	addi	a3,sp,4
 2f0:	6e75                	lui	t3,0x1d
 2f2:	6e676973          	csrrsi	s2,0x6e6,14
 2f6:	6465                	lui	s0,0x19
 2f8:	6320                	ld	s0,64(a4)
 2fa:	6168                	ld	a0,192(a0)
 2fc:	0072                	c.slli	zero,0x1c
 2fe:	6e5f 7765 5f00      	0x5f0077656e5f
 304:	5f68                	lw	a0,124(a4)
 306:	7265                	lui	tp,0xffff9
 308:	6e72                	ld	t3,280(sp)
 30a:	6873006f          	j	31190 <__stack_size+0x29190>
 30e:	2074726f          	jal	tp,47d14 <__stack_size+0x3fd14>
 312:	6e69                	lui	t3,0x1a
 314:	0074                	addi	a3,sp,12
 316:	5f5f 6d74 795f      	0x795f6d745f5f
 31c:	6164                	ld	s1,192(a0)
 31e:	0079                	c.nop	30
 320:	5f5f 6273 6675      	0x667562735f5f
 326:	5f00                	lw	s0,56(a4)
 328:	6f69                	lui	t5,0x1a
 32a:	7362                	ld	t1,56(sp)
 32c:	5f00                	lw	s0,56(a4)
 32e:	465f 4c49 0045      	0x454c49465f
 334:	6d5f 7362 6174      	0x617473626d5f
 33a:	6574                	ld	a3,200(a0)
 33c:	745f 5f00 735f      	0x735f5f00745f
 342:	4946                	lw	s2,80(sp)
 344:	454c                	lw	a1,12(a0)
 346:	5f00                	lw	s0,56(a4)
 348:	5f737973          	csrrci	s2,0x5f7,6
 34c:	656e                	ld	a0,216(sp)
 34e:	7272                	ld	tp,312(sp)
 350:	5f00                	lw	s0,56(a4)
 352:	626d                	lui	tp,0x1b
 354:	74617473          	csrrci	s0,0x746,2
 358:	0065                	c.nop	25
 35a:	725f 6e61 5f64      	0x5f646e61725f
 360:	656e                	ld	a0,216(sp)
 362:	7478                	ld	a4,232(s0)
 364:	5f00                	lw	s0,56(a4)
 366:	626d                	lui	tp,0x1b
 368:	656c                	ld	a1,200(a0)
 36a:	5f6e                	lw	t5,248(sp)
 36c:	74617473          	csrrci	s0,0x746,2
 370:	0065                	c.nop	25
 372:	695f 636e 5f00      	0x5f00636e695f
 378:	6e69                	lui	t3,0x1a
 37a:	0064                	addi	s1,sp,12
 37c:	6c5f 636f 6c61      	0x6c61636f6c5f
 382:	0065                	c.nop	25
 384:	5f5f 6c63 6165      	0x61656c635f5f
 38a:	756e                	ld	a0,248(sp)
 38c:	0070                	addi	a2,sp,12
 38e:	755f 736e 6570      	0x6570736e755f
 394:	69666963          	bltu	a2,s6,a26 <__stack_align+0xa16>
 398:	6465                	lui	s0,0x19
 39a:	6c5f 636f 6c61      	0x6c61636f6c5f
 3a0:	5f65                	li	t5,-7
 3a2:	6e69                	lui	t3,0x1a
 3a4:	6f66                	ld	t5,88(sp)
 3a6:	5f00                	lw	s0,56(a4)
 3a8:	616d                	addi	sp,sp,240
 3aa:	7778                	ld	a4,232(a4)
 3ac:	7364                	ld	s1,224(a4)
 3ae:	5f00                	lw	s0,56(a4)
 3b0:	6572                	ld	a0,280(sp)
 3b2:	6e65                	lui	t3,0x19
 3b4:	0074                	addi	a3,sp,12
 3b6:	735f 6565 0064      	0x646565735f
 3bc:	6f74                	ld	a3,216(a4)
 3be:	6f68                	ld	a0,216(a4)
 3c0:	5f007473          	csrrci	s0,0x5f0,0
 3c4:	635f 756f 746e      	0x746e756f635f
 3ca:	5f00                	lw	s0,56(a4)
 3cc:	765f 6c61 6575      	0x65756c61765f
 3d2:	5f00                	lw	s0,56(a4)
 3d4:	6b656573          	csrrsi	a0,0x6b6,10
 3d8:	5f00                	lw	s0,56(a4)
 3da:	7066                	0x7066
 3dc:	745f736f          	jal	t1,f8320 <__stack_size+0xf0320>
 3e0:	5f00                	lw	s0,56(a4)
 3e2:	745f 5f6d 696d      	0x696d5f6d745f
 3e8:	006e                	c.slli	zero,0x1b
 3ea:	6d5f 6c75 0074      	0x746c756d5f
 3f0:	735f 7274 6f74      	0x6f747274735f
 3f6:	616c5f6b          	0x616c5f6b
 3fa:	5f007473          	csrrci	s0,0x5f0,0
 3fe:	6e66                	ld	t3,88(sp)
 400:	7974                	ld	a3,240(a0)
 402:	6570                	ld	a2,200(a0)
 404:	615f0073          	0x615f0073
 408:	6464                	ld	s1,200(s0)
 40a:	5f00                	lw	s0,56(a4)
 40c:	555f 6f4c 676e      	0x676e6f4c555f
 412:	5f00                	lw	s0,56(a4)
 414:	64746567          	0x64746567
 418:	7461                	lui	s0,0xffff8
 41a:	5f65                	li	t5,-7
 41c:	7265                	lui	tp,0xffff9
 41e:	0072                	c.slli	zero,0x1c
 420:	675f 6f6c 6162      	0x61626f6c675f
 426:	5f6c                	lw	a1,124(a4)
 428:	6d69                	lui	s10,0x1a
 42a:	7570                	ld	a2,232(a0)
 42c:	6572                	ld	a0,280(sp)
 42e:	705f 7274 5f00      	0x5f007274705f
 434:	6e75                	lui	t3,0x1d
 436:	7375                	lui	t1,0xffffd
 438:	6465                	lui	s0,0x19
 43a:	725f 6e61 0064      	0x646e61725f
 440:	775f 7364 5f00      	0x5f007364775f
 446:	745f 5f6d 6477      	0x64775f6d745f
 44c:	7961                	lui	s2,0xffff8
 44e:	5f00                	lw	s0,56(a4)
 450:	65756c67          	0x65756c67
 454:	5f00                	lw	s0,56(a4)
 456:	7a697373          	csrrci	t1,0x7a6,18
 45a:	5f65                	li	t5,-7
 45c:	0074                	addi	a3,sp,12
 45e:	6c5f 3436 5f61      	0x5f6134366c5f
 464:	7562                	ld	a0,56(sp)
 466:	0066                	c.slli	zero,0x19
 468:	735f 6769 665f      	0x665f6769735f
 46e:	6e75                	lui	t3,0x1d
 470:	6e5f0063          	beq	t5,t0,b50 <__stack_align+0xb40>
 474:	7562                	ld	a0,56(sp)
 476:	0066                	c.slli	zero,0x19
 478:	755f 756e 6573      	0x6573756e755f
 47e:	0064                	addi	s1,sp,12
 480:	5f5f 6d74 695f      	0x695f6d745f5f
 486:	74736473          	csrrsi	s0,0x747,6
 48a:	5f00                	lw	s0,56(a4)
 48c:	6f6c                	ld	a1,216(a4)
 48e:	746c6163          	bltu	s8,t1,bd0 <__stack_align+0xbc0>
 492:	6d69                	lui	s10,0x1a
 494:	5f65                	li	t5,-7
 496:	7562                	ld	a0,56(sp)
 498:	0066                	c.slli	zero,0x19
 49a:	635f 6f6c 6573      	0x65736f6c635f
 4a0:	5f00                	lw	s0,56(a4)
 4a2:	3472                	fld	fs0,312(sp)
 4a4:	0038                	addi	a4,sp,8
 4a6:	6d5f 7462 776f      	0x776f74626d5f
 4ac:	74735f63          	bge	t1,t2,c0a <__stack_align+0xbfa>
 4b0:	7461                	lui	s0,0xffff8
 4b2:	0065                	c.nop	25
 4b4:	705f 7335 2f00      	0x2f007335705f
 4ba:	6f68                	ld	a0,216(a4)
 4bc:	656d                	lui	a0,0x1b
 4be:	6c61702f          	0x6c61702f
 4c2:	616c                	ld	a1,192(a0)
 4c4:	6964                	ld	s1,208(a0)
 4c6:	68632f6f          	jal	t5,32b4c <__stack_size+0x2ab4c>
 4ca:	7069                	c.lui	zero,0xffffa
 4cc:	6179                	addi	sp,sp,464
 4ce:	6472                	ld	s0,280(sp)
 4d0:	6f6f742f          	0x6f6f742f
 4d4:	636c                	ld	a1,192(a4)
 4d6:	6168                	ld	a0,192(a0)
 4d8:	6e69                	lui	t3,0x1a
 4da:	696c2f73          	csrrs	t5,0x696,s8
 4de:	6762                	ld	a4,24(sp)
 4e0:	6f6c                	ld	a1,216(a4)
 4e2:	622f7373          	csrrci	t1,0x622,30
 4e6:	6975                	lui	s2,0x1d
 4e8:	646c                	ld	a1,200(s0)
 4ea:	5f00                	lw	s0,56(a4)
 4ec:	745f 5f6d 646d      	0x646d5f6d745f
 4f2:	7961                	lui	s2,0xffff8
 4f4:	5f00                	lw	s0,56(a4)
 4f6:	6f5f 6666 745f      	0x745f66666f5f
 4fc:	5f00                	lw	s0,56(a4)
 4fe:	675f 6469 745f      	0x745f6469675f
 504:	7300                	ld	s0,32(a4)
 506:	5f74                	lw	a3,124(a4)
 508:	6564                	ld	s1,200(a0)
 50a:	0076                	c.slli	zero,0x1d
 50c:	675f7473          	csrrci	s0,0x675,30
 510:	6469                	lui	s0,0x1a
 512:	2e00                	fld	fs0,24(a2)
 514:	2f2e                	fld	ft10,200(sp)
 516:	2f737973          	csrrci	s2,0x2f7,6
 51a:	7366                	ld	t1,120(sp)
 51c:	6174                	ld	a3,192(a0)
 51e:	2e74                	fld	fa3,216(a2)
 520:	74730063          	beq	t1,t2,c60 <__stack_align+0xc50>
 524:	625f 6f6c 6b63      	0x6b636f6c625f
 52a:	5f5f0073          	0x5f5f0073
 52e:	6f6d                	lui	t5,0x1b
 530:	6564                	ld	s1,200(a0)
 532:	745f 5f00 625f      	0x625f5f00745f
 538:	6b6c                	ld	a1,208(a4)
 53a:	5f746e63          	bltu	s0,s7,b36 <__stack_align+0xb26>
 53e:	0074                	addi	a3,sp,12
 540:	735f7473          	csrrci	s0,0x735,30
 544:	6170                	ld	a2,192(a0)
 546:	6572                	ld	a0,280(sp)
 548:	665f0033          	0x665f0033
 54c:	74617473          	csrrci	s0,0x746,2
 550:	5f00                	lw	s0,56(a4)
 552:	755f 6e69 3374      	0x33746e69755f
 558:	5f32                	lw	t5,44(sp)
 55a:	0074                	addi	a3,sp,12
 55c:	5f5f 6564 5f76      	0x5f7665645f5f
 562:	0074                	addi	a3,sp,12
 564:	735f7473          	csrrci	s0,0x735,30
 568:	6170                	ld	a2,192(a0)
 56a:	6572                	ld	a0,280(sp)
 56c:	0031                	c.nop	12
 56e:	735f7473          	csrrci	s0,0x735,30
 572:	6170                	ld	a2,192(a0)
 574:	6572                	ld	a0,280(sp)
 576:	0032                	c.slli	zero,0xc
 578:	755f7473          	csrrci	s0,0x755,30
 57c:	6469                	lui	s0,0x1a
 57e:	7300                	ld	s0,32(a4)
 580:	5f74                	lw	a3,124(a4)
 582:	657a6973          	csrrsi	s2,0x657,20
 586:	5f00                	lw	s0,56(a4)
 588:	625f 6b6c 6973      	0x69736b6c625f
 58e:	657a                	ld	a0,408(sp)
 590:	745f 7400 6d69      	0x6d697400745f
 596:	5f65                	li	t5,-7
 598:	0074                	addi	a3,sp,12
 59a:	6e5f7473          	csrrci	s0,0x6e5,30
 59e:	696c                	ld	a1,208(a0)
 5a0:	6b6e                	ld	s6,216(sp)
 5a2:	7300                	ld	s0,32(a4)
 5a4:	5f74                	lw	a3,124(a4)
 5a6:	6e69                	lui	t3,0x1a
 5a8:	7473006f          	j	314ee <__stack_size+0x294ee>
 5ac:	625f 6b6c 6973      	0x69736b6c625f
 5b2:	657a                	ld	a0,408(sp)
 5b4:	7300                	ld	s0,32(a4)
 5b6:	5f74                	lw	a3,124(a4)
 5b8:	6d697463          	bgeu	s2,s6,c80 <__stack_align+0xc70>
 5bc:	0065                	c.nop	25
 5be:	5f5f 6e69 5f6f      	0x5f6f6e695f5f
 5c4:	0074                	addi	a3,sp,12
 5c6:	615f7473          	csrrci	s0,0x615,30
 5ca:	6974                	ld	a3,208(a0)
 5cc:	656d                	lui	a0,0x1b
 5ce:	7300                	ld	s0,32(a4)
 5d0:	5f74                	lw	a3,124(a4)
 5d2:	72617073          	csrci	0x726,2
 5d6:	3465                	addiw	s0,s0,-7
 5d8:	5f00                	lw	s0,56(a4)
 5da:	755f 6469 745f      	0x745f6469755f
 5e0:	7300                	ld	s0,32(a4)
 5e2:	5f74                	lw	a3,124(a4)
 5e4:	6f6d                	lui	t5,0x1b
 5e6:	6564                	ld	s1,200(a0)
 5e8:	7300                	ld	s0,32(a4)
 5ea:	5f74                	lw	a3,124(a4)
 5ec:	6472                	ld	s0,280(sp)
 5ee:	7665                	lui	a2,0xffff9
 5f0:	5f00                	lw	s0,56(a4)
 5f2:	6e5f 696c 6b6e      	0x6b6e696c6e5f
 5f8:	745f 7300 5f74      	0x5f747300745f
 5fe:	746d                	lui	s0,0xffffb
 600:	6d69                	lui	s10,0x1a
 602:	0065                	c.nop	25
 604:	6f74706f          	j	484fa <__stack_size+0x404fa>
 608:	7470                	ld	a2,232(s0)
 60a:	2e00                	fld	fs0,24(a2)
 60c:	2f2e                	fld	ft10,200(sp)
 60e:	2f737973          	csrrci	s2,0x2f7,6
 612:	7369                	lui	t1,0xffffa
 614:	7461                	lui	s0,0xffff8
 616:	7974                	ld	a3,240(a0)
 618:	632e                	ld	t1,200(sp)
 61a:	6f00                	ld	s0,24(a4)
 61c:	7470                	ld	a2,232(s0)
 61e:	6e69                	lui	t3,0x1a
 620:	0064                	addi	s1,sp,12
 622:	6574706f          	j	48478 <__stack_size+0x40478>
 626:	7272                	ld	tp,312(sp)
 628:	6f00                	ld	s0,24(a4)
 62a:	7470                	ld	a2,232(s0)
 62c:	6572                	ld	a0,280(sp)
 62e:	00746573          	csrrsi	a0,0x7,8
 632:	695f 6173 7474      	0x74746173695f
 638:	0079                	c.nop	30
 63a:	6174706f          	j	48450 <__stack_size+0x40450>
 63e:	6772                	ld	a4,280(sp)
 640:	6500                	ld	s0,8(a0)
 642:	766e                	ld	a2,248(sp)
 644:	7269                	lui	tp,0xffffa
 646:	5f006e6f          	jal	t3,6c36 <__stack_size_min+0xc36>
 64a:	736c                	ld	a1,224(a4)
 64c:	6565                	lui	a0,0x19
 64e:	2e2e006b          	0x2e2e006b
 652:	7379732f          	0x7379732f
 656:	65736c2f          	0x65736c2f
 65a:	6b65                	lui	s6,0x19
 65c:	632e                	ld	t1,200(sp)
 65e:	2e00                	fld	fs0,24(a2)
 660:	2f2e                	fld	ft10,200(sp)
 662:	2f737973          	csrrci	s2,0x2f7,6
 666:	6572                	ld	a0,280(sp)
 668:	6461                	lui	s0,0x18
 66a:	632e                	ld	t1,200(sp)
 66c:	6300                	ld	s0,0(a4)
 66e:	7275                	lui	tp,0xffffd
 670:	7262                	ld	tp,56(sp)
 672:	5f5f006b          	0x5f5f006b
 676:	6568                	ld	a0,200(a0)
 678:	7061                	c.lui	zero,0xffff8
 67a:	655f 646e 6900      	0x6900646e655f
 680:	636e                	ld	t1,216(sp)
 682:	0072                	c.slli	zero,0x1c
 684:	2e2e                	fld	ft8,200(sp)
 686:	7379732f          	0x7379732f
 68a:	7262732f          	0x7262732f
 68e:	00632e6b          	0x632e6b
 692:	7470                	ld	a2,232(s0)
 694:	6472                	ld	s0,280(sp)
 696:	6669                	lui	a2,0x1a
 698:	5f66                	lw	t5,120(sp)
 69a:	0074                	addi	a3,sp,12
 69c:	62646c6f          	jal	s8,46cc2 <__stack_size+0x3ecc2>
 6a0:	6b72                	ld	s6,280(sp)
 6a2:	6e00                	ld	s0,24(a2)
 6a4:	7765                	lui	a4,0xffff9
 6a6:	7262                	ld	tp,56(sp)
 6a8:	735f006b          	0x735f006b
 6ac:	7262                	ld	tp,56(sp)
 6ae:	2e2e006b          	0x2e2e006b
 6b2:	7379732f          	0x7379732f
 6b6:	6972772f          	0x6972772f
 6ba:	6574                	ld	a3,200(a0)
 6bc:	632e                	ld	t1,200(sp)
 6be:	5f00                	lw	s0,56(a4)
 6c0:	755f 6e69 7074      	0x70746e69755f
 6c6:	7274                	ld	a3,224(a2)
 6c8:	745f 6800 6974      	0x69746800745f
 6ce:	5f66                	lw	t5,120(sp)
 6d0:	63737973          	csrrci	s2,0x637,6
 6d4:	6c61                	lui	s8,0x18
 6d6:	006c                	addi	a1,sp,12
 6d8:	2e2e                	fld	ft8,200(sp)
 6da:	73696d2f          	0x73696d2f
 6de:	72632f63          	0x72632f63
 6e2:	3074                	fld	fa3,224(s0)
 6e4:	532e                	lw	t1,232(sp)
 6e6:	4700                	lw	s0,8(a4)
 6e8:	554e                	lw	a0,240(sp)
 6ea:	4120                	lw	s0,64(a0)
 6ec:	2e322053          	0x2e322053
 6f0:	2e003233          	0x2e003233
 6f4:	2f2e                	fld	ft10,200(sp)
 6f6:	696d                	lui	s2,0x1b
 6f8:	632f6373          	csrrsi	t1,0x632,30
 6fc:	7472                	ld	s0,312(sp)
 6fe:	616d                	addi	sp,sp,240
 700:	6e69                	lui	t3,0x1a
 702:	532e                	lw	t1,232(sp)
 704:	6800                	ld	s0,16(s0)
 706:	6e61                	lui	t3,0x18
 708:	6c64                	ld	s1,216(s0)
 70a:	5f65                	li	t5,-7
 70c:	7274                	ld	a3,224(a2)
 70e:	7061                	c.lui	zero,0xffff8
 710:	6300                	ld	s0,0(a4)
 712:	7561                	lui	a0,0xffff8
 714:	2e006573          	csrrsi	a0,0x2e0,0
 718:	2f2e                	fld	ft10,200(sp)
 71a:	696d                	lui	s2,0x1b
 71c:	742f6373          	csrrsi	t1,0x742,30
 720:	6172                	ld	sp,280(sp)
 722:	7370                	ld	a2,224(a4)
 724:	632e                	ld	t1,200(sp)
 726:	5f00                	lw	s0,56(a4)
 728:	7865                	lui	a6,0xffff9
 72a:	7469                	lui	s0,0xffffa
 72c:	5f00                	lw	s0,56(a4)
 72e:	695f 746e 7470      	0x7470746e695f
 734:	5f72                	lw	t5,60(sp)
 736:	0074                	addi	a3,sp,12
 738:	6572                	ld	a0,280(sp)
 73a:	63007367          	0x63007367
 73e:	0065646f          	jal	s0,56744 <__stack_size+0x4e744>
 742:	7674                	ld	a3,232(a2)
 744:	6c61                	lui	s8,0x18
 746:	5f00                	lw	s0,56(a4)
 748:	745f 6164 6174      	0x61746164745f
 74e:	735f 7a69 0065      	0x657a69735f
 754:	5f5f 6474 7461      	0x746164745f5f
 75a:	5f61                	li	t5,-8
 75c:	72617473          	csrrci	s0,0x726,2
 760:	0074                	addi	a3,sp,12
 762:	5f5f 6274 7373      	0x737362745f5f
 768:	735f 7a69 0065      	0x657a69735f
 76e:	656d                	lui	a0,0x1b
 770:	636d                	lui	t1,0x1b
 772:	7970                	ld	a2,240(a0)
 774:	5f00                	lw	s0,56(a4)
 776:	745f 7362 5f73      	0x5f737362745f
 77c:	7366666f          	jal	a2,66eb2 <__stack_size+0x5eeb2>
 780:	7465                	lui	s0,0xffff9
 782:	5f00                	lw	s0,56(a4)
 784:	745f 7268 6165      	0x61657268745f
 78a:	5f64                	lw	s1,124(a4)
 78c:	666c6573          	csrrsi	a0,0x666,24
 790:	2e00                	fld	fs0,24(a2)
 792:	2f2e                	fld	ft10,200(sp)
 794:	696d                	lui	s2,0x1b
 796:	742f6373          	csrrsi	t1,0x742,30
 79a:	736c                	ld	a1,224(a4)
 79c:	632e                	ld	t1,200(sp)
 79e:	6d00                	ld	s0,24(a0)
 7a0:	6d65                	lui	s10,0x19
 7a2:	00746573          	csrrsi	a0,0x7,8
 7a6:	5f5f 6e69 7469      	0x74696e695f5f
 7ac:	745f 736c 5f00      	0x5f00736c745f
 7b2:	6d5f 6961 006e      	0x6e69616d5f
 7b8:	2e2e                	fld	ft8,200(sp)
 7ba:	73696d2f          	0x73696d2f
 7be:	616d2f63          	0x616d2f63
 7c2:	6e69                	lui	t3,0x1a
 7c4:	632e                	ld	t1,200(sp)
 7c6:	7300                	ld	s0,32(a4)
 7c8:	6970                	ld	a2,208(a0)
 7ca:	6c6e                	ld	s8,216(sp)
 7cc:	5f6b636f          	jal	t1,b6dc2 <__stack_size+0xaedc2>
 7d0:	0074                	addi	a3,sp,12
 7d2:	5f5f 6e69 3374      	0x33746e695f5f
 7d8:	5f32                	lw	t5,44(sp)
 7da:	0074                	addi	a3,sp,12
 7dc:	2e2e                	fld	ft8,200(sp)
 7de:	73696d2f          	0x73696d2f
 7e2:	74682f63          	0x74682f63
 7e6:	6669                	lui	a2,0x1a
 7e8:	632e                	ld	t1,200(sp)
 7ea:	6800                	ld	s0,16(s0)
 7ec:	6974                	ld	a3,208(a0)
 7ee:	5f66                	lw	t5,120(sp)
 7f0:	6f6c                	ld	a1,216(a4)
 7f2:	61006b63          	bltu	zero,a6,e08 <__stack_align+0xdf8>
 7f6:	6f74                	ld	a3,216(a4)
 7f8:	696d                	lui	s2,0x1b
 7fa:	77735f63          	bge	t1,s7,f78 <__stack_align+0xf68>
 7fe:	7061                	c.lui	zero,0xffff8
 800:	615f 7163 6975      	0x69757163615f
 806:	6572                	ld	a0,280(sp)
 808:	6100                	ld	s0,0(a0)
 80a:	6f74                	ld	a3,216(a4)
 80c:	696d                	lui	s2,0x1b
 80e:	00745f63          	bge	s0,t2,82c <__stack_align+0x81c>
 812:	7461                	lui	s0,0xffff8
 814:	63696d6f          	jal	s10,96e4a <__stack_size+0x8ee4a>
 818:	6c5f 616f 0064      	0x64616f6c5f
 81e:	6e697073          	csrci	0x6e6,18
 822:	6c5f 636f 006b      	0x6b636f6c5f
 828:	6e697073          	csrci	0x6e6,18
 82c:	755f 6c6e 636f      	0x636f6c6e755f
 832:	7461006b          	0x7461006b
 836:	63696d6f          	jal	s10,96e6c <__stack_size+0x8ee6c>
 83a:	635f 656c 7261      	0x7261656c635f
 840:	725f 6c65 6165      	0x61656c65725f
 846:	2e006573          	csrrsi	a0,0x2e0,0
 84a:	2f2e                	fld	ft10,200(sp)
 84c:	2f737973          	csrrci	s2,0x2f7,6
 850:	7865                	lui	a6,0xffff9
 852:	7469                	lui	s0,0xffffa
 854:	632e                	ld	t1,200(sp)
	...

Disassembly of section .debug_frame:

0000000000000000 <.debug_frame>:
   0:	000c                	0xc
   2:	0000                	unimp
   4:	ffff                	0xffff
   6:	ffff                	0xffff
   8:	0001                	nop
   a:	7c01                	lui	s8,0xfffe0
   c:	0d01                	addi	s10,s10,0
   e:	0002                	c.slli64	zero
  10:	0024                	addi	s1,sp,8
  12:	0000                	unimp
  14:	0000                	unimp
  16:	0000                	unimp
  18:	1fa0                	addi	s0,sp,1016
  1a:	8000                	0x8000
  1c:	0000                	unimp
  1e:	0000                	unimp
  20:	0014                	0x14
  22:	0000                	unimp
  24:	0000                	unimp
  26:	0000                	unimp
  28:	0e42                	slli	t3,t3,0x10
  2a:	4210                	lw	a2,0(a2)
  2c:	0281                	addi	t0,t0,0
  2e:	c146                	sw	a7,128(sp)
  30:	0e48                	addi	a0,sp,788
  32:	0000                	unimp
  34:	0000                	unimp
  36:	0000                	unimp
  38:	000c                	0xc
  3a:	0000                	unimp
  3c:	ffff                	0xffff
  3e:	ffff                	0xffff
  40:	0001                	nop
  42:	7c01                	lui	s8,0xfffe0
  44:	0d01                	addi	s10,s10,0
  46:	0002                	c.slli64	zero
  48:	0024                	addi	s1,sp,8
  4a:	0000                	unimp
  4c:	0038                	addi	a4,sp,8
  4e:	0000                	unimp
  50:	1fb4                	addi	a3,sp,1016
  52:	8000                	0x8000
  54:	0000                	unimp
  56:	0000                	unimp
  58:	0014                	0x14
  5a:	0000                	unimp
  5c:	0000                	unimp
  5e:	0000                	unimp
  60:	0e42                	slli	t3,t3,0x10
  62:	4210                	lw	a2,0(a2)
  64:	0281                	addi	t0,t0,0
  66:	c146                	sw	a7,128(sp)
  68:	0e48                	addi	a0,sp,788
  6a:	0000                	unimp
  6c:	0000                	unimp
  6e:	0000                	unimp
  70:	000c                	0xc
  72:	0000                	unimp
  74:	ffff                	0xffff
  76:	ffff                	0xffff
  78:	0001                	nop
  7a:	7c01                	lui	s8,0xfffe0
  7c:	0d01                	addi	s10,s10,0
  7e:	0002                	c.slli64	zero
  80:	0014                	0x14
  82:	0000                	unimp
  84:	0070                	addi	a2,sp,12
  86:	0000                	unimp
  88:	1fc8                	addi	a0,sp,1012
  8a:	8000                	0x8000
  8c:	0000                	unimp
  8e:	0000                	unimp
  90:	0008                	0x8
  92:	0000                	unimp
  94:	0000                	unimp
  96:	0000                	unimp
  98:	000c                	0xc
  9a:	0000                	unimp
  9c:	ffff                	0xffff
  9e:	ffff                	0xffff
  a0:	0001                	nop
  a2:	7c01                	lui	s8,0xfffe0
  a4:	0d01                	addi	s10,s10,0
  a6:	0002                	c.slli64	zero
  a8:	0024                	addi	s1,sp,8
  aa:	0000                	unimp
  ac:	0098                	addi	a4,sp,64
  ae:	0000                	unimp
  b0:	1fd0                	addi	a2,sp,1012
  b2:	8000                	0x8000
  b4:	0000                	unimp
  b6:	0000                	unimp
  b8:	0014                	0x14
  ba:	0000                	unimp
  bc:	0000                	unimp
  be:	0000                	unimp
  c0:	0e42                	slli	t3,t3,0x10
  c2:	4210                	lw	a2,0(a2)
  c4:	0281                	addi	t0,t0,0
  c6:	c146                	sw	a7,128(sp)
  c8:	0e48                	addi	a0,sp,788
  ca:	0000                	unimp
  cc:	0000                	unimp
  ce:	0000                	unimp
  d0:	000c                	0xc
  d2:	0000                	unimp
  d4:	ffff                	0xffff
  d6:	ffff                	0xffff
  d8:	0001                	nop
  da:	7c01                	lui	s8,0xfffe0
  dc:	0d01                	addi	s10,s10,0
  de:	0002                	c.slli64	zero
  e0:	0024                	addi	s1,sp,8
  e2:	0000                	unimp
  e4:	00d0                	addi	a2,sp,68
  e6:	0000                	unimp
  e8:	1fe4                	addi	s1,sp,1020
  ea:	8000                	0x8000
  ec:	0000                	unimp
  ee:	0000                	unimp
  f0:	0016                	c.slli	zero,0x5
  f2:	0000                	unimp
  f4:	0000                	unimp
  f6:	0000                	unimp
  f8:	0e42                	slli	t3,t3,0x10
  fa:	4210                	lw	a2,0(a2)
  fc:	0281                	addi	t0,t0,0
  fe:	c146                	sw	a7,128(sp)
 100:	0e4a                	slli	t3,t3,0x12
 102:	0000                	unimp
 104:	0000                	unimp
 106:	0000                	unimp
 108:	000c                	0xc
 10a:	0000                	unimp
 10c:	ffff                	0xffff
 10e:	ffff                	0xffff
 110:	0001                	nop
 112:	7c01                	lui	s8,0xfffe0
 114:	0d01                	addi	s10,s10,0
 116:	0002                	c.slli64	zero
 118:	0024                	addi	s1,sp,8
 11a:	0000                	unimp
 11c:	0108                	addi	a0,sp,128
 11e:	0000                	unimp
 120:	1ffa                	slli	t6,t6,0x3e
 122:	8000                	0x8000
 124:	0000                	unimp
 126:	0000                	unimp
 128:	003c                	addi	a5,sp,8
 12a:	0000                	unimp
 12c:	0000                	unimp
 12e:	0000                	unimp
 130:	0e68                	addi	a0,sp,796
 132:	4210                	lw	a2,0(a2)
 134:	0281                	addi	t0,t0,0
 136:	c146                	sw	a7,128(sp)
 138:	0e4a                	slli	t3,t3,0x12
 13a:	0000                	unimp
 13c:	0000                	unimp
 13e:	0000                	unimp
 140:	000c                	0xc
 142:	0000                	unimp
 144:	ffff                	0xffff
 146:	ffff                	0xffff
 148:	0001                	nop
 14a:	7c01                	lui	s8,0xfffe0
 14c:	0d01                	addi	s10,s10,0
 14e:	0002                	c.slli64	zero
 150:	0014                	0x14
 152:	0000                	unimp
 154:	0140                	addi	s0,sp,132
 156:	0000                	unimp
 158:	2036                	fld	ft0,328(sp)
 15a:	8000                	0x8000
 15c:	0000                	unimp
 15e:	0000                	unimp
 160:	0006                	c.slli	zero,0x1
 162:	0000                	unimp
 164:	0000                	unimp
 166:	0000                	unimp
 168:	000c                	0xc
 16a:	0000                	unimp
 16c:	ffff                	0xffff
 16e:	ffff                	0xffff
 170:	0001                	nop
 172:	7c01                	lui	s8,0xfffe0
 174:	0d01                	addi	s10,s10,0
 176:	0002                	c.slli64	zero
 178:	001c                	0x1c
 17a:	0000                	unimp
 17c:	0168                	addi	a0,sp,140
 17e:	0000                	unimp
 180:	203c                	fld	fa5,64(s0)
 182:	8000                	0x8000
 184:	0000                	unimp
 186:	0000                	unimp
 188:	0016                	c.slli	zero,0x5
 18a:	0000                	unimp
 18c:	0000                	unimp
 18e:	0000                	unimp
 190:	0e42                	slli	t3,t3,0x10
 192:	4610                	lw	a2,8(a2)
 194:	0281                	addi	t0,t0,0
 196:	0000                	unimp
 198:	000c                	0xc
 19a:	0000                	unimp
 19c:	ffff                	0xffff
 19e:	ffff                	0xffff
 1a0:	0001                	nop
 1a2:	7c01                	lui	s8,0xfffe0
 1a4:	0d01                	addi	s10,s10,0
 1a6:	0002                	c.slli64	zero
 1a8:	0024                	addi	s1,sp,8
 1aa:	0000                	unimp
 1ac:	0198                	addi	a4,sp,192
 1ae:	0000                	unimp
 1b0:	2052                	fld	ft0,272(sp)
 1b2:	8000                	0x8000
 1b4:	0000                	unimp
 1b6:	0000                	unimp
 1b8:	0030                	addi	a2,sp,8
 1ba:	0000                	unimp
 1bc:	0000                	unimp
 1be:	0000                	unimp
 1c0:	0e42                	slli	t3,t3,0x10
 1c2:	5210                	lw	a2,32(a2)
 1c4:	0488                	addi	a0,sp,576
 1c6:	0281                	addi	t0,t0,0
 1c8:	c84e                	sw	s3,16(sp)
 1ca:	c142                	sw	a6,128(sp)
 1cc:	0e48                	addi	a0,sp,788
 1ce:	0000                	unimp
 1d0:	000c                	0xc
 1d2:	0000                	unimp
 1d4:	ffff                	0xffff
 1d6:	ffff                	0xffff
 1d8:	0001                	nop
 1da:	7c01                	lui	s8,0xfffe0
 1dc:	0d01                	addi	s10,s10,0
 1de:	0002                	c.slli64	zero
 1e0:	0014                	0x14
 1e2:	0000                	unimp
 1e4:	01d0                	addi	a2,sp,196
 1e6:	0000                	unimp
 1e8:	2082                	fld	ft1,0(sp)
 1ea:	8000                	0x8000
 1ec:	0000                	unimp
 1ee:	0000                	unimp
 1f0:	0006                	c.slli	zero,0x1
 1f2:	0000                	unimp
 1f4:	0000                	unimp
 1f6:	0000                	unimp
 1f8:	000c                	0xc
 1fa:	0000                	unimp
 1fc:	ffff                	0xffff
 1fe:	ffff                	0xffff
 200:	0001                	nop
 202:	7c01                	lui	s8,0xfffe0
 204:	0d01                	addi	s10,s10,0
 206:	0002                	c.slli64	zero
 208:	001c                	0x1c
 20a:	0000                	unimp
 20c:	01f8                	addi	a4,sp,204
 20e:	0000                	unimp
 210:	2088                	fld	fa0,0(s1)
 212:	8000                	0x8000
 214:	0000                	unimp
 216:	0000                	unimp
 218:	004c                	addi	a1,sp,4
 21a:	0000                	unimp
 21c:	0000                	unimp
 21e:	0000                	unimp
 220:	0e42                	slli	t3,t3,0x10
 222:	0240                	addi	s0,sp,260
 224:	0e48                	addi	a0,sp,788
 226:	0000                	unimp
 228:	000c                	0xc
 22a:	0000                	unimp
 22c:	ffff                	0xffff
 22e:	ffff                	0xffff
 230:	0001                	nop
 232:	7c01                	lui	s8,0xfffe0
 234:	0d01                	addi	s10,s10,0
 236:	0002                	c.slli64	zero
 238:	0014                	0x14
 23a:	0000                	unimp
 23c:	0228                	addi	a0,sp,264
 23e:	0000                	unimp
 240:	20d4                	fld	fa3,128(s1)
 242:	8000                	0x8000
 244:	0000                	unimp
 246:	0000                	unimp
 248:	0022                	c.slli	zero,0x8
 24a:	0000                	unimp
 24c:	0000                	unimp
	...

Disassembly of section .debug_ranges:

0000000000000000 <.debug_ranges>:
   0:	0016                	c.slli	zero,0x5
   2:	0000                	unimp
   4:	0000                	unimp
   6:	0000                	unimp
   8:	0018                	0x18
   a:	0000                	unimp
   c:	0000                	unimp
   e:	0000                	unimp
  10:	001e                	c.slli	zero,0x7
  12:	0000                	unimp
  14:	0000                	unimp
  16:	0000                	unimp
  18:	0022                	c.slli	zero,0x8
	...
