
dc_1x1x8_1x1x8x1_int8_0.riscv:     file format elf64-littleriscv


Disassembly of section .config_addr:

0000000080050100 <ali1_data.1515>:
    80050100:	6100                	ld	s0,0(a0)
    80050102:	7594                	ld	a3,40(a1)
    80050104:	aa8efd3f 00000000 	0xaa8efd3f
	...
    80050130:	0005                	c.nop	1
	...
    8005013e:	0000                	unimp
    80050140:	0004                	0x4
    80050142:	0000                	unimp
    80050144:	0000                	unimp
    80050146:	0000                	unimp
    80050148:	0002                	c.slli64	zero
	...
    8005015e:	0000                	unimp
    80050160:	0002                	c.slli64	zero
    80050162:	0000                	unimp
    80050164:	0000                	unimp
    80050166:	0000                	unimp
    80050168:	0002                	c.slli64	zero
    8005016a:	0000                	unimp
    8005016c:	0000                	unimp
    8005016e:	0000                	unimp
    80050170:	0005                	c.nop	1
	...
    800501a6:	0000                	unimp
    800501a8:	00000003          	lb	zero,0(zero) # 0 <__boot_hart>
	...

Disassembly of section .config_addr1:

0000000080050200 <ali3_data.1515>:
    80050200:	0000006f          	j	80050200 <ali3_data.1515>
    80050204:	0000                	unimp
    80050206:	0010                	0x10
	...
    80050230:	0005                	c.nop	1
	...
    8005023e:	0000                	unimp
    80050240:	0004                	0x4
    80050242:	0000                	unimp
    80050244:	0000                	unimp
    80050246:	0000                	unimp
    80050248:	0002                	c.slli64	zero
	...
    8005025e:	0000                	unimp
    80050260:	0002                	c.slli64	zero
    80050262:	0000                	unimp
    80050264:	0000                	unimp
    80050266:	0000                	unimp
    80050268:	0002                	c.slli64	zero
    8005026a:	0000                	unimp
    8005026c:	0000                	unimp
    8005026e:	0000                	unimp
    80050270:	0005                	c.nop	1
	...
    800502a6:	0000                	unimp
    800502a8:	00000003          	lb	zero,0(zero) # 0 <__boot_hart>
	...

Disassembly of section .text:

0000000080000000 <_start>:
    80000000:	4081                	li	ra,0
    80000002:	4101                	li	sp,0
    80000004:	4181                	li	gp,0
    80000006:	4201                	li	tp,0
    80000008:	4281                	li	t0,0
    8000000a:	4301                	li	t1,0
    8000000c:	4381                	li	t2,0
    8000000e:	4401                	li	s0,0
    80000010:	4481                	li	s1,0
    80000012:	4501                	li	a0,0
    80000014:	4581                	li	a1,0
    80000016:	4601                	li	a2,0
    80000018:	4681                	li	a3,0
    8000001a:	4701                	li	a4,0
    8000001c:	4781                	li	a5,0
    8000001e:	4801                	li	a6,0
    80000020:	4881                	li	a7,0
    80000022:	4901                	li	s2,0
    80000024:	4981                	li	s3,0
    80000026:	4a01                	li	s4,0
    80000028:	4a81                	li	s5,0
    8000002a:	4b01                	li	s6,0
    8000002c:	4b81                	li	s7,0
    8000002e:	4c01                	li	s8,0
    80000030:	4c81                	li	s9,0
    80000032:	4d01                	li	s10,0
    80000034:	4d81                	li	s11,0
    80000036:	4e01                	li	t3,0
    80000038:	4e81                	li	t4,0
    8000003a:	4f01                	li	t5,0
    8000003c:	4f81                	li	t6,0
    8000003e:	62f9                	lui	t0,0x1e
    80000040:	3002a073          	csrs	mstatus,t0
    80000044:	00000297          	auipc	t0,0x0
    80000048:	09028293          	addi	t0,t0,144 # 800000d4 <_start+0xd4>
    8000004c:	30529073          	csrw	mtvec,t0
    80000050:	00301073          	fscsr	zero
    80000054:	f0000053          	fmv.w.x	ft0,zero
    80000058:	f00000d3          	fmv.w.x	ft1,zero
    8000005c:	f0000153          	fmv.w.x	ft2,zero
    80000060:	f00001d3          	fmv.w.x	ft3,zero
    80000064:	f0000253          	fmv.w.x	ft4,zero
    80000068:	f00002d3          	fmv.w.x	ft5,zero
    8000006c:	f0000353          	fmv.w.x	ft6,zero
    80000070:	f00003d3          	fmv.w.x	ft7,zero
    80000074:	f0000453          	fmv.w.x	fs0,zero
    80000078:	f00004d3          	fmv.w.x	fs1,zero
    8000007c:	f0000553          	fmv.w.x	fa0,zero
    80000080:	f00005d3          	fmv.w.x	fa1,zero
    80000084:	f0000653          	fmv.w.x	fa2,zero
    80000088:	f00006d3          	fmv.w.x	fa3,zero
    8000008c:	f0000753          	fmv.w.x	fa4,zero
    80000090:	f00007d3          	fmv.w.x	fa5,zero
    80000094:	f0000853          	fmv.w.x	fa6,zero
    80000098:	f00008d3          	fmv.w.x	fa7,zero
    8000009c:	f0000953          	fmv.w.x	fs2,zero
    800000a0:	f00009d3          	fmv.w.x	fs3,zero
    800000a4:	f0000a53          	fmv.w.x	fs4,zero
    800000a8:	f0000ad3          	fmv.w.x	fs5,zero
    800000ac:	f0000b53          	fmv.w.x	fs6,zero
    800000b0:	f0000bd3          	fmv.w.x	fs7,zero
    800000b4:	f0000c53          	fmv.w.x	fs8,zero
    800000b8:	f0000cd3          	fmv.w.x	fs9,zero
    800000bc:	f0000d53          	fmv.w.x	fs10,zero
    800000c0:	f0000dd3          	fmv.w.x	fs11,zero
    800000c4:	f0000e53          	fmv.w.x	ft8,zero
    800000c8:	f0000ed3          	fmv.w.x	ft9,zero
    800000cc:	f0000f53          	fmv.w.x	ft10,zero
    800000d0:	f0000fd3          	fmv.w.x	ft11,zero
    800000d4:	00003197          	auipc	gp,0x3
    800000d8:	e2c18193          	addi	gp,gp,-468 # 80002f00 <__global_pointer$>
    800000dc:	f1402473          	csrr	s0,mhartid
    800000e0:	00f00293          	li	t0,15
    800000e4:	00023217          	auipc	tp,0x23
    800000e8:	f1c20213          	addi	tp,tp,-228 # 80023000 <__heap_end>
    800000ec:	005412b3          	sll	t0,s0,t0
    800000f0:	9216                	add	tp,tp,t0
    800000f2:	62a1                	lui	t0,0x8
    800000f4:	00028293          	mv	t0,t0
    800000f8:	00520133          	add	sp,tp,t0
    800000fc:	00000297          	auipc	t0,0x0
    80000100:	04428293          	addi	t0,t0,68 # 80000140 <trap_entry>
    80000104:	30529073          	csrw	mtvec,t0
    80000108:	74b010ef          	jal	ra,80002052 <__init_tls>
    8000010c:	00000293          	li	t0,0
    80000110:	00540463          	beq	s0,t0,80000118 <_start+0x118>
    80000114:	0fa0006f          	j	8000020e <_start_secondary>
    80000118:	82818293          	addi	t0,gp,-2008 # 80002728 <size_start.2569>
    8000011c:	a7418313          	addi	t1,gp,-1420 # 80002974 <__bss_end>
    80000120:	0062f763          	bgeu	t0,t1,8000012e <_start+0x12e>
    80000124:	0002b023          	sd	zero,0(t0)
    80000128:	02a1                	addi	t0,t0,8
    8000012a:	fe62ede3          	bltu	t0,t1,80000124 <_start+0x124>
    8000012e:	00002517          	auipc	a0,0x2
    80000132:	00850513          	addi	a0,a0,8 # 80002136 <__libc_fini_array>
    80000136:	7c1010ef          	jal	ra,800020f6 <atexit>
    8000013a:	034020ef          	jal	ra,8000216e <__libc_init_array>
    8000013e:	a845                	j	800001ee <_start_main>

0000000080000140 <trap_entry>:
    80000140:	34011073          	csrw	mscratch,sp
    80000144:	7111                	addi	sp,sp,-256
    80000146:	e406                	sd	ra,8(sp)
    80000148:	340020f3          	csrr	ra,mscratch
    8000014c:	e806                	sd	ra,16(sp)
    8000014e:	ec0e                	sd	gp,24(sp)
    80000150:	f012                	sd	tp,32(sp)
    80000152:	f416                	sd	t0,40(sp)
    80000154:	f81a                	sd	t1,48(sp)
    80000156:	fc1e                	sd	t2,56(sp)
    80000158:	e0a2                	sd	s0,64(sp)
    8000015a:	e4a6                	sd	s1,72(sp)
    8000015c:	e8aa                	sd	a0,80(sp)
    8000015e:	ecae                	sd	a1,88(sp)
    80000160:	f0b2                	sd	a2,96(sp)
    80000162:	f4b6                	sd	a3,104(sp)
    80000164:	f8ba                	sd	a4,112(sp)
    80000166:	fcbe                	sd	a5,120(sp)
    80000168:	e142                	sd	a6,128(sp)
    8000016a:	e546                	sd	a7,136(sp)
    8000016c:	e94a                	sd	s2,144(sp)
    8000016e:	ed4e                	sd	s3,152(sp)
    80000170:	f152                	sd	s4,160(sp)
    80000172:	f556                	sd	s5,168(sp)
    80000174:	f95a                	sd	s6,176(sp)
    80000176:	fd5e                	sd	s7,184(sp)
    80000178:	e1e2                	sd	s8,192(sp)
    8000017a:	e5e6                	sd	s9,200(sp)
    8000017c:	e9ea                	sd	s10,208(sp)
    8000017e:	edee                	sd	s11,216(sp)
    80000180:	f1f2                	sd	t3,224(sp)
    80000182:	f5f6                	sd	t4,232(sp)
    80000184:	f9fa                	sd	t5,240(sp)
    80000186:	fdfe                	sd	t6,248(sp)
    80000188:	34102573          	csrr	a0,mepc
    8000018c:	342025f3          	csrr	a1,mcause
    80000190:	34302673          	csrr	a2,mtval
    80000194:	868a                	mv	a3,sp
    80000196:	6a7010ef          	jal	ra,8000203c <handle_trap>
    8000019a:	34151073          	csrw	mepc,a0
    8000019e:	000022b7          	lui	t0,0x2
    800001a2:	8002829b          	addiw	t0,t0,-2048
    800001a6:	3002a073          	csrs	mstatus,t0
    800001aa:	60a2                	ld	ra,8(sp)
    800001ac:	61e2                	ld	gp,24(sp)
    800001ae:	7202                	ld	tp,32(sp)
    800001b0:	72a2                	ld	t0,40(sp)
    800001b2:	7342                	ld	t1,48(sp)
    800001b4:	73e2                	ld	t2,56(sp)
    800001b6:	6406                	ld	s0,64(sp)
    800001b8:	64a6                	ld	s1,72(sp)
    800001ba:	6546                	ld	a0,80(sp)
    800001bc:	65e6                	ld	a1,88(sp)
    800001be:	7606                	ld	a2,96(sp)
    800001c0:	76a6                	ld	a3,104(sp)
    800001c2:	7746                	ld	a4,112(sp)
    800001c4:	77e6                	ld	a5,120(sp)
    800001c6:	680a                	ld	a6,128(sp)
    800001c8:	68aa                	ld	a7,136(sp)
    800001ca:	694a                	ld	s2,144(sp)
    800001cc:	69ea                	ld	s3,152(sp)
    800001ce:	7a0a                	ld	s4,160(sp)
    800001d0:	7aaa                	ld	s5,168(sp)
    800001d2:	7b4a                	ld	s6,176(sp)
    800001d4:	7bea                	ld	s7,184(sp)
    800001d6:	6c0e                	ld	s8,192(sp)
    800001d8:	6cae                	ld	s9,200(sp)
    800001da:	6d4e                	ld	s10,208(sp)
    800001dc:	6dee                	ld	s11,216(sp)
    800001de:	7e0e                	ld	t3,224(sp)
    800001e0:	7eae                	ld	t4,232(sp)
    800001e2:	7f4e                	ld	t5,240(sp)
    800001e4:	7fee                	ld	t6,248(sp)
    800001e6:	6142                	ld	sp,16(sp)
    800001e8:	30200073          	mret
	...

00000000800001ee <_start_main>:
    800001ee:	52fd                	li	t0,-1
    800001f0:	0110000f          	fence	w,w
    800001f4:	9451a823          	sw	t0,-1712(gp) # 80002850 <__boot_sync>
    800001f8:	4505                	li	a0,1
    800001fa:	00002597          	auipc	a1,0x2
    800001fe:	3be58593          	addi	a1,a1,958 # 800025b8 <argv>
    80000202:	8101b603          	ld	a2,-2032(gp) # 80002710 <environ>
    80000206:	02a000ef          	jal	ra,80000230 <main>
    8000020a:	7010106f          	j	8000210a <exit>

000000008000020e <_start_secondary>:
    8000020e:	9501a283          	lw	t0,-1712(gp) # 80002850 <__boot_sync>
    80000212:	fe028ee3          	beqz	t0,8000020e <_start_secondary>
    80000216:	0220000f          	fence	r,r
    8000021a:	4505                	li	a0,1
    8000021c:	00002597          	auipc	a1,0x2
    80000220:	39c58593          	addi	a1,a1,924 # 800025b8 <argv>
    80000224:	8101b603          	ld	a2,-2032(gp) # 80002710 <environ>
    80000228:	65b010ef          	jal	ra,80002082 <__main>
    8000022c:	6df0106f          	j	8000210a <exit>

0000000080000230 <main>:
    80000230:	08005637          	lui	a2,0x8005
    80000234:	1101                	addi	sp,sp,-32
    80000236:	100407b7          	lui	a5,0x10040
    8000023a:	0612                	slli	a2,a2,0x4
    8000023c:	100405b7          	lui	a1,0x10040
    80000240:	00002517          	auipc	a0,0x2
    80000244:	21050513          	addi	a0,a0,528 # 80002450 <__tbss_end+0x138>
    80000248:	ec06                	sd	ra,24(sp)
    8000024a:	82f1bc23          	sd	a5,-1992(gp) # 80002738 <ape_ptr>
    8000024e:	e822                	sd	s0,16(sp)
    80000250:	e426                	sd	s1,8(sp)
    80000252:	82c1b823          	sd	a2,-2000(gp) # 80002730 <ram_ptr>
    80000256:	622000ef          	jal	ra,80000878 <iprintf>
    8000025a:	3e4000ef          	jal	ra,8000063e <ape_get_ali1>
    8000025e:	84aa                	mv	s1,a0
    80000260:	3e8000ef          	jal	ra,80000648 <ape_get_ali3>
    80000264:	842a                	mv	s0,a0
    80000266:	4589                	li	a1,2
    80000268:	10000513          	li	a0,256
    8000026c:	3e6000ef          	jal	ra,80000652 <dram_init.part.0>
    80000270:	c489                	beqz	s1,8000027a <main+0x4a>
    80000272:	4585                	li	a1,1
    80000274:	8526                	mv	a0,s1
    80000276:	406000ef          	jal	ra,8000067c <dram_copy.part.0>
    8000027a:	c409                	beqz	s0,80000284 <main+0x54>
    8000027c:	458d                	li	a1,3
    8000027e:	8522                	mv	a0,s0
    80000280:	3fc000ef          	jal	ra,8000067c <dram_copy.part.0>
    80000284:	10049737          	lui	a4,0x10049
    80000288:	00072223          	sw	zero,4(a4) # 10049004 <__stack_size+0x10041004>
    8000028c:	04072623          	sw	zero,76(a4)
    80000290:	0e072023          	sw	zero,224(a4)
    80000294:	0e072223          	sw	zero,228(a4)
    80000298:	46a1                	li	a3,8
    8000029a:	cb74                	sw	a3,84(a4)
    8000029c:	0e072823          	sw	zero,240(a4)
    800002a0:	0e072623          	sw	zero,236(a4)
    800002a4:	00072023          	sw	zero,0(a4)
    800002a8:	8eb597b7          	lui	a5,0x8eb59
    800002ac:	0e072a23          	sw	zero,244(a4)
    800002b0:	28878793          	addi	a5,a5,648 # ffffffff8eb59288 <ali3_data.1515+0xffffffff0eb09088>
    800002b4:	0af72023          	sw	a5,160(a4)
    800002b8:	4609                	li	a2,2
    800002ba:	67ad                	lui	a5,0xb
    800002bc:	08c72223          	sw	a2,132(a4)
    800002c0:	01678613          	addi	a2,a5,22 # b016 <__stack_size+0x3016>
    800002c4:	08c72823          	sw	a2,144(a4)
    800002c8:	03300613          	li	a2,51
    800002cc:	0ac72623          	sw	a2,172(a4)
    800002d0:	b7d78793          	addi	a5,a5,-1155
    800002d4:	d33c                	sw	a5,96(a4)
    800002d6:	0c072823          	sw	zero,208(a4)
    800002da:	6889                	lui	a7,0x2
    800002dc:	06b00793          	li	a5,107
    800002e0:	d77c                	sw	a5,108(a4)
    800002e2:	10188793          	addi	a5,a7,257 # 2101 <__stack_align+0x20f1>
    800002e6:	d37c                	sw	a5,100(a4)
    800002e8:	47e1                	li	a5,24
    800002ea:	0af72423          	sw	a5,168(a4)
    800002ee:	0c072c23          	sw	zero,216(a4)
    800002f2:	0a072e23          	sw	zero,188(a4)
    800002f6:	47ad                	li	a5,11
    800002f8:	cf3c                	sw	a5,88(a4)
    800002fa:	4213a7b7          	lui	a5,0x4213a
    800002fe:	b5578793          	addi	a5,a5,-1195 # 42139b55 <__stack_size+0x42131b55>
    80000302:	08f72623          	sw	a5,140(a4)
    80000306:	67a1                	lui	a5,0x8
    80000308:	e6778793          	addi	a5,a5,-409 # 7e67 <__stack_size_min+0x1e67>
    8000030c:	df7c                	sw	a5,124(a4)
    8000030e:	0c072a23          	sw	zero,212(a4)
    80000312:	02072e23          	sw	zero,60(a4)
    80000316:	df4ce7b7          	lui	a5,0xdf4ce
    8000031a:	0e072423          	sw	zero,232(a4)
    8000031e:	be078793          	addi	a5,a5,-1056 # ffffffffdf4cdbe0 <ali3_data.1515+0xffffffff5f47d9e0>
    80000322:	0af72c23          	sw	a5,184(a4)
    80000326:	02100613          	li	a2,33
    8000032a:	67a5                	lui	a5,0x9
    8000032c:	0cc72423          	sw	a2,200(a4)
    80000330:	7e078613          	addi	a2,a5,2016 # 97e0 <__stack_size+0x17e0>
    80000334:	08c72423          	sw	a2,136(a4)
    80000338:	03500613          	li	a2,53
    8000033c:	08c72a23          	sw	a2,148(a4)
    80000340:	4805                	li	a6,1
    80000342:	cb34                	sw	a3,80(a4)
    80000344:	abc446b7          	lui	a3,0xabc44
    80000348:	09072c23          	sw	a6,152(a4)
    8000034c:	3a968693          	addi	a3,a3,937 # ffffffffabc443a9 <ali3_data.1515+0xffffffff2bbf41a9>
    80000350:	08d72e23          	sw	a3,156(a4)
    80000354:	6685                	lui	a3,0x1
    80000356:	e0168693          	addi	a3,a3,-511 # e01 <__stack_align+0xdf1>
    8000035a:	cf74                	sw	a3,92(a4)
    8000035c:	3dc326b7          	lui	a3,0x3dc32
    80000360:	4eb68693          	addi	a3,a3,1259 # 3dc324eb <__stack_size+0x3dc2a4eb>
    80000364:	0cd72023          	sw	a3,192(a4)
    80000368:	66a9                	lui	a3,0xa
    8000036a:	0b072a23          	sw	a6,180(a4)
    8000036e:	43368693          	addi	a3,a3,1075 # a433 <__stack_size+0x2433>
    80000372:	0cd72223          	sw	a3,196(a4)
    80000376:	e0088693          	addi	a3,a7,-512
    8000037a:	db34                	sw	a3,112(a4)
    8000037c:	800506b7          	lui	a3,0x80050
    80000380:	c734                	sw	a3,72(a4)
    80000382:	09072023          	sw	a6,128(a4)
    80000386:	40100613          	li	a2,1025
    8000038a:	df30                	sw	a2,120(a4)
    8000038c:	04072223          	sw	zero,68(a4)
    80000390:	0e072c23          	sw	zero,248(a4)
    80000394:	6619                	lui	a2,0x6
    80000396:	0c072623          	sw	zero,204(a4)
    8000039a:	9c160613          	addi	a2,a2,-1599 # 59c1 <__stack_align+0x59b1>
    8000039e:	d730                	sw	a2,104(a4)
    800003a0:	461d                	li	a2,7
    800003a2:	0cc72e23          	sw	a2,220(a4)
    800003a6:	43078593          	addi	a1,a5,1072
    800003aa:	db6c                	sw	a1,116(a4)
    800003ac:	04072023          	sw	zero,64(a4)
    800003b0:	0b878793          	addi	a5,a5,184
    800003b4:	0af72223          	sw	a5,164(a4)
    800003b8:	45a5                	li	a1,9
    800003ba:	100437b7          	lui	a5,0x10043
    800003be:	0ab72823          	sw	a1,176(a4)
    800003c2:	0007a223          	sw	zero,4(a5) # 10043004 <__stack_size+0x1003b004>
    800003c6:	0b000593          	li	a1,176
    800003ca:	0ab7a223          	sw	a1,164(a5)
    800003ce:	0c07a223          	sw	zero,196(a5)
    800003d2:	658d                	lui	a1,0x3
    800003d4:	0c07a823          	sw	zero,208(a5)
    800003d8:	6e458593          	addi	a1,a1,1764 # 36e4 <__stack_align+0x36d4>
    800003dc:	0ab7a423          	sw	a1,168(a5)
    800003e0:	0407ac23          	sw	zero,88(a5)
    800003e4:	973935b7          	lui	a1,0x97393
    800003e8:	0c07a423          	sw	zero,200(a5)
    800003ec:	cf458593          	addi	a1,a1,-780 # ffffffff97392cf4 <ali3_data.1515+0xffffffff17342af4>
    800003f0:	0ab7a023          	sw	a1,160(a5)
    800003f4:	0007ae23          	sw	zero,28(a5)
    800003f8:	0407a623          	sw	zero,76(a5)
    800003fc:	0c07ae23          	sw	zero,220(a5)
    80000400:	0607a223          	sw	zero,100(a5)
    80000404:	0c07a623          	sw	zero,204(a5)
    80000408:	0007a023          	sw	zero,0(a5)
    8000040c:	10000eb7          	lui	t4,0x10000
    80000410:	20068313          	addi	t1,a3,512 # ffffffff80050200 <ali3_data.1515+0xffffffff00000000>
    80000414:	0807ac23          	sw	zero,152(a5)
    80000418:	01d7aa23          	sw	t4,20(a5)
    8000041c:	07900593          	li	a1,121
    80000420:	0267ae23          	sw	t1,60(a5)
    80000424:	aaaae537          	lui	a0,0xaaaae
    80000428:	08b7a223          	sw	a1,132(a5)
    8000042c:	b0650513          	addi	a0,a0,-1274 # ffffffffaaaadb06 <ali3_data.1515+0xffffffff2aa5d906>
    80000430:	0ea7a423          	sw	a0,232(a5)
    80000434:	0e07a223          	sw	zero,228(a5)
    80000438:	0e07a023          	sw	zero,224(a5)
    8000043c:	0007a623          	sw	zero,12(a5)
    80000440:	0c07aa23          	sw	zero,212(a5)
    80000444:	fec725b7          	lui	a1,0xfec72
    80000448:	0607a023          	sw	zero,96(a5)
    8000044c:	4c958593          	addi	a1,a1,1225 # fffffffffec724c9 <ali3_data.1515+0xffffffff7ec222c9>
    80000450:	08b7ae23          	sw	a1,156(a5)
    80000454:	08000f13          	li	t5,128
    80000458:	09e7a023          	sw	t5,128(a5)
    8000045c:	0267aa23          	sw	t1,52(a5)
    80000460:	6335                	lui	t1,0xd
    80000462:	0c030313          	addi	t1,t1,192 # d0c0 <__stack_size+0x50c0>
    80000466:	0a67ac23          	sw	t1,184(a5)
    8000046a:	1c000593          	li	a1,448
    8000046e:	c3ac                	sw	a1,64(a5)
    80000470:	000205b7          	lui	a1,0x20
    80000474:	058d                	addi	a1,a1,3
    80000476:	0239ae37          	lui	t3,0x239a
    8000047a:	d78c                	sw	a1,40(a5)
    8000047c:	f80e0e13          	addi	t3,t3,-128 # 2399f80 <__stack_size+0x2391f80>
    80000480:	09c7aa23          	sw	t3,148(a5)
    80000484:	65c1                	lui	a1,0x10
    80000486:	0707aa23          	sw	a6,116(a5)
    8000048a:	9fa58f93          	addi	t6,a1,-1542 # f9fa <__stack_size+0x79fa>
    8000048e:	0bf7a623          	sw	t6,172(a5)
    80000492:	10088893          	addi	a7,a7,256
    80000496:	0517a423          	sw	a7,72(a5)
    8000049a:	0cc00893          	li	a7,204
    8000049e:	0917a623          	sw	a7,140(a5)
    800004a2:	10068693          	addi	a3,a3,256
    800004a6:	dff4                	sw	a3,124(a5)
    800004a8:	50b386b7          	lui	a3,0x50b38
    800004ac:	d390                	sw	a2,32(a5)
    800004ae:	f0068693          	addi	a3,a3,-256 # 50b37f00 <__stack_size+0x50b2ff00>
    800004b2:	08d7a823          	sw	a3,144(a5)
    800004b6:	000b06b7          	lui	a3,0xb0
    800004ba:	0607ac23          	sw	zero,120(a5)
    800004be:	069d                	addi	a3,a3,7
    800004c0:	c794                	sw	a3,8(a5)
    800004c2:	0d07a023          	sw	a6,192(a5)
    800004c6:	07c00693          	li	a3,124
    800004ca:	df94                	sw	a3,56(a5)
    800004cc:	0607a423          	sw	zero,104(a5)
    800004d0:	0207a223          	sw	zero,36(a5)
    800004d4:	0307a623          	sw	a6,44(a5)
    800004d8:	d7f0                	sw	a2,108(a5)
    800004da:	0207a823          	sw	zero,48(a5)
    800004de:	0c07ac23          	sw	zero,216(a5)
    800004e2:	40000693          	li	a3,1024
    800004e6:	cf94                	sw	a3,24(a5)
    800004e8:	946546b7          	lui	a3,0x94654
    800004ec:	22068693          	addi	a3,a3,544 # ffffffff94654220 <ali3_data.1515+0xffffffff14604020>
    800004f0:	08d7a423          	sw	a3,136(a5)
    800004f4:	000708b7          	lui	a7,0x70
    800004f8:	0ab7a823          	sw	a1,176(a5)
    800004fc:	0899                	addi	a7,a7,6
    800004fe:	f0e206b7          	lui	a3,0xf0e20
    80000502:	0b17ae23          	sw	a7,188(a5)
    80000506:	b4068693          	addi	a3,a3,-1216 # fffffffff0e1fb40 <ali3_data.1515+0xffffffff70dcf940>
    8000050a:	c3f4                	sw	a3,68(a5)
    8000050c:	0407ae23          	sw	zero,92(a5)
    80000510:	0607a823          	sw	zero,112(a5)
    80000514:	100446b7          	lui	a3,0x10044
    80000518:	0a07aa23          	sw	zero,180(a5)
    8000051c:	0006a223          	sw	zero,4(a3) # 10044004 <__stack_size+0x1003c004>
    80000520:	0406a423          	sw	zero,72(a3)
    80000524:	0206ae23          	sw	zero,60(a3)
    80000528:	0206a023          	sw	zero,32(a3)
    8000052c:	0006ae23          	sw	zero,28(a3)
    80000530:	03e6aa23          	sw	t5,52(a3)
    80000534:	0206a623          	sw	zero,44(a3)
    80000538:	0406a023          	sw	zero,64(a3)
    8000053c:	0706a023          	sw	a6,96(a3)
    80000540:	0006aa23          	sw	zero,20(a3)
    80000544:	0006a023          	sw	zero,0(a3)
    80000548:	d2e8                	sw	a0,100(a3)
    8000054a:	0206a223          	sw	zero,36(a3)
    8000054e:	0206a423          	sw	zero,40(a3)
    80000552:	0516ae23          	sw	a7,92(a3)
    80000556:	0406a223          	sw	zero,68(a3)
    8000055a:	000d08b7          	lui	a7,0xd0
    8000055e:	c6ec                	sw	a1,76(a3)
    80000560:	088d                	addi	a7,a7,3
    80000562:	0516a823          	sw	a7,80(a3)
    80000566:	0406aa23          	sw	zero,84(a3)
    8000056a:	03c6ac23          	sw	t3,56(a3)
    8000056e:	0466ac23          	sw	t1,88(a3)
    80000572:	ce90                	sw	a2,24(a3)
    80000574:	da90                	sw	a2,48(a3)
    80000576:	0006a823          	sw	zero,16(a3)
    8000057a:	10045337          	lui	t1,0x10045
    8000057e:	01d6a623          	sw	t4,12(a3)
    80000582:	00032223          	sw	zero,4(t1) # 10045004 <__stack_size+0x1003d004>
    80000586:	00032623          	sw	zero,12(t1)
    8000058a:	00032023          	sw	zero,0(t1)
    8000058e:	100468b7          	lui	a7,0x10046
    80000592:	0008a223          	sw	zero,4(a7) # 10046004 <__stack_size+0x1003e004>
    80000596:	0008a023          	sw	zero,0(a7)
    8000059a:	0008a623          	sw	zero,12(a7)
    8000059e:	10047637          	lui	a2,0x10047
    800005a2:	00062223          	sw	zero,4(a2) # 10047004 <__stack_size+0x1003f004>
    800005a6:	4e19                	li	t3,6
    800005a8:	03c62623          	sw	t3,44(a2)
    800005ac:	0f5ace37          	lui	t3,0xf5ac
    800005b0:	2e0e0e13          	addi	t3,t3,736 # f5ac2e0 <__stack_size+0xf5a42e0>
    800005b4:	01c62c23          	sw	t3,24(a2)
    800005b8:	00062623          	sw	zero,12(a2)
    800005bc:	00062023          	sw	zero,0(a2)
    800005c0:	00062823          	sw	zero,16(a2)
    800005c4:	da48                	sw	a0,52(a2)
    800005c6:	02000513          	li	a0,32
    800005ca:	d208                	sw	a0,32(a2)
    800005cc:	0585                	addi	a1,a1,1
    800005ce:	d60c                	sw	a1,40(a2)
    800005d0:	d248                	sw	a0,36(a2)
    800005d2:	02062823          	sw	zero,48(a2)
    800005d6:	00062e23          	sw	zero,28(a2)
    800005da:	00062a23          	sw	zero,20(a2)
    800005de:	03072c23          	sw	a6,56(a4)
    800005e2:	01062423          	sw	a6,8(a2)
    800005e6:	01032423          	sw	a6,8(t1)
    800005ea:	0108a423          	sw	a6,8(a7)
    800005ee:	0106a423          	sw	a6,8(a3)
    800005f2:	0107a823          	sw	a6,16(a5)
    800005f6:	4605                	li	a2,1
    800005f8:	458d                	li	a1,3
    800005fa:	651d                	lui	a0,0x7
    800005fc:	0ec000ef          	jal	ra,800006e8 <poll_field_not_equal>
    80000600:	4605                	li	a2,1
    80000602:	458d                	li	a1,3
    80000604:	650d                	lui	a0,0x3
    80000606:	0e2000ef          	jal	ra,800006e8 <poll_field_not_equal>
    8000060a:	4605                	li	a2,1
    8000060c:	458d                	li	a1,3
    8000060e:	6515                	lui	a0,0x5
    80000610:	0d8000ef          	jal	ra,800006e8 <poll_field_not_equal>
    80000614:	4605                	li	a2,1
    80000616:	458d                	li	a1,3
    80000618:	6519                	lui	a0,0x6
    8000061a:	0ce000ef          	jal	ra,800006e8 <poll_field_not_equal>
    8000061e:	4605                	li	a2,1
    80000620:	458d                	li	a1,3
    80000622:	6511                	lui	a0,0x4
    80000624:	0c4000ef          	jal	ra,800006e8 <poll_field_not_equal>
    80000628:	4509                	li	a0,2
    8000062a:	4621                	li	a2,8
    8000062c:	4581                	li	a1,0
    8000062e:	104000ef          	jal	ra,80000732 <get_context>
    80000632:	60e2                	ld	ra,24(sp)
    80000634:	6442                	ld	s0,16(sp)
    80000636:	64a2                	ld	s1,8(sp)
    80000638:	4501                	li	a0,0
    8000063a:	6105                	addi	sp,sp,32
    8000063c:	8082                	ret

000000008000063e <ape_get_ali1>:
    8000063e:	00050517          	auipc	a0,0x50
    80000642:	ac250513          	addi	a0,a0,-1342 # 80050100 <ali1_data.1515>
    80000646:	8082                	ret

0000000080000648 <ape_get_ali3>:
    80000648:	00050517          	auipc	a0,0x50
    8000064c:	bb850513          	addi	a0,a0,-1096 # 80050200 <ali3_data.1515>
    80000650:	8082                	ret

0000000080000652 <dram_init.part.0>:
    80000652:	82818813          	addi	a6,gp,-2008 # 80002728 <size_start.2569>
    80000656:	00083783          	ld	a5,0(a6)
    8000065a:	8301b603          	ld	a2,-2000(gp) # 80002730 <ram_ptr>
    8000065e:	00359693          	slli	a3,a1,0x3
    80000662:	86818713          	addi	a4,gp,-1944 # 80002768 <ram_addr>
    80000666:	963e                	add	a2,a2,a5
    80000668:	9736                	add	a4,a4,a3
    8000066a:	97aa                	add	a5,a5,a0
    8000066c:	00002517          	auipc	a0,0x2
    80000670:	cac50513          	addi	a0,a0,-852 # 80002318 <__tbss_end>
    80000674:	e310                	sd	a2,0(a4)
    80000676:	00f83023          	sd	a5,0(a6)
    8000067a:	aafd                	j	80000878 <iprintf>

000000008000067c <dram_copy.part.0>:
    8000067c:	1101                	addi	sp,sp,-32
    8000067e:	e822                	sd	s0,16(sp)
    80000680:	e426                	sd	s1,8(sp)
    80000682:	842a                	mv	s0,a0
    80000684:	84ae                	mv	s1,a1
    80000686:	85aa                	mv	a1,a0
    80000688:	00002517          	auipc	a0,0x2
    8000068c:	cb050513          	addi	a0,a0,-848 # 80002338 <__tbss_end+0x20>
    80000690:	ec06                	sd	ra,24(sp)
    80000692:	1e6000ef          	jal	ra,80000878 <iprintf>
    80000696:	00349713          	slli	a4,s1,0x3
    8000069a:	86818793          	addi	a5,gp,-1944 # 80002768 <ram_addr>
    8000069e:	97ba                	add	a5,a5,a4
    800006a0:	e380                	sd	s0,0(a5)
    800006a2:	8622                	mv	a2,s0
    800006a4:	6442                	ld	s0,16(sp)
    800006a6:	60e2                	ld	ra,24(sp)
    800006a8:	85a6                	mv	a1,s1
    800006aa:	64a2                	ld	s1,8(sp)
    800006ac:	00002517          	auipc	a0,0x2
    800006b0:	c9c50513          	addi	a0,a0,-868 # 80002348 <__tbss_end+0x30>
    800006b4:	6105                	addi	sp,sp,32
    800006b6:	a2c9                	j	80000878 <iprintf>

00000000800006b8 <reg_write32>:
    800006b8:	1502                	slli	a0,a0,0x20
    800006ba:	9101                	srli	a0,a0,0x20
    800006bc:	c10c                	sw	a1,0(a0)
    800006be:	8082                	ret

00000000800006c0 <reg_read32>:
    800006c0:	1502                	slli	a0,a0,0x20
    800006c2:	9101                	srli	a0,a0,0x20
    800006c4:	4108                	lw	a0,0(a0)
    800006c6:	2501                	sext.w	a0,a0
    800006c8:	8082                	ret

00000000800006ca <dram_init>:
    800006ca:	00357713          	andi	a4,a0,3
    800006ce:	e311                	bnez	a4,800006d2 <dram_init+0x8>
    800006d0:	b749                	j	80000652 <dram_init.part.0>
    800006d2:	85aa                	mv	a1,a0
    800006d4:	00002517          	auipc	a0,0x2
    800006d8:	c8c50513          	addi	a0,a0,-884 # 80002360 <__tbss_end+0x48>
    800006dc:	aa71                	j	80000878 <iprintf>

00000000800006de <dram_copy>:
    800006de:	852e                	mv	a0,a1
    800006e0:	85b2                	mv	a1,a2
    800006e2:	c111                	beqz	a0,800006e6 <dram_copy+0x8>
    800006e4:	bf61                	j	8000067c <dram_copy.part.0>
    800006e6:	8082                	ret

00000000800006e8 <poll_field_not_equal>:
    800006e8:	7179                	addi	sp,sp,-48
    800006ea:	c62a                	sw	a0,12(sp)
    800006ec:	c42e                	sw	a1,8(sp)
    800006ee:	c232                	sw	a2,4(sp)
    800006f0:	45b2                	lw	a1,12(sp)
    800006f2:	4622                	lw	a2,8(sp)
    800006f4:	4692                	lw	a3,4(sp)
    800006f6:	2581                	sext.w	a1,a1
    800006f8:	2601                	sext.w	a2,a2
    800006fa:	2681                	sext.w	a3,a3
    800006fc:	00002517          	auipc	a0,0x2
    80000700:	c8450513          	addi	a0,a0,-892 # 80002380 <__tbss_end+0x68>
    80000704:	f406                	sd	ra,40(sp)
    80000706:	172000ef          	jal	ra,80000878 <iprintf>
    8000070a:	10040637          	lui	a2,0x10040
    8000070e:	47b2                	lw	a5,12(sp)
    80000710:	9fb1                	addw	a5,a5,a2
    80000712:	1782                	slli	a5,a5,0x20
    80000714:	9381                	srli	a5,a5,0x20
    80000716:	439c                	lw	a5,0(a5)
    80000718:	2781                	sext.w	a5,a5
    8000071a:	ce3e                	sw	a5,28(sp)
    8000071c:	46f2                	lw	a3,28(sp)
    8000071e:	47a2                	lw	a5,8(sp)
    80000720:	4712                	lw	a4,4(sp)
    80000722:	8ff5                	and	a5,a5,a3
    80000724:	2701                	sext.w	a4,a4
    80000726:	2781                	sext.w	a5,a5
    80000728:	fee783e3          	beq	a5,a4,8000070e <poll_field_not_equal+0x26>
    8000072c:	70a2                	ld	ra,40(sp)
    8000072e:	6145                	addi	sp,sp,48
    80000730:	8082                	ret

0000000080000732 <get_context>:
    80000732:	715d                	addi	sp,sp,-80
    80000734:	f44e                	sd	s3,40(sp)
    80000736:	050e                	slli	a0,a0,0x3
    80000738:	86818993          	addi	s3,gp,-1944 # 80002768 <ram_addr>
    8000073c:	99aa                	add	s3,s3,a0
    8000073e:	e486                	sd	ra,72(sp)
    80000740:	e0a2                	sd	s0,64(sp)
    80000742:	fc26                	sd	s1,56(sp)
    80000744:	8432                	mv	s0,a2
    80000746:	0009b483          	ld	s1,0(s3)
    8000074a:	f84a                	sd	s2,48(sp)
    8000074c:	f052                	sd	s4,32(sp)
    8000074e:	ec56                	sd	s5,24(sp)
    80000750:	e85a                	sd	s6,16(sp)
    80000752:	e45e                	sd	s7,8(sp)
    80000754:	0e4000ef          	jal	ra,80000838 <ape_get_right_value>
    80000758:	0009b583          	ld	a1,0(s3)
    8000075c:	892a                	mv	s2,a0
    8000075e:	8626                	mv	a2,s1
    80000760:	00002517          	auipc	a0,0x2
    80000764:	c5850513          	addi	a0,a0,-936 # 800023b8 <__tbss_end+0xa0>
    80000768:	110000ef          	jal	ra,80000878 <iprintf>
    8000076c:	41f4599b          	sraiw	s3,s0,0x1f
    80000770:	01e9d99b          	srliw	s3,s3,0x1e
    80000774:	478d                	li	a5,3
    80000776:	008989bb          	addw	s3,s3,s0
    8000077a:	0a87da63          	bge	a5,s0,8000082e <get_context+0xfc>
    8000077e:	4029da1b          	sraiw	s4,s3,0x2
    80000782:	8ad2                	mv	s5,s4
    80000784:	89a6                	mv	s3,s1
    80000786:	4401                	li	s0,0
    80000788:	00002b97          	auipc	s7,0x2
    8000078c:	c60b8b93          	addi	s7,s7,-928 # 800023e8 <__tbss_end+0xd0>
    80000790:	00002b17          	auipc	s6,0x2
    80000794:	c48b0b13          	addi	s6,s6,-952 # 800023d8 <__tbss_end+0xc0>
    80000798:	2405                	addiw	s0,s0,1
    8000079a:	00347793          	andi	a5,s0,3
    8000079e:	0009a583          	lw	a1,0(s3)
    800007a2:	855a                	mv	a0,s6
    800007a4:	c391                	beqz	a5,800007a8 <get_context+0x76>
    800007a6:	855e                	mv	a0,s7
    800007a8:	0d0000ef          	jal	ra,80000878 <iprintf>
    800007ac:	0991                	addi	s3,s3,4
    800007ae:	ff4445e3          	blt	s0,s4,80000798 <get_context+0x66>
    800007b2:	00002517          	auipc	a0,0x2
    800007b6:	c9650513          	addi	a0,a0,-874 # 80002448 <__tbss_end+0x130>
    800007ba:	fffa899b          	addiw	s3,s5,-1
    800007be:	0ba000ef          	jal	ra,80000878 <iprintf>
    800007c2:	4401                	li	s0,0
    800007c4:	00002a97          	auipc	s5,0x2
    800007c8:	c2ca8a93          	addi	s5,s5,-980 # 800023f0 <__tbss_end+0xd8>
    800007cc:	a031                	j	800007d8 <get_context+0xa6>
    800007ce:	05340063          	beq	s0,s3,8000080e <get_context+0xdc>
    800007d2:	2405                	addiw	s0,s0,1
    800007d4:	05445263          	bge	s0,s4,80000818 <get_context+0xe6>
    800007d8:	4090                	lw	a2,0(s1)
    800007da:	85a2                	mv	a1,s0
    800007dc:	8556                	mv	a0,s5
    800007de:	09a000ef          	jal	ra,80000878 <iprintf>
    800007e2:	4098                	lw	a4,0(s1)
    800007e4:	00092783          	lw	a5,0(s2)
    800007e8:	0491                	addi	s1,s1,4
    800007ea:	0911                	addi	s2,s2,4
    800007ec:	fef701e3          	beq	a4,a5,800007ce <get_context+0x9c>
    800007f0:	00002517          	auipc	a0,0x2
    800007f4:	c1050513          	addi	a0,a0,-1008 # 80002400 <__tbss_end+0xe8>
    800007f8:	6406                	ld	s0,64(sp)
    800007fa:	60a6                	ld	ra,72(sp)
    800007fc:	74e2                	ld	s1,56(sp)
    800007fe:	7942                	ld	s2,48(sp)
    80000800:	79a2                	ld	s3,40(sp)
    80000802:	7a02                	ld	s4,32(sp)
    80000804:	6ae2                	ld	s5,24(sp)
    80000806:	6b42                	ld	s6,16(sp)
    80000808:	6ba2                	ld	s7,8(sp)
    8000080a:	6161                	addi	sp,sp,80
    8000080c:	a0b5                	j	80000878 <iprintf>
    8000080e:	00002517          	auipc	a0,0x2
    80000812:	c1a50513          	addi	a0,a0,-998 # 80002428 <__tbss_end+0x110>
    80000816:	b7cd                	j	800007f8 <get_context+0xc6>
    80000818:	60a6                	ld	ra,72(sp)
    8000081a:	6406                	ld	s0,64(sp)
    8000081c:	74e2                	ld	s1,56(sp)
    8000081e:	7942                	ld	s2,48(sp)
    80000820:	79a2                	ld	s3,40(sp)
    80000822:	7a02                	ld	s4,32(sp)
    80000824:	6ae2                	ld	s5,24(sp)
    80000826:	6b42                	ld	s6,16(sp)
    80000828:	6ba2                	ld	s7,8(sp)
    8000082a:	6161                	addi	sp,sp,80
    8000082c:	8082                	ret
    8000082e:	00002517          	auipc	a0,0x2
    80000832:	c1a50513          	addi	a0,a0,-998 # 80002448 <__tbss_end+0x130>
    80000836:	b7c9                	j	800007f8 <get_context+0xc6>

0000000080000838 <ape_get_right_value>:
    80000838:	82018513          	addi	a0,gp,-2016 # 80002720 <right_value.1514>
    8000083c:	8082                	ret

000000008000083e <_iprintf_r>:
    8000083e:	711d                	addi	sp,sp,-96
    80000840:	f022                	sd	s0,32(sp)
    80000842:	ec26                	sd	s1,24(sp)
    80000844:	f406                	sd	ra,40(sp)
    80000846:	f832                	sd	a2,48(sp)
    80000848:	fc36                	sd	a3,56(sp)
    8000084a:	e0ba                	sd	a4,64(sp)
    8000084c:	e4be                	sd	a5,72(sp)
    8000084e:	e8c2                	sd	a6,80(sp)
    80000850:	ecc6                	sd	a7,88(sp)
    80000852:	842a                	mv	s0,a0
    80000854:	84ae                	mv	s1,a1
    80000856:	c509                	beqz	a0,80000860 <_iprintf_r+0x22>
    80000858:	591c                	lw	a5,48(a0)
    8000085a:	e399                	bnez	a5,80000860 <_iprintf_r+0x22>
    8000085c:	126000ef          	jal	ra,80000982 <__sinit>
    80000860:	680c                	ld	a1,16(s0)
    80000862:	1814                	addi	a3,sp,48
    80000864:	8626                	mv	a2,s1
    80000866:	8522                	mv	a0,s0
    80000868:	e436                	sd	a3,8(sp)
    8000086a:	4be000ef          	jal	ra,80000d28 <_vfiprintf_r>
    8000086e:	70a2                	ld	ra,40(sp)
    80000870:	7402                	ld	s0,32(sp)
    80000872:	64e2                	ld	s1,24(sp)
    80000874:	6125                	addi	sp,sp,96
    80000876:	8082                	ret

0000000080000878 <iprintf>:
    80000878:	7159                	addi	sp,sp,-112
    8000087a:	f022                	sd	s0,32(sp)
    8000087c:	f406                	sd	ra,40(sp)
    8000087e:	842a                	mv	s0,a0
    80000880:	fc2e                	sd	a1,56(sp)
    80000882:	e0b2                	sd	a2,64(sp)
    80000884:	e4b6                	sd	a3,72(sp)
    80000886:	e8ba                	sd	a4,80(sp)
    80000888:	ecbe                	sd	a5,88(sp)
    8000088a:	f0c2                	sd	a6,96(sp)
    8000088c:	f4c6                	sd	a7,104(sp)
    8000088e:	00002517          	auipc	a0,0x2
    80000892:	e7253503          	ld	a0,-398(a0) # 80002700 <_impure_ptr>
    80000896:	c519                	beqz	a0,800008a4 <iprintf+0x2c>
    80000898:	591c                	lw	a5,48(a0)
    8000089a:	e789                	bnez	a5,800008a4 <iprintf+0x2c>
    8000089c:	e42a                	sd	a0,8(sp)
    8000089e:	0e4000ef          	jal	ra,80000982 <__sinit>
    800008a2:	6522                	ld	a0,8(sp)
    800008a4:	690c                	ld	a1,16(a0)
    800008a6:	1834                	addi	a3,sp,56
    800008a8:	8622                	mv	a2,s0
    800008aa:	ec36                	sd	a3,24(sp)
    800008ac:	47c000ef          	jal	ra,80000d28 <_vfiprintf_r>
    800008b0:	70a2                	ld	ra,40(sp)
    800008b2:	7402                	ld	s0,32(sp)
    800008b4:	6165                	addi	sp,sp,112
    800008b6:	8082                	ret

00000000800008b8 <__fp_lock>:
    800008b8:	4501                	li	a0,0
    800008ba:	8082                	ret

00000000800008bc <std>:
    800008bc:	1141                	addi	sp,sp,-16
    800008be:	e022                	sd	s0,0(sp)
    800008c0:	e406                	sd	ra,8(sp)
    800008c2:	842a                	mv	s0,a0
    800008c4:	00b51823          	sh	a1,16(a0)
    800008c8:	00c51923          	sh	a2,18(a0)
    800008cc:	00053023          	sd	zero,0(a0)
    800008d0:	00053423          	sd	zero,8(a0)
    800008d4:	0a052623          	sw	zero,172(a0)
    800008d8:	00053c23          	sd	zero,24(a0)
    800008dc:	02052023          	sw	zero,32(a0)
    800008e0:	02052423          	sw	zero,40(a0)
    800008e4:	4621                	li	a2,8
    800008e6:	4581                	li	a1,0
    800008e8:	0a450513          	addi	a0,a0,164
    800008ec:	2a6000ef          	jal	ra,80000b92 <memset>
    800008f0:	00001797          	auipc	a5,0x1
    800008f4:	ada78793          	addi	a5,a5,-1318 # 800013ca <__sread>
    800008f8:	e03c                	sd	a5,64(s0)
    800008fa:	00001797          	auipc	a5,0x1
    800008fe:	b0678793          	addi	a5,a5,-1274 # 80001400 <__swrite>
    80000902:	e43c                	sd	a5,72(s0)
    80000904:	00001797          	auipc	a5,0x1
    80000908:	b4c78793          	addi	a5,a5,-1204 # 80001450 <__sseek>
    8000090c:	e83c                	sd	a5,80(s0)
    8000090e:	00001797          	auipc	a5,0x1
    80000912:	b7a78793          	addi	a5,a5,-1158 # 80001488 <__sclose>
    80000916:	60a2                	ld	ra,8(sp)
    80000918:	fc00                	sd	s0,56(s0)
    8000091a:	ec3c                	sd	a5,88(s0)
    8000091c:	6402                	ld	s0,0(sp)
    8000091e:	0141                	addi	sp,sp,16
    80000920:	8082                	ret

0000000080000922 <_cleanup_r>:
    80000922:	00001597          	auipc	a1,0x1
    80000926:	ee258593          	addi	a1,a1,-286 # 80001804 <_fflush_r>
    8000092a:	aaf5                	j	80000b26 <_fwalk_reent>

000000008000092c <__fp_unlock>:
    8000092c:	4501                	li	a0,0
    8000092e:	8082                	ret

0000000080000930 <__sfmoreglue>:
    80000930:	1101                	addi	sp,sp,-32
    80000932:	e426                	sd	s1,8(sp)
    80000934:	0b000613          	li	a2,176
    80000938:	fff5849b          	addiw	s1,a1,-1
    8000093c:	02c484b3          	mul	s1,s1,a2
    80000940:	e04a                	sd	s2,0(sp)
    80000942:	892e                	mv	s2,a1
    80000944:	e822                	sd	s0,16(sp)
    80000946:	ec06                	sd	ra,24(sp)
    80000948:	0c848593          	addi	a1,s1,200
    8000094c:	256000ef          	jal	ra,80000ba2 <_malloc_r>
    80000950:	842a                	mv	s0,a0
    80000952:	cd01                	beqz	a0,8000096a <__sfmoreglue+0x3a>
    80000954:	00053023          	sd	zero,0(a0)
    80000958:	01252423          	sw	s2,8(a0)
    8000095c:	0561                	addi	a0,a0,24
    8000095e:	e808                	sd	a0,16(s0)
    80000960:	0b048613          	addi	a2,s1,176
    80000964:	4581                	li	a1,0
    80000966:	22c000ef          	jal	ra,80000b92 <memset>
    8000096a:	60e2                	ld	ra,24(sp)
    8000096c:	8522                	mv	a0,s0
    8000096e:	6442                	ld	s0,16(sp)
    80000970:	64a2                	ld	s1,8(sp)
    80000972:	6902                	ld	s2,0(sp)
    80000974:	6105                	addi	sp,sp,32
    80000976:	8082                	ret

0000000080000978 <_cleanup>:
    80000978:	00002517          	auipc	a0,0x2
    8000097c:	c6053503          	ld	a0,-928(a0) # 800025d8 <_global_impure_ptr>
    80000980:	b74d                	j	80000922 <_cleanup_r>

0000000080000982 <__sinit>:
    80000982:	591c                	lw	a5,48(a0)
    80000984:	ebad                	bnez	a5,800009f6 <__sinit+0x74>
    80000986:	1141                	addi	sp,sp,-16
    80000988:	e022                	sd	s0,0(sp)
    8000098a:	e406                	sd	ra,8(sp)
    8000098c:	00000797          	auipc	a5,0x0
    80000990:	f9678793          	addi	a5,a5,-106 # 80000922 <_cleanup_r>
    80000994:	e53c                	sd	a5,72(a0)
    80000996:	08053023          	sd	zero,128(a0)
    8000099a:	08052423          	sw	zero,136(a0)
    8000099e:	08053823          	sd	zero,144(a0)
    800009a2:	00002797          	auipc	a5,0x2
    800009a6:	c367b783          	ld	a5,-970(a5) # 800025d8 <_global_impure_ptr>
    800009aa:	842a                	mv	s0,a0
    800009ac:	00f51463          	bne	a0,a5,800009b4 <__sinit+0x32>
    800009b0:	4785                	li	a5,1
    800009b2:	d91c                	sw	a5,48(a0)
    800009b4:	8522                	mv	a0,s0
    800009b6:	042000ef          	jal	ra,800009f8 <__sfp>
    800009ba:	e408                	sd	a0,8(s0)
    800009bc:	8522                	mv	a0,s0
    800009be:	03a000ef          	jal	ra,800009f8 <__sfp>
    800009c2:	e808                	sd	a0,16(s0)
    800009c4:	8522                	mv	a0,s0
    800009c6:	032000ef          	jal	ra,800009f8 <__sfp>
    800009ca:	ec08                	sd	a0,24(s0)
    800009cc:	6408                	ld	a0,8(s0)
    800009ce:	4601                	li	a2,0
    800009d0:	4591                	li	a1,4
    800009d2:	eebff0ef          	jal	ra,800008bc <std>
    800009d6:	6808                	ld	a0,16(s0)
    800009d8:	4605                	li	a2,1
    800009da:	45a5                	li	a1,9
    800009dc:	ee1ff0ef          	jal	ra,800008bc <std>
    800009e0:	6c08                	ld	a0,24(s0)
    800009e2:	4609                	li	a2,2
    800009e4:	45c9                	li	a1,18
    800009e6:	ed7ff0ef          	jal	ra,800008bc <std>
    800009ea:	4785                	li	a5,1
    800009ec:	60a2                	ld	ra,8(sp)
    800009ee:	d81c                	sw	a5,48(s0)
    800009f0:	6402                	ld	s0,0(sp)
    800009f2:	0141                	addi	sp,sp,16
    800009f4:	8082                	ret
    800009f6:	8082                	ret

00000000800009f8 <__sfp>:
    800009f8:	1101                	addi	sp,sp,-32
    800009fa:	e426                	sd	s1,8(sp)
    800009fc:	00002497          	auipc	s1,0x2
    80000a00:	bdc4b483          	ld	s1,-1060(s1) # 800025d8 <_global_impure_ptr>
    80000a04:	589c                	lw	a5,48(s1)
    80000a06:	e04a                	sd	s2,0(sp)
    80000a08:	ec06                	sd	ra,24(sp)
    80000a0a:	e822                	sd	s0,16(sp)
    80000a0c:	892a                	mv	s2,a0
    80000a0e:	e781                	bnez	a5,80000a16 <__sfp+0x1e>
    80000a10:	8526                	mv	a0,s1
    80000a12:	f71ff0ef          	jal	ra,80000982 <__sinit>
    80000a16:	08048493          	addi	s1,s1,128
    80000a1a:	6880                	ld	s0,16(s1)
    80000a1c:	449c                	lw	a5,8(s1)
    80000a1e:	37fd                	addiw	a5,a5,-1
    80000a20:	0007d663          	bgez	a5,80000a2c <__sfp+0x34>
    80000a24:	609c                	ld	a5,0(s1)
    80000a26:	cfa9                	beqz	a5,80000a80 <__sfp+0x88>
    80000a28:	6084                	ld	s1,0(s1)
    80000a2a:	bfc5                	j	80000a1a <__sfp+0x22>
    80000a2c:	01041703          	lh	a4,16(s0)
    80000a30:	e729                	bnez	a4,80000a7a <__sfp+0x82>
    80000a32:	77c1                	lui	a5,0xffff0
    80000a34:	0785                	addi	a5,a5,1
    80000a36:	0a042623          	sw	zero,172(s0)
    80000a3a:	00043023          	sd	zero,0(s0)
    80000a3e:	00043423          	sd	zero,8(s0)
    80000a42:	c81c                	sw	a5,16(s0)
    80000a44:	00043c23          	sd	zero,24(s0)
    80000a48:	02042023          	sw	zero,32(s0)
    80000a4c:	02042423          	sw	zero,40(s0)
    80000a50:	4621                	li	a2,8
    80000a52:	4581                	li	a1,0
    80000a54:	0a440513          	addi	a0,s0,164
    80000a58:	13a000ef          	jal	ra,80000b92 <memset>
    80000a5c:	06043023          	sd	zero,96(s0)
    80000a60:	06042423          	sw	zero,104(s0)
    80000a64:	08043023          	sd	zero,128(s0)
    80000a68:	08042423          	sw	zero,136(s0)
    80000a6c:	60e2                	ld	ra,24(sp)
    80000a6e:	8522                	mv	a0,s0
    80000a70:	6442                	ld	s0,16(sp)
    80000a72:	64a2                	ld	s1,8(sp)
    80000a74:	6902                	ld	s2,0(sp)
    80000a76:	6105                	addi	sp,sp,32
    80000a78:	8082                	ret
    80000a7a:	0b040413          	addi	s0,s0,176
    80000a7e:	b745                	j	80000a1e <__sfp+0x26>
    80000a80:	4591                	li	a1,4
    80000a82:	854a                	mv	a0,s2
    80000a84:	eadff0ef          	jal	ra,80000930 <__sfmoreglue>
    80000a88:	e088                	sd	a0,0(s1)
    80000a8a:	842a                	mv	s0,a0
    80000a8c:	fd51                	bnez	a0,80000a28 <__sfp+0x30>
    80000a8e:	47b1                	li	a5,12
    80000a90:	00f92023          	sw	a5,0(s2)
    80000a94:	bfe1                	j	80000a6c <__sfp+0x74>

0000000080000a96 <__sfp_lock_acquire>:
    80000a96:	8082                	ret

0000000080000a98 <__sfp_lock_release>:
    80000a98:	8082                	ret

0000000080000a9a <__sinit_lock_acquire>:
    80000a9a:	8082                	ret

0000000080000a9c <__sinit_lock_release>:
    80000a9c:	8082                	ret

0000000080000a9e <__fp_lock_all>:
    80000a9e:	00000597          	auipc	a1,0x0
    80000aa2:	e1a58593          	addi	a1,a1,-486 # 800008b8 <__fp_lock>
    80000aa6:	00002517          	auipc	a0,0x2
    80000aaa:	c5a53503          	ld	a0,-934(a0) # 80002700 <_impure_ptr>
    80000aae:	a811                	j	80000ac2 <_fwalk>

0000000080000ab0 <__fp_unlock_all>:
    80000ab0:	00000597          	auipc	a1,0x0
    80000ab4:	e7c58593          	addi	a1,a1,-388 # 8000092c <__fp_unlock>
    80000ab8:	00002517          	auipc	a0,0x2
    80000abc:	c4853503          	ld	a0,-952(a0) # 80002700 <_impure_ptr>
    80000ac0:	a009                	j	80000ac2 <_fwalk>

0000000080000ac2 <_fwalk>:
    80000ac2:	7139                	addi	sp,sp,-64
    80000ac4:	f822                	sd	s0,48(sp)
    80000ac6:	f426                	sd	s1,40(sp)
    80000ac8:	ec4e                	sd	s3,24(sp)
    80000aca:	e456                	sd	s5,8(sp)
    80000acc:	e05a                	sd	s6,0(sp)
    80000ace:	fc06                	sd	ra,56(sp)
    80000ad0:	f04a                	sd	s2,32(sp)
    80000ad2:	e852                	sd	s4,16(sp)
    80000ad4:	89ae                	mv	s3,a1
    80000ad6:	08050413          	addi	s0,a0,128
    80000ada:	4481                	li	s1,0
    80000adc:	4a85                	li	s5,1
    80000ade:	5b7d                	li	s6,-1
    80000ae0:	01043903          	ld	s2,16(s0)
    80000ae4:	00842a03          	lw	s4,8(s0)
    80000ae8:	3a7d                	addiw	s4,s4,-1
    80000aea:	000a5f63          	bgez	s4,80000b08 <_fwalk+0x46>
    80000aee:	6000                	ld	s0,0(s0)
    80000af0:	f865                	bnez	s0,80000ae0 <_fwalk+0x1e>
    80000af2:	70e2                	ld	ra,56(sp)
    80000af4:	7442                	ld	s0,48(sp)
    80000af6:	7902                	ld	s2,32(sp)
    80000af8:	69e2                	ld	s3,24(sp)
    80000afa:	6a42                	ld	s4,16(sp)
    80000afc:	6aa2                	ld	s5,8(sp)
    80000afe:	6b02                	ld	s6,0(sp)
    80000b00:	8526                	mv	a0,s1
    80000b02:	74a2                	ld	s1,40(sp)
    80000b04:	6121                	addi	sp,sp,64
    80000b06:	8082                	ret
    80000b08:	01095783          	lhu	a5,16(s2)
    80000b0c:	00fafa63          	bgeu	s5,a5,80000b20 <_fwalk+0x5e>
    80000b10:	01291783          	lh	a5,18(s2)
    80000b14:	01678663          	beq	a5,s6,80000b20 <_fwalk+0x5e>
    80000b18:	854a                	mv	a0,s2
    80000b1a:	9982                	jalr	s3
    80000b1c:	8cc9                	or	s1,s1,a0
    80000b1e:	2481                	sext.w	s1,s1
    80000b20:	0b090913          	addi	s2,s2,176
    80000b24:	b7d1                	j	80000ae8 <_fwalk+0x26>

0000000080000b26 <_fwalk_reent>:
    80000b26:	715d                	addi	sp,sp,-80
    80000b28:	e0a2                	sd	s0,64(sp)
    80000b2a:	fc26                	sd	s1,56(sp)
    80000b2c:	f44e                	sd	s3,40(sp)
    80000b2e:	f052                	sd	s4,32(sp)
    80000b30:	e85a                	sd	s6,16(sp)
    80000b32:	e45e                	sd	s7,8(sp)
    80000b34:	e486                	sd	ra,72(sp)
    80000b36:	f84a                	sd	s2,48(sp)
    80000b38:	ec56                	sd	s5,24(sp)
    80000b3a:	89aa                	mv	s3,a0
    80000b3c:	8a2e                	mv	s4,a1
    80000b3e:	08050493          	addi	s1,a0,128
    80000b42:	4401                	li	s0,0
    80000b44:	4b05                	li	s6,1
    80000b46:	5bfd                	li	s7,-1
    80000b48:	0104b903          	ld	s2,16(s1)
    80000b4c:	0084aa83          	lw	s5,8(s1)
    80000b50:	3afd                	addiw	s5,s5,-1
    80000b52:	020ad063          	bgez	s5,80000b72 <_fwalk_reent+0x4c>
    80000b56:	6084                	ld	s1,0(s1)
    80000b58:	f8e5                	bnez	s1,80000b48 <_fwalk_reent+0x22>
    80000b5a:	60a6                	ld	ra,72(sp)
    80000b5c:	8522                	mv	a0,s0
    80000b5e:	6406                	ld	s0,64(sp)
    80000b60:	74e2                	ld	s1,56(sp)
    80000b62:	7942                	ld	s2,48(sp)
    80000b64:	79a2                	ld	s3,40(sp)
    80000b66:	7a02                	ld	s4,32(sp)
    80000b68:	6ae2                	ld	s5,24(sp)
    80000b6a:	6b42                	ld	s6,16(sp)
    80000b6c:	6ba2                	ld	s7,8(sp)
    80000b6e:	6161                	addi	sp,sp,80
    80000b70:	8082                	ret
    80000b72:	01095783          	lhu	a5,16(s2)
    80000b76:	00fb7b63          	bgeu	s6,a5,80000b8c <_fwalk_reent+0x66>
    80000b7a:	01291783          	lh	a5,18(s2)
    80000b7e:	01778763          	beq	a5,s7,80000b8c <_fwalk_reent+0x66>
    80000b82:	85ca                	mv	a1,s2
    80000b84:	854e                	mv	a0,s3
    80000b86:	9a02                	jalr	s4
    80000b88:	8c49                	or	s0,s0,a0
    80000b8a:	2401                	sext.w	s0,s0
    80000b8c:	0b090913          	addi	s2,s2,176
    80000b90:	b7c1                	j	80000b50 <_fwalk_reent+0x2a>

0000000080000b92 <memset>:
    80000b92:	832a                	mv	t1,a0
    80000b94:	c611                	beqz	a2,80000ba0 <memset+0xe>
    80000b96:	00b30023          	sb	a1,0(t1)
    80000b9a:	167d                	addi	a2,a2,-1
    80000b9c:	0305                	addi	t1,t1,1
    80000b9e:	fe65                	bnez	a2,80000b96 <memset+0x4>
    80000ba0:	8082                	ret

0000000080000ba2 <_malloc_r>:
    80000ba2:	00758793          	addi	a5,a1,7
    80000ba6:	7179                	addi	sp,sp,-48
    80000ba8:	9be1                	andi	a5,a5,-8
    80000baa:	ec26                	sd	s1,24(sp)
    80000bac:	e84a                	sd	s2,16(sp)
    80000bae:	f406                	sd	ra,40(sp)
    80000bb0:	f022                	sd	s0,32(sp)
    80000bb2:	e44e                	sd	s3,8(sp)
    80000bb4:	07a1                	addi	a5,a5,8
    80000bb6:	4741                	li	a4,16
    80000bb8:	84aa                	mv	s1,a0
    80000bba:	4941                	li	s2,16
    80000bbc:	00e7e363          	bltu	a5,a4,80000bc2 <_malloc_r+0x20>
    80000bc0:	893e                	mv	s2,a5
    80000bc2:	80000737          	lui	a4,0x80000
    80000bc6:	fff74713          	not	a4,a4
    80000bca:	00f76463          	bltu	a4,a5,80000bd2 <_malloc_r+0x30>
    80000bce:	00b97c63          	bgeu	s2,a1,80000be6 <_malloc_r+0x44>
    80000bd2:	47b1                	li	a5,12
    80000bd4:	c09c                	sw	a5,0(s1)
    80000bd6:	4501                	li	a0,0
    80000bd8:	70a2                	ld	ra,40(sp)
    80000bda:	7402                	ld	s0,32(sp)
    80000bdc:	64e2                	ld	s1,24(sp)
    80000bde:	6942                	ld	s2,16(sp)
    80000be0:	69a2                	ld	s3,8(sp)
    80000be2:	6145                	addi	sp,sp,48
    80000be4:	8082                	ret
    80000be6:	8526                	mv	a0,s1
    80000be8:	110010ef          	jal	ra,80001cf8 <__malloc_lock>
    80000bec:	84018793          	addi	a5,gp,-1984 # 80002740 <__malloc_free_list>
    80000bf0:	6398                	ld	a4,0(a5)
    80000bf2:	86be                	mv	a3,a5
    80000bf4:	843a                	mv	s0,a4
    80000bf6:	e41d                	bnez	s0,80000c24 <_malloc_r+0x82>
    80000bf8:	84818413          	addi	s0,gp,-1976 # 80002748 <__malloc_sbrk_start>
    80000bfc:	601c                	ld	a5,0(s0)
    80000bfe:	e791                	bnez	a5,80000c0a <_malloc_r+0x68>
    80000c00:	4581                	li	a1,0
    80000c02:	8526                	mv	a0,s1
    80000c04:	79e000ef          	jal	ra,800013a2 <_sbrk_r>
    80000c08:	e008                	sd	a0,0(s0)
    80000c0a:	85ca                	mv	a1,s2
    80000c0c:	8526                	mv	a0,s1
    80000c0e:	794000ef          	jal	ra,800013a2 <_sbrk_r>
    80000c12:	59fd                	li	s3,-1
    80000c14:	05351e63          	bne	a0,s3,80000c70 <_malloc_r+0xce>
    80000c18:	47b1                	li	a5,12
    80000c1a:	c09c                	sw	a5,0(s1)
    80000c1c:	8526                	mv	a0,s1
    80000c1e:	0dc010ef          	jal	ra,80001cfa <__malloc_unlock>
    80000c22:	bf55                	j	80000bd6 <_malloc_r+0x34>
    80000c24:	601c                	ld	a5,0(s0)
    80000c26:	412787bb          	subw	a5,a5,s2
    80000c2a:	0407c063          	bltz	a5,80000c6a <_malloc_r+0xc8>
    80000c2e:	463d                	li	a2,15
    80000c30:	00f65763          	bge	a2,a5,80000c3e <_malloc_r+0x9c>
    80000c34:	e01c                	sd	a5,0(s0)
    80000c36:	943e                	add	s0,s0,a5
    80000c38:	01243023          	sd	s2,0(s0)
    80000c3c:	a029                	j	80000c46 <_malloc_r+0xa4>
    80000c3e:	641c                	ld	a5,8(s0)
    80000c40:	02871363          	bne	a4,s0,80000c66 <_malloc_r+0xc4>
    80000c44:	e29c                	sd	a5,0(a3)
    80000c46:	8526                	mv	a0,s1
    80000c48:	0b2010ef          	jal	ra,80001cfa <__malloc_unlock>
    80000c4c:	00f40513          	addi	a0,s0,15
    80000c50:	00840793          	addi	a5,s0,8
    80000c54:	9961                	andi	a0,a0,-8
    80000c56:	40f507bb          	subw	a5,a0,a5
    80000c5a:	dfbd                	beqz	a5,80000bd8 <_malloc_r+0x36>
    80000c5c:	943e                	add	s0,s0,a5
    80000c5e:	40f007bb          	negw	a5,a5
    80000c62:	e01c                	sd	a5,0(s0)
    80000c64:	bf95                	j	80000bd8 <_malloc_r+0x36>
    80000c66:	e71c                	sd	a5,8(a4)
    80000c68:	bff9                	j	80000c46 <_malloc_r+0xa4>
    80000c6a:	8722                	mv	a4,s0
    80000c6c:	6400                	ld	s0,8(s0)
    80000c6e:	b761                	j	80000bf6 <_malloc_r+0x54>
    80000c70:	00750413          	addi	s0,a0,7
    80000c74:	9861                	andi	s0,s0,-8
    80000c76:	fc8501e3          	beq	a0,s0,80000c38 <_malloc_r+0x96>
    80000c7a:	40a405b3          	sub	a1,s0,a0
    80000c7e:	8526                	mv	a0,s1
    80000c80:	722000ef          	jal	ra,800013a2 <_sbrk_r>
    80000c84:	fb351ae3          	bne	a0,s3,80000c38 <_malloc_r+0x96>
    80000c88:	bf41                	j	80000c18 <_malloc_r+0x76>

0000000080000c8a <__sfputc_r>:
    80000c8a:	465c                	lw	a5,12(a2)
    80000c8c:	37fd                	addiw	a5,a5,-1
    80000c8e:	c65c                	sw	a5,12(a2)
    80000c90:	02079693          	slli	a3,a5,0x20
    80000c94:	0007871b          	sext.w	a4,a5
    80000c98:	0006da63          	bgez	a3,80000cac <__sfputc_r+0x22>
    80000c9c:	561c                	lw	a5,40(a2)
    80000c9e:	00f74563          	blt	a4,a5,80000ca8 <__sfputc_r+0x1e>
    80000ca2:	47a9                	li	a5,10
    80000ca4:	00f59463          	bne	a1,a5,80000cac <__sfputc_r+0x22>
    80000ca8:	7e60006f          	j	8000148e <__swbuf_r>
    80000cac:	621c                	ld	a5,0(a2)
    80000cae:	852e                	mv	a0,a1
    80000cb0:	00178713          	addi	a4,a5,1 # ffffffffffff0001 <ali3_data.1515+0xffffffff7ff9fe01>
    80000cb4:	e218                	sd	a4,0(a2)
    80000cb6:	00b78023          	sb	a1,0(a5)
    80000cba:	8082                	ret

0000000080000cbc <__sfputs_r>:
    80000cbc:	7179                	addi	sp,sp,-48
    80000cbe:	f022                	sd	s0,32(sp)
    80000cc0:	ec26                	sd	s1,24(sp)
    80000cc2:	e84a                	sd	s2,16(sp)
    80000cc4:	e44e                	sd	s3,8(sp)
    80000cc6:	e052                	sd	s4,0(sp)
    80000cc8:	f406                	sd	ra,40(sp)
    80000cca:	892a                	mv	s2,a0
    80000ccc:	89ae                	mv	s3,a1
    80000cce:	8432                	mv	s0,a2
    80000cd0:	00d604b3          	add	s1,a2,a3
    80000cd4:	5a7d                	li	s4,-1
    80000cd6:	00941463          	bne	s0,s1,80000cde <__sfputs_r+0x22>
    80000cda:	4501                	li	a0,0
    80000cdc:	a811                	j	80000cf0 <__sfputs_r+0x34>
    80000cde:	00044583          	lbu	a1,0(s0)
    80000ce2:	864e                	mv	a2,s3
    80000ce4:	854a                	mv	a0,s2
    80000ce6:	fa5ff0ef          	jal	ra,80000c8a <__sfputc_r>
    80000cea:	0405                	addi	s0,s0,1
    80000cec:	ff4515e3          	bne	a0,s4,80000cd6 <__sfputs_r+0x1a>
    80000cf0:	70a2                	ld	ra,40(sp)
    80000cf2:	7402                	ld	s0,32(sp)
    80000cf4:	64e2                	ld	s1,24(sp)
    80000cf6:	6942                	ld	s2,16(sp)
    80000cf8:	69a2                	ld	s3,8(sp)
    80000cfa:	6a02                	ld	s4,0(sp)
    80000cfc:	6145                	addi	sp,sp,48
    80000cfe:	8082                	ret

0000000080000d00 <__sprint_r>:
    80000d00:	6a1c                	ld	a5,16(a2)
    80000d02:	1141                	addi	sp,sp,-16
    80000d04:	e022                	sd	s0,0(sp)
    80000d06:	e406                	sd	ra,8(sp)
    80000d08:	8432                	mv	s0,a2
    80000d0a:	eb81                	bnez	a5,80000d1a <__sprint_r+0x1a>
    80000d0c:	00062423          	sw	zero,8(a2) # 10040008 <__stack_size+0x10038008>
    80000d10:	4501                	li	a0,0
    80000d12:	60a2                	ld	ra,8(sp)
    80000d14:	6402                	ld	s0,0(sp)
    80000d16:	0141                	addi	sp,sp,16
    80000d18:	8082                	ret
    80000d1a:	373000ef          	jal	ra,8000188c <__sfvwrite_r>
    80000d1e:	00043823          	sd	zero,16(s0)
    80000d22:	00042423          	sw	zero,8(s0)
    80000d26:	b7f5                	j	80000d12 <__sprint_r+0x12>

0000000080000d28 <_vfiprintf_r>:
    80000d28:	7155                	addi	sp,sp,-208
    80000d2a:	e1a2                	sd	s0,192(sp)
    80000d2c:	fd26                	sd	s1,184(sp)
    80000d2e:	f94a                	sd	s2,176(sp)
    80000d30:	f54e                	sd	s3,168(sp)
    80000d32:	f152                	sd	s4,160(sp)
    80000d34:	e586                	sd	ra,200(sp)
    80000d36:	ed56                	sd	s5,152(sp)
    80000d38:	e95a                	sd	s6,144(sp)
    80000d3a:	e55e                	sd	s7,136(sp)
    80000d3c:	e162                	sd	s8,128(sp)
    80000d3e:	fce6                	sd	s9,120(sp)
    80000d40:	f8ea                	sd	s10,112(sp)
    80000d42:	89aa                	mv	s3,a0
    80000d44:	84ae                	mv	s1,a1
    80000d46:	8932                	mv	s2,a2
    80000d48:	8436                	mv	s0,a3
    80000d4a:	4a01                	li	s4,0
    80000d4c:	c509                	beqz	a0,80000d56 <_vfiprintf_r+0x2e>
    80000d4e:	591c                	lw	a5,48(a0)
    80000d50:	e399                	bnez	a5,80000d56 <_vfiprintf_r+0x2e>
    80000d52:	c31ff0ef          	jal	ra,80000982 <__sinit>
    80000d56:	00001797          	auipc	a5,0x1
    80000d5a:	75278793          	addi	a5,a5,1874 # 800024a8 <__sf_fake_stdin>
    80000d5e:	0cf49e63          	bne	s1,a5,80000e3a <_vfiprintf_r+0x112>
    80000d62:	0089b483          	ld	s1,8(s3)
    80000d66:	0104d783          	lhu	a5,16(s1)
    80000d6a:	8ba1                	andi	a5,a5,8
    80000d6c:	cbed                	beqz	a5,80000e5e <_vfiprintf_r+0x136>
    80000d6e:	6c9c                	ld	a5,24(s1)
    80000d70:	c7fd                	beqz	a5,80000e5e <_vfiprintf_r+0x136>
    80000d72:	02000793          	li	a5,32
    80000d76:	02f104a3          	sb	a5,41(sp)
    80000d7a:	5afd                	li	s5,-1
    80000d7c:	03000793          	li	a5,48
    80000d80:	d202                	sw	zero,36(sp)
    80000d82:	02f10523          	sb	a5,42(sp)
    80000d86:	e422                	sd	s0,8(sp)
    80000d88:	02500b93          	li	s7,37
    80000d8c:	020a9c13          	slli	s8,s5,0x20
    80000d90:	00001b17          	auipc	s6,0x1
    80000d94:	788b0b13          	addi	s6,s6,1928 # 80002518 <__sf_fake_stdout+0x38>
    80000d98:	4c85                	li	s9,1
    80000d9a:	844a                	mv	s0,s2
    80000d9c:	00044783          	lbu	a5,0(s0)
    80000da0:	c399                	beqz	a5,80000da6 <_vfiprintf_r+0x7e>
    80000da2:	0f779263          	bne	a5,s7,80000e86 <_vfiprintf_r+0x15e>
    80000da6:	41240d3b          	subw	s10,s0,s2
    80000daa:	000d0e63          	beqz	s10,80000dc6 <_vfiprintf_r+0x9e>
    80000dae:	86ea                	mv	a3,s10
    80000db0:	864a                	mv	a2,s2
    80000db2:	85a6                	mv	a1,s1
    80000db4:	854e                	mv	a0,s3
    80000db6:	f07ff0ef          	jal	ra,80000cbc <__sfputs_r>
    80000dba:	1f550d63          	beq	a0,s5,80000fb4 <_vfiprintf_r+0x28c>
    80000dbe:	5792                	lw	a5,36(sp)
    80000dc0:	01a787bb          	addw	a5,a5,s10
    80000dc4:	d23e                	sw	a5,36(sp)
    80000dc6:	00044783          	lbu	a5,0(s0)
    80000dca:	1e078563          	beqz	a5,80000fb4 <_vfiprintf_r+0x28c>
    80000dce:	00140913          	addi	s2,s0,1
    80000dd2:	e862                	sd	s8,16(sp)
    80000dd4:	ec02                	sd	zero,24(sp)
    80000dd6:	040109a3          	sb	zero,83(sp)
    80000dda:	d482                	sw	zero,104(sp)
    80000ddc:	00094583          	lbu	a1,0(s2)
    80000de0:	4615                	li	a2,5
    80000de2:	855a                	mv	a0,s6
    80000de4:	6bf000ef          	jal	ra,80001ca2 <memchr>
    80000de8:	00190413          	addi	s0,s2,1
    80000dec:	ed59                	bnez	a0,80000e8a <_vfiprintf_r+0x162>
    80000dee:	47c2                	lw	a5,16(sp)
    80000df0:	0107f713          	andi	a4,a5,16
    80000df4:	c709                	beqz	a4,80000dfe <_vfiprintf_r+0xd6>
    80000df6:	02000713          	li	a4,32
    80000dfa:	04e109a3          	sb	a4,83(sp)
    80000dfe:	0087f713          	andi	a4,a5,8
    80000e02:	c709                	beqz	a4,80000e0c <_vfiprintf_r+0xe4>
    80000e04:	02b00713          	li	a4,43
    80000e08:	04e109a3          	sb	a4,83(sp)
    80000e0c:	00094683          	lbu	a3,0(s2)
    80000e10:	02a00713          	li	a4,42
    80000e14:	08e68463          	beq	a3,a4,80000e9c <_vfiprintf_r+0x174>
    80000e18:	47f2                	lw	a5,28(sp)
    80000e1a:	844a                	mv	s0,s2
    80000e1c:	4681                	li	a3,0
    80000e1e:	4625                	li	a2,9
    80000e20:	4829                	li	a6,10
    80000e22:	00044703          	lbu	a4,0(s0)
    80000e26:	00140513          	addi	a0,s0,1
    80000e2a:	fd07059b          	addiw	a1,a4,-48
    80000e2e:	872e                	mv	a4,a1
    80000e30:	0ab67b63          	bgeu	a2,a1,80000ee6 <_vfiprintf_r+0x1be>
    80000e34:	cea5                	beqz	a3,80000eac <_vfiprintf_r+0x184>
    80000e36:	ce3e                	sw	a5,28(sp)
    80000e38:	a895                	j	80000eac <_vfiprintf_r+0x184>
    80000e3a:	00001797          	auipc	a5,0x1
    80000e3e:	6a678793          	addi	a5,a5,1702 # 800024e0 <__sf_fake_stdout>
    80000e42:	00f49563          	bne	s1,a5,80000e4c <_vfiprintf_r+0x124>
    80000e46:	0109b483          	ld	s1,16(s3)
    80000e4a:	bf31                	j	80000d66 <_vfiprintf_r+0x3e>
    80000e4c:	00001797          	auipc	a5,0x1
    80000e50:	62478793          	addi	a5,a5,1572 # 80002470 <__sf_fake_stderr>
    80000e54:	f0f499e3          	bne	s1,a5,80000d66 <_vfiprintf_r+0x3e>
    80000e58:	0189b483          	ld	s1,24(s3)
    80000e5c:	b729                	j	80000d66 <_vfiprintf_r+0x3e>
    80000e5e:	85a6                	mv	a1,s1
    80000e60:	854e                	mv	a0,s3
    80000e62:	72c000ef          	jal	ra,8000158e <__swsetup_r>
    80000e66:	d511                	beqz	a0,80000d72 <_vfiprintf_r+0x4a>
    80000e68:	557d                	li	a0,-1
    80000e6a:	60ae                	ld	ra,200(sp)
    80000e6c:	640e                	ld	s0,192(sp)
    80000e6e:	74ea                	ld	s1,184(sp)
    80000e70:	794a                	ld	s2,176(sp)
    80000e72:	79aa                	ld	s3,168(sp)
    80000e74:	7a0a                	ld	s4,160(sp)
    80000e76:	6aea                	ld	s5,152(sp)
    80000e78:	6b4a                	ld	s6,144(sp)
    80000e7a:	6baa                	ld	s7,136(sp)
    80000e7c:	6c0a                	ld	s8,128(sp)
    80000e7e:	7ce6                	ld	s9,120(sp)
    80000e80:	7d46                	ld	s10,112(sp)
    80000e82:	6169                	addi	sp,sp,208
    80000e84:	8082                	ret
    80000e86:	0405                	addi	s0,s0,1
    80000e88:	bf11                	j	80000d9c <_vfiprintf_r+0x74>
    80000e8a:	47c2                	lw	a5,16(sp)
    80000e8c:	41650533          	sub	a0,a0,s6
    80000e90:	00ac953b          	sllw	a0,s9,a0
    80000e94:	8d5d                	or	a0,a0,a5
    80000e96:	c82a                	sw	a0,16(sp)
    80000e98:	8922                	mv	s2,s0
    80000e9a:	b789                	j	80000ddc <_vfiprintf_r+0xb4>
    80000e9c:	6722                	ld	a4,8(sp)
    80000e9e:	00870693          	addi	a3,a4,8 # ffffffff80000008 <ali3_data.1515+0xfffffffefffafe08>
    80000ea2:	4318                	lw	a4,0(a4)
    80000ea4:	e436                	sd	a3,8(sp)
    80000ea6:	02074963          	bltz	a4,80000ed8 <_vfiprintf_r+0x1b0>
    80000eaa:	ce3a                	sw	a4,28(sp)
    80000eac:	00044703          	lbu	a4,0(s0)
    80000eb0:	02e00793          	li	a5,46
    80000eb4:	04f71063          	bne	a4,a5,80000ef4 <_vfiprintf_r+0x1cc>
    80000eb8:	00144703          	lbu	a4,1(s0)
    80000ebc:	02a00793          	li	a5,42
    80000ec0:	0af71263          	bne	a4,a5,80000f64 <_vfiprintf_r+0x23c>
    80000ec4:	67a2                	ld	a5,8(sp)
    80000ec6:	0409                	addi	s0,s0,2
    80000ec8:	00878713          	addi	a4,a5,8
    80000ecc:	439c                	lw	a5,0(a5)
    80000ece:	e43a                	sd	a4,8(sp)
    80000ed0:	0207c163          	bltz	a5,80000ef2 <_vfiprintf_r+0x1ca>
    80000ed4:	ca3e                	sw	a5,20(sp)
    80000ed6:	a839                	j	80000ef4 <_vfiprintf_r+0x1cc>
    80000ed8:	40e0073b          	negw	a4,a4
    80000edc:	0027e793          	ori	a5,a5,2
    80000ee0:	ce3a                	sw	a4,28(sp)
    80000ee2:	c83e                	sw	a5,16(sp)
    80000ee4:	b7e1                	j	80000eac <_vfiprintf_r+0x184>
    80000ee6:	02f807bb          	mulw	a5,a6,a5
    80000eea:	842a                	mv	s0,a0
    80000eec:	4685                	li	a3,1
    80000eee:	9fb9                	addw	a5,a5,a4
    80000ef0:	bf0d                	j	80000e22 <_vfiprintf_r+0xfa>
    80000ef2:	ca56                	sw	s5,20(sp)
    80000ef4:	00044583          	lbu	a1,0(s0)
    80000ef8:	460d                	li	a2,3
    80000efa:	00001517          	auipc	a0,0x1
    80000efe:	62650513          	addi	a0,a0,1574 # 80002520 <__sf_fake_stdout+0x40>
    80000f02:	5a1000ef          	jal	ra,80001ca2 <memchr>
    80000f06:	cd11                	beqz	a0,80000f22 <_vfiprintf_r+0x1fa>
    80000f08:	00001797          	auipc	a5,0x1
    80000f0c:	61878793          	addi	a5,a5,1560 # 80002520 <__sf_fake_stdout+0x40>
    80000f10:	8d1d                	sub	a0,a0,a5
    80000f12:	04000793          	li	a5,64
    80000f16:	00a7953b          	sllw	a0,a5,a0
    80000f1a:	47c2                	lw	a5,16(sp)
    80000f1c:	0405                	addi	s0,s0,1
    80000f1e:	8d5d                	or	a0,a0,a5
    80000f20:	c82a                	sw	a0,16(sp)
    80000f22:	00044583          	lbu	a1,0(s0)
    80000f26:	4619                	li	a2,6
    80000f28:	00001517          	auipc	a0,0x1
    80000f2c:	60050513          	addi	a0,a0,1536 # 80002528 <__sf_fake_stdout+0x48>
    80000f30:	00140913          	addi	s2,s0,1
    80000f34:	02b10423          	sb	a1,40(sp)
    80000f38:	56b000ef          	jal	ra,80001ca2 <memchr>
    80000f3c:	c541                	beqz	a0,80000fc4 <_vfiprintf_r+0x29c>
    80000f3e:	000007b7          	lui	a5,0x0
    80000f42:	00078793          	mv	a5,a5
    80000f46:	eba1                	bnez	a5,80000f96 <_vfiprintf_r+0x26e>
    80000f48:	4742                	lw	a4,16(sp)
    80000f4a:	67a2                	ld	a5,8(sp)
    80000f4c:	10077713          	andi	a4,a4,256
    80000f50:	c329                	beqz	a4,80000f92 <_vfiprintf_r+0x26a>
    80000f52:	07bd                	addi	a5,a5,15
    80000f54:	9bc1                	andi	a5,a5,-16
    80000f56:	07c1                	addi	a5,a5,16
    80000f58:	e43e                	sd	a5,8(sp)
    80000f5a:	5792                	lw	a5,36(sp)
    80000f5c:	014787bb          	addw	a5,a5,s4
    80000f60:	d23e                	sw	a5,36(sp)
    80000f62:	bd25                	j	80000d9a <_vfiprintf_r+0x72>
    80000f64:	0405                	addi	s0,s0,1
    80000f66:	ca02                	sw	zero,20(sp)
    80000f68:	4681                	li	a3,0
    80000f6a:	4781                	li	a5,0
    80000f6c:	4625                	li	a2,9
    80000f6e:	4829                	li	a6,10
    80000f70:	00044703          	lbu	a4,0(s0)
    80000f74:	00140513          	addi	a0,s0,1
    80000f78:	fd07059b          	addiw	a1,a4,-48
    80000f7c:	872e                	mv	a4,a1
    80000f7e:	00b67463          	bgeu	a2,a1,80000f86 <_vfiprintf_r+0x25e>
    80000f82:	faa9                	bnez	a3,80000ed4 <_vfiprintf_r+0x1ac>
    80000f84:	bf85                	j	80000ef4 <_vfiprintf_r+0x1cc>
    80000f86:	02f807bb          	mulw	a5,a6,a5
    80000f8a:	842a                	mv	s0,a0
    80000f8c:	4685                	li	a3,1
    80000f8e:	9fb9                	addw	a5,a5,a4
    80000f90:	b7c5                	j	80000f70 <_vfiprintf_r+0x248>
    80000f92:	07a1                	addi	a5,a5,8
    80000f94:	b7d1                	j	80000f58 <_vfiprintf_r+0x230>
    80000f96:	0038                	addi	a4,sp,8
    80000f98:	00000697          	auipc	a3,0x0
    80000f9c:	d2468693          	addi	a3,a3,-732 # 80000cbc <__sfputs_r>
    80000fa0:	8626                	mv	a2,s1
    80000fa2:	080c                	addi	a1,sp,16
    80000fa4:	854e                	mv	a0,s3
    80000fa6:	00000097          	auipc	ra,0x0
    80000faa:	000000e7          	jalr	zero # 0 <__boot_hart>
    80000fae:	8a2a                	mv	s4,a0
    80000fb0:	fb5515e3          	bne	a0,s5,80000f5a <_vfiprintf_r+0x232>
    80000fb4:	0104d783          	lhu	a5,16(s1)
    80000fb8:	0407f793          	andi	a5,a5,64
    80000fbc:	ea0796e3          	bnez	a5,80000e68 <_vfiprintf_r+0x140>
    80000fc0:	5512                	lw	a0,36(sp)
    80000fc2:	b565                	j	80000e6a <_vfiprintf_r+0x142>
    80000fc4:	0038                	addi	a4,sp,8
    80000fc6:	00000697          	auipc	a3,0x0
    80000fca:	cf668693          	addi	a3,a3,-778 # 80000cbc <__sfputs_r>
    80000fce:	8626                	mv	a2,s1
    80000fd0:	080c                	addi	a1,sp,16
    80000fd2:	854e                	mv	a0,s3
    80000fd4:	13c000ef          	jal	ra,80001110 <_printf_i>
    80000fd8:	bfd9                	j	80000fae <_vfiprintf_r+0x286>

0000000080000fda <vfiprintf>:
    80000fda:	86b2                	mv	a3,a2
    80000fdc:	862e                	mv	a2,a1
    80000fde:	85aa                	mv	a1,a0
    80000fe0:	00001517          	auipc	a0,0x1
    80000fe4:	72053503          	ld	a0,1824(a0) # 80002700 <_impure_ptr>
    80000fe8:	b381                	j	80000d28 <_vfiprintf_r>

0000000080000fea <_printf_common>:
    80000fea:	715d                	addi	sp,sp,-80
    80000fec:	499c                	lw	a5,16(a1)
    80000fee:	f052                	sd	s4,32(sp)
    80000ff0:	8a3a                	mv	s4,a4
    80000ff2:	4598                	lw	a4,8(a1)
    80000ff4:	e0a2                	sd	s0,64(sp)
    80000ff6:	f84a                	sd	s2,48(sp)
    80000ff8:	f44e                	sd	s3,40(sp)
    80000ffa:	ec56                	sd	s5,24(sp)
    80000ffc:	8932                	mv	s2,a2
    80000ffe:	8ab6                	mv	s5,a3
    80001000:	e486                	sd	ra,72(sp)
    80001002:	fc26                	sd	s1,56(sp)
    80001004:	e85a                	sd	s6,16(sp)
    80001006:	e45e                	sd	s7,8(sp)
    80001008:	0007861b          	sext.w	a2,a5
    8000100c:	0007069b          	sext.w	a3,a4
    80001010:	89aa                	mv	s3,a0
    80001012:	842e                	mv	s0,a1
    80001014:	00d65363          	bge	a2,a3,8000101a <_printf_common+0x30>
    80001018:	87ba                	mv	a5,a4
    8000101a:	00f92023          	sw	a5,0(s2)
    8000101e:	04344703          	lbu	a4,67(s0)
    80001022:	c701                	beqz	a4,8000102a <_printf_common+0x40>
    80001024:	2785                	addiw	a5,a5,1
    80001026:	00f92023          	sw	a5,0(s2)
    8000102a:	401c                	lw	a5,0(s0)
    8000102c:	0207f793          	andi	a5,a5,32
    80001030:	c791                	beqz	a5,8000103c <_printf_common+0x52>
    80001032:	00092783          	lw	a5,0(s2)
    80001036:	2789                	addiw	a5,a5,2
    80001038:	00f92023          	sw	a5,0(s2)
    8000103c:	4004                	lw	s1,0(s0)
    8000103e:	8899                	andi	s1,s1,6
    80001040:	e891                	bnez	s1,80001054 <_printf_common+0x6a>
    80001042:	01940b13          	addi	s6,s0,25
    80001046:	5bfd                	li	s7,-1
    80001048:	445c                	lw	a5,12(s0)
    8000104a:	00092703          	lw	a4,0(s2)
    8000104e:	9f99                	subw	a5,a5,a4
    80001050:	06f4c163          	blt	s1,a5,800010b2 <_printf_common+0xc8>
    80001054:	04344783          	lbu	a5,67(s0)
    80001058:	00f03733          	snez	a4,a5
    8000105c:	00f036b3          	snez	a3,a5
    80001060:	401c                	lw	a5,0(s0)
    80001062:	0207f793          	andi	a5,a5,32
    80001066:	ebbd                	bnez	a5,800010dc <_printf_common+0xf2>
    80001068:	04340613          	addi	a2,s0,67
    8000106c:	85d6                	mv	a1,s5
    8000106e:	854e                	mv	a0,s3
    80001070:	9a02                	jalr	s4
    80001072:	57fd                	li	a5,-1
    80001074:	04f50663          	beq	a0,a5,800010c0 <_printf_common+0xd6>
    80001078:	401c                	lw	a5,0(s0)
    8000107a:	4611                	li	a2,4
    8000107c:	4454                	lw	a3,12(s0)
    8000107e:	8b99                	andi	a5,a5,6
    80001080:	00092703          	lw	a4,0(s2)
    80001084:	4481                	li	s1,0
    80001086:	00c79963          	bne	a5,a2,80001098 <_printf_common+0xae>
    8000108a:	40e684bb          	subw	s1,a3,a4
    8000108e:	02049793          	slli	a5,s1,0x20
    80001092:	0007d363          	bgez	a5,80001098 <_printf_common+0xae>
    80001096:	4481                	li	s1,0
    80001098:	441c                	lw	a5,8(s0)
    8000109a:	4818                	lw	a4,16(s0)
    8000109c:	00f75463          	bge	a4,a5,800010a4 <_printf_common+0xba>
    800010a0:	9f99                	subw	a5,a5,a4
    800010a2:	9cbd                	addw	s1,s1,a5
    800010a4:	4901                	li	s2,0
    800010a6:	0469                	addi	s0,s0,26
    800010a8:	5b7d                	li	s6,-1
    800010aa:	05249a63          	bne	s1,s2,800010fe <_printf_common+0x114>
    800010ae:	4501                	li	a0,0
    800010b0:	a809                	j	800010c2 <_printf_common+0xd8>
    800010b2:	4685                	li	a3,1
    800010b4:	865a                	mv	a2,s6
    800010b6:	85d6                	mv	a1,s5
    800010b8:	854e                	mv	a0,s3
    800010ba:	9a02                	jalr	s4
    800010bc:	01751e63          	bne	a0,s7,800010d8 <_printf_common+0xee>
    800010c0:	557d                	li	a0,-1
    800010c2:	60a6                	ld	ra,72(sp)
    800010c4:	6406                	ld	s0,64(sp)
    800010c6:	74e2                	ld	s1,56(sp)
    800010c8:	7942                	ld	s2,48(sp)
    800010ca:	79a2                	ld	s3,40(sp)
    800010cc:	7a02                	ld	s4,32(sp)
    800010ce:	6ae2                	ld	s5,24(sp)
    800010d0:	6b42                	ld	s6,16(sp)
    800010d2:	6ba2                	ld	s7,8(sp)
    800010d4:	6161                	addi	sp,sp,80
    800010d6:	8082                	ret
    800010d8:	2485                	addiw	s1,s1,1
    800010da:	b7bd                	j	80001048 <_printf_common+0x5e>
    800010dc:	00d407b3          	add	a5,s0,a3
    800010e0:	03000693          	li	a3,48
    800010e4:	04d781a3          	sb	a3,67(a5) # 43 <__stack_align+0x33>
    800010e8:	0017061b          	addiw	a2,a4,1
    800010ec:	0027069b          	addiw	a3,a4,2
    800010f0:	04544703          	lbu	a4,69(s0)
    800010f4:	00c407b3          	add	a5,s0,a2
    800010f8:	04e781a3          	sb	a4,67(a5)
    800010fc:	b7b5                	j	80001068 <_printf_common+0x7e>
    800010fe:	4685                	li	a3,1
    80001100:	8622                	mv	a2,s0
    80001102:	85d6                	mv	a1,s5
    80001104:	854e                	mv	a0,s3
    80001106:	9a02                	jalr	s4
    80001108:	fb650ce3          	beq	a0,s6,800010c0 <_printf_common+0xd6>
    8000110c:	2905                	addiw	s2,s2,1
    8000110e:	bf71                	j	800010aa <_printf_common+0xc0>

0000000080001110 <_printf_i>:
    80001110:	715d                	addi	sp,sp,-80
    80001112:	e0a2                	sd	s0,64(sp)
    80001114:	f84a                	sd	s2,48(sp)
    80001116:	f44e                	sd	s3,40(sp)
    80001118:	f052                	sd	s4,32(sp)
    8000111a:	e486                	sd	ra,72(sp)
    8000111c:	fc26                	sd	s1,56(sp)
    8000111e:	ec56                	sd	s5,24(sp)
    80001120:	e85a                	sd	s6,16(sp)
    80001122:	842e                	mv	s0,a1
    80001124:	8a36                	mv	s4,a3
    80001126:	04358693          	addi	a3,a1,67
    8000112a:	0185c583          	lbu	a1,24(a1)
    8000112e:	07800793          	li	a5,120
    80001132:	892a                	mv	s2,a0
    80001134:	89b2                	mv	s3,a2
    80001136:	00b7ec63          	bltu	a5,a1,8000114e <_printf_i+0x3e>
    8000113a:	06200793          	li	a5,98
    8000113e:	00b7ed63          	bltu	a5,a1,80001158 <_printf_i+0x48>
    80001142:	1c058863          	beqz	a1,80001312 <_printf_i+0x202>
    80001146:	05800793          	li	a5,88
    8000114a:	14f58063          	beq	a1,a5,8000128a <_printf_i+0x17a>
    8000114e:	04240493          	addi	s1,s0,66
    80001152:	04b40123          	sb	a1,66(s0)
    80001156:	a815                	j	8000118a <_printf_i+0x7a>
    80001158:	f9d5879b          	addiw	a5,a1,-99
    8000115c:	0ff7f793          	andi	a5,a5,255
    80001160:	4655                	li	a2,21
    80001162:	fef666e3          	bltu	a2,a5,8000114e <_printf_i+0x3e>
    80001166:	00001617          	auipc	a2,0x1
    8000116a:	3fa60613          	addi	a2,a2,1018 # 80002560 <__sf_fake_stdout+0x80>
    8000116e:	078a                	slli	a5,a5,0x2
    80001170:	97b2                	add	a5,a5,a2
    80001172:	439c                	lw	a5,0(a5)
    80001174:	97b2                	add	a5,a5,a2
    80001176:	8782                	jr	a5
    80001178:	631c                	ld	a5,0(a4)
    8000117a:	04240493          	addi	s1,s0,66
    8000117e:	00878693          	addi	a3,a5,8
    80001182:	439c                	lw	a5,0(a5)
    80001184:	e314                	sd	a3,0(a4)
    80001186:	04f40123          	sb	a5,66(s0)
    8000118a:	4785                	li	a5,1
    8000118c:	aa7d                	j	8000134a <_printf_i+0x23a>
    8000118e:	4010                	lw	a2,0(s0)
    80001190:	631c                	ld	a5,0(a4)
    80001192:	08067513          	andi	a0,a2,128
    80001196:	00878593          	addi	a1,a5,8
    8000119a:	c10d                	beqz	a0,800011bc <_printf_i+0xac>
    8000119c:	639c                	ld	a5,0(a5)
    8000119e:	e30c                	sd	a1,0(a4)
    800011a0:	0007d863          	bgez	a5,800011b0 <_printf_i+0xa0>
    800011a4:	02d00713          	li	a4,45
    800011a8:	40f007b3          	neg	a5,a5
    800011ac:	04e401a3          	sb	a4,67(s0)
    800011b0:	00001617          	auipc	a2,0x1
    800011b4:	38060613          	addi	a2,a2,896 # 80002530 <__sf_fake_stdout+0x50>
    800011b8:	4729                	li	a4,10
    800011ba:	a83d                	j	800011f8 <_printf_i+0xe8>
    800011bc:	04067613          	andi	a2,a2,64
    800011c0:	e30c                	sd	a1,0(a4)
    800011c2:	c601                	beqz	a2,800011ca <_printf_i+0xba>
    800011c4:	00079783          	lh	a5,0(a5)
    800011c8:	bfe1                	j	800011a0 <_printf_i+0x90>
    800011ca:	439c                	lw	a5,0(a5)
    800011cc:	bfd1                	j	800011a0 <_printf_i+0x90>
    800011ce:	4010                	lw	a2,0(s0)
    800011d0:	631c                	ld	a5,0(a4)
    800011d2:	08067813          	andi	a6,a2,128
    800011d6:	00878513          	addi	a0,a5,8
    800011da:	08080d63          	beqz	a6,80001274 <_printf_i+0x164>
    800011de:	639c                	ld	a5,0(a5)
    800011e0:	e308                	sd	a0,0(a4)
    800011e2:	06f00713          	li	a4,111
    800011e6:	00001617          	auipc	a2,0x1
    800011ea:	34a60613          	addi	a2,a2,842 # 80002530 <__sf_fake_stdout+0x50>
    800011ee:	10e58463          	beq	a1,a4,800012f6 <_printf_i+0x1e6>
    800011f2:	4729                	li	a4,10
    800011f4:	040401a3          	sb	zero,67(s0)
    800011f8:	404c                	lw	a1,4(s0)
    800011fa:	c40c                	sw	a1,8(s0)
    800011fc:	0005c563          	bltz	a1,80001206 <_printf_i+0xf6>
    80001200:	4008                	lw	a0,0(s0)
    80001202:	996d                	andi	a0,a0,-5
    80001204:	c008                	sw	a0,0(s0)
    80001206:	e399                	bnez	a5,8000120c <_printf_i+0xfc>
    80001208:	84b6                	mv	s1,a3
    8000120a:	cd99                	beqz	a1,80001228 <_printf_i+0x118>
    8000120c:	84b6                	mv	s1,a3
    8000120e:	02e7f5b3          	remu	a1,a5,a4
    80001212:	14fd                	addi	s1,s1,-1
    80001214:	95b2                	add	a1,a1,a2
    80001216:	0005c583          	lbu	a1,0(a1)
    8000121a:	00b48023          	sb	a1,0(s1)
    8000121e:	85be                	mv	a1,a5
    80001220:	02e7d7b3          	divu	a5,a5,a4
    80001224:	fee5f5e3          	bgeu	a1,a4,8000120e <_printf_i+0xfe>
    80001228:	47a1                	li	a5,8
    8000122a:	00f71e63          	bne	a4,a5,80001246 <_printf_i+0x136>
    8000122e:	401c                	lw	a5,0(s0)
    80001230:	8b85                	andi	a5,a5,1
    80001232:	cb91                	beqz	a5,80001246 <_printf_i+0x136>
    80001234:	4058                	lw	a4,4(s0)
    80001236:	481c                	lw	a5,16(s0)
    80001238:	00e7c763          	blt	a5,a4,80001246 <_printf_i+0x136>
    8000123c:	03000793          	li	a5,48
    80001240:	fef48fa3          	sb	a5,-1(s1)
    80001244:	14fd                	addi	s1,s1,-1
    80001246:	8e85                	sub	a3,a3,s1
    80001248:	c814                	sw	a3,16(s0)
    8000124a:	8752                	mv	a4,s4
    8000124c:	86ce                	mv	a3,s3
    8000124e:	0070                	addi	a2,sp,12
    80001250:	85a2                	mv	a1,s0
    80001252:	854a                	mv	a0,s2
    80001254:	d97ff0ef          	jal	ra,80000fea <_printf_common>
    80001258:	5afd                	li	s5,-1
    8000125a:	0f551c63          	bne	a0,s5,80001352 <_printf_i+0x242>
    8000125e:	557d                	li	a0,-1
    80001260:	60a6                	ld	ra,72(sp)
    80001262:	6406                	ld	s0,64(sp)
    80001264:	74e2                	ld	s1,56(sp)
    80001266:	7942                	ld	s2,48(sp)
    80001268:	79a2                	ld	s3,40(sp)
    8000126a:	7a02                	ld	s4,32(sp)
    8000126c:	6ae2                	ld	s5,24(sp)
    8000126e:	6b42                	ld	s6,16(sp)
    80001270:	6161                	addi	sp,sp,80
    80001272:	8082                	ret
    80001274:	439c                	lw	a5,0(a5)
    80001276:	04067613          	andi	a2,a2,64
    8000127a:	e308                	sd	a0,0(a4)
    8000127c:	c601                	beqz	a2,80001284 <_printf_i+0x174>
    8000127e:	17c2                	slli	a5,a5,0x30
    80001280:	93c1                	srli	a5,a5,0x30
    80001282:	b785                	j	800011e2 <_printf_i+0xd2>
    80001284:	1782                	slli	a5,a5,0x20
    80001286:	9381                	srli	a5,a5,0x20
    80001288:	bfa9                	j	800011e2 <_printf_i+0xd2>
    8000128a:	04b402a3          	sb	a1,69(s0)
    8000128e:	00001617          	auipc	a2,0x1
    80001292:	2a260613          	addi	a2,a2,674 # 80002530 <__sf_fake_stdout+0x50>
    80001296:	400c                	lw	a1,0(s0)
    80001298:	631c                	ld	a5,0(a4)
    8000129a:	0805f813          	andi	a6,a1,128
    8000129e:	00878513          	addi	a0,a5,8
    800012a2:	02080e63          	beqz	a6,800012de <_printf_i+0x1ce>
    800012a6:	639c                	ld	a5,0(a5)
    800012a8:	e308                	sd	a0,0(a4)
    800012aa:	0015f713          	andi	a4,a1,1
    800012ae:	c701                	beqz	a4,800012b6 <_printf_i+0x1a6>
    800012b0:	0205e593          	ori	a1,a1,32
    800012b4:	c00c                	sw	a1,0(s0)
    800012b6:	4741                	li	a4,16
    800012b8:	ff95                	bnez	a5,800011f4 <_printf_i+0xe4>
    800012ba:	400c                	lw	a1,0(s0)
    800012bc:	fdf5f593          	andi	a1,a1,-33
    800012c0:	c00c                	sw	a1,0(s0)
    800012c2:	bf0d                	j	800011f4 <_printf_i+0xe4>
    800012c4:	401c                	lw	a5,0(s0)
    800012c6:	0a07e793          	ori	a5,a5,160
    800012ca:	c01c                	sw	a5,0(s0)
    800012cc:	07800793          	li	a5,120
    800012d0:	04f402a3          	sb	a5,69(s0)
    800012d4:	00001617          	auipc	a2,0x1
    800012d8:	27460613          	addi	a2,a2,628 # 80002548 <__sf_fake_stdout+0x68>
    800012dc:	bf6d                	j	80001296 <_printf_i+0x186>
    800012de:	439c                	lw	a5,0(a5)
    800012e0:	0405f813          	andi	a6,a1,64
    800012e4:	e308                	sd	a0,0(a4)
    800012e6:	00080563          	beqz	a6,800012f0 <_printf_i+0x1e0>
    800012ea:	17c2                	slli	a5,a5,0x30
    800012ec:	93c1                	srli	a5,a5,0x30
    800012ee:	bf75                	j	800012aa <_printf_i+0x19a>
    800012f0:	1782                	slli	a5,a5,0x20
    800012f2:	9381                	srli	a5,a5,0x20
    800012f4:	bf5d                	j	800012aa <_printf_i+0x19a>
    800012f6:	4721                	li	a4,8
    800012f8:	bdf5                	j	800011f4 <_printf_i+0xe4>
    800012fa:	4010                	lw	a2,0(s0)
    800012fc:	631c                	ld	a5,0(a4)
    800012fe:	484c                	lw	a1,20(s0)
    80001300:	08067813          	andi	a6,a2,128
    80001304:	00878513          	addi	a0,a5,8
    80001308:	00080963          	beqz	a6,8000131a <_printf_i+0x20a>
    8000130c:	e308                	sd	a0,0(a4)
    8000130e:	639c                	ld	a5,0(a5)
    80001310:	e38c                	sd	a1,0(a5)
    80001312:	00042823          	sw	zero,16(s0)
    80001316:	84b6                	mv	s1,a3
    80001318:	bf0d                	j	8000124a <_printf_i+0x13a>
    8000131a:	e308                	sd	a0,0(a4)
    8000131c:	04067613          	andi	a2,a2,64
    80001320:	639c                	ld	a5,0(a5)
    80001322:	c601                	beqz	a2,8000132a <_printf_i+0x21a>
    80001324:	00b79023          	sh	a1,0(a5)
    80001328:	b7ed                	j	80001312 <_printf_i+0x202>
    8000132a:	c38c                	sw	a1,0(a5)
    8000132c:	b7dd                	j	80001312 <_printf_i+0x202>
    8000132e:	631c                	ld	a5,0(a4)
    80001330:	4050                	lw	a2,4(s0)
    80001332:	4581                	li	a1,0
    80001334:	00878693          	addi	a3,a5,8
    80001338:	e314                	sd	a3,0(a4)
    8000133a:	6384                	ld	s1,0(a5)
    8000133c:	8526                	mv	a0,s1
    8000133e:	165000ef          	jal	ra,80001ca2 <memchr>
    80001342:	c119                	beqz	a0,80001348 <_printf_i+0x238>
    80001344:	8d05                	sub	a0,a0,s1
    80001346:	c048                	sw	a0,4(s0)
    80001348:	405c                	lw	a5,4(s0)
    8000134a:	c81c                	sw	a5,16(s0)
    8000134c:	040401a3          	sb	zero,67(s0)
    80001350:	bded                	j	8000124a <_printf_i+0x13a>
    80001352:	4814                	lw	a3,16(s0)
    80001354:	8626                	mv	a2,s1
    80001356:	85ce                	mv	a1,s3
    80001358:	854a                	mv	a0,s2
    8000135a:	9a02                	jalr	s4
    8000135c:	f15501e3          	beq	a0,s5,8000125e <_printf_i+0x14e>
    80001360:	401c                	lw	a5,0(s0)
    80001362:	8b89                	andi	a5,a5,2
    80001364:	eb95                	bnez	a5,80001398 <_printf_i+0x288>
    80001366:	47b2                	lw	a5,12(sp)
    80001368:	4448                	lw	a0,12(s0)
    8000136a:	0007871b          	sext.w	a4,a5
    8000136e:	0005069b          	sext.w	a3,a0
    80001372:	00e6d363          	bge	a3,a4,80001378 <_printf_i+0x268>
    80001376:	853e                	mv	a0,a5
    80001378:	2501                	sext.w	a0,a0
    8000137a:	b5dd                	j	80001260 <_printf_i+0x150>
    8000137c:	4685                	li	a3,1
    8000137e:	8656                	mv	a2,s5
    80001380:	85ce                	mv	a1,s3
    80001382:	854a                	mv	a0,s2
    80001384:	9a02                	jalr	s4
    80001386:	ed650ce3          	beq	a0,s6,8000125e <_printf_i+0x14e>
    8000138a:	2485                	addiw	s1,s1,1
    8000138c:	445c                	lw	a5,12(s0)
    8000138e:	4732                	lw	a4,12(sp)
    80001390:	9f99                	subw	a5,a5,a4
    80001392:	fef4c5e3          	blt	s1,a5,8000137c <_printf_i+0x26c>
    80001396:	bfc1                	j	80001366 <_printf_i+0x256>
    80001398:	4481                	li	s1,0
    8000139a:	01940a93          	addi	s5,s0,25
    8000139e:	5b7d                	li	s6,-1
    800013a0:	b7f5                	j	8000138c <_printf_i+0x27c>

00000000800013a2 <_sbrk_r>:
    800013a2:	1141                	addi	sp,sp,-16
    800013a4:	e022                	sd	s0,0(sp)
    800013a6:	842a                	mv	s0,a0
    800013a8:	852e                	mv	a0,a1
    800013aa:	a601a823          	sw	zero,-1424(gp) # 80002970 <errno>
    800013ae:	e406                	sd	ra,8(sp)
    800013b0:	44b000ef          	jal	ra,80001ffa <_sbrk>
    800013b4:	57fd                	li	a5,-1
    800013b6:	00f51663          	bne	a0,a5,800013c2 <_sbrk_r+0x20>
    800013ba:	a701a783          	lw	a5,-1424(gp) # 80002970 <errno>
    800013be:	c391                	beqz	a5,800013c2 <_sbrk_r+0x20>
    800013c0:	c01c                	sw	a5,0(s0)
    800013c2:	60a2                	ld	ra,8(sp)
    800013c4:	6402                	ld	s0,0(sp)
    800013c6:	0141                	addi	sp,sp,16
    800013c8:	8082                	ret

00000000800013ca <__sread>:
    800013ca:	1141                	addi	sp,sp,-16
    800013cc:	e022                	sd	s0,0(sp)
    800013ce:	842e                	mv	s0,a1
    800013d0:	01259583          	lh	a1,18(a1)
    800013d4:	e406                	sd	ra,8(sp)
    800013d6:	231000ef          	jal	ra,80001e06 <_read_r>
    800013da:	00054963          	bltz	a0,800013ec <__sread+0x22>
    800013de:	6c5c                	ld	a5,152(s0)
    800013e0:	97aa                	add	a5,a5,a0
    800013e2:	ec5c                	sd	a5,152(s0)
    800013e4:	60a2                	ld	ra,8(sp)
    800013e6:	6402                	ld	s0,0(sp)
    800013e8:	0141                	addi	sp,sp,16
    800013ea:	8082                	ret
    800013ec:	01045783          	lhu	a5,16(s0)
    800013f0:	777d                	lui	a4,0xfffff
    800013f2:	177d                	addi	a4,a4,-1
    800013f4:	8ff9                	and	a5,a5,a4
    800013f6:	00f41823          	sh	a5,16(s0)
    800013fa:	b7ed                	j	800013e4 <__sread+0x1a>

00000000800013fc <__seofread>:
    800013fc:	4501                	li	a0,0
    800013fe:	8082                	ret

0000000080001400 <__swrite>:
    80001400:	0105d783          	lhu	a5,16(a1)
    80001404:	7179                	addi	sp,sp,-48
    80001406:	f022                	sd	s0,32(sp)
    80001408:	ec26                	sd	s1,24(sp)
    8000140a:	e84a                	sd	s2,16(sp)
    8000140c:	e44e                	sd	s3,8(sp)
    8000140e:	f406                	sd	ra,40(sp)
    80001410:	1007f793          	andi	a5,a5,256
    80001414:	84aa                	mv	s1,a0
    80001416:	842e                	mv	s0,a1
    80001418:	8932                	mv	s2,a2
    8000141a:	89b6                	mv	s3,a3
    8000141c:	c799                	beqz	a5,8000142a <__swrite+0x2a>
    8000141e:	01259583          	lh	a1,18(a1)
    80001422:	4689                	li	a3,2
    80001424:	4601                	li	a2,0
    80001426:	752000ef          	jal	ra,80001b78 <_lseek_r>
    8000142a:	01045783          	lhu	a5,16(s0)
    8000142e:	777d                	lui	a4,0xfffff
    80001430:	177d                	addi	a4,a4,-1
    80001432:	8ff9                	and	a5,a5,a4
    80001434:	01241583          	lh	a1,18(s0)
    80001438:	00f41823          	sh	a5,16(s0)
    8000143c:	7402                	ld	s0,32(sp)
    8000143e:	70a2                	ld	ra,40(sp)
    80001440:	86ce                	mv	a3,s3
    80001442:	864a                	mv	a2,s2
    80001444:	69a2                	ld	s3,8(sp)
    80001446:	6942                	ld	s2,16(sp)
    80001448:	8526                	mv	a0,s1
    8000144a:	64e2                	ld	s1,24(sp)
    8000144c:	6145                	addi	sp,sp,48
    8000144e:	aa11                	j	80001562 <_write_r>

0000000080001450 <__sseek>:
    80001450:	1141                	addi	sp,sp,-16
    80001452:	e022                	sd	s0,0(sp)
    80001454:	842e                	mv	s0,a1
    80001456:	01259583          	lh	a1,18(a1)
    8000145a:	e406                	sd	ra,8(sp)
    8000145c:	71c000ef          	jal	ra,80001b78 <_lseek_r>
    80001460:	57fd                	li	a5,-1
    80001462:	01045703          	lhu	a4,16(s0)
    80001466:	00f51b63          	bne	a0,a5,8000147c <__sseek+0x2c>
    8000146a:	77fd                	lui	a5,0xfffff
    8000146c:	17fd                	addi	a5,a5,-1
    8000146e:	8ff9                	and	a5,a5,a4
    80001470:	00f41823          	sh	a5,16(s0)
    80001474:	60a2                	ld	ra,8(sp)
    80001476:	6402                	ld	s0,0(sp)
    80001478:	0141                	addi	sp,sp,16
    8000147a:	8082                	ret
    8000147c:	6785                	lui	a5,0x1
    8000147e:	8fd9                	or	a5,a5,a4
    80001480:	00f41823          	sh	a5,16(s0)
    80001484:	ec48                	sd	a0,152(s0)
    80001486:	b7fd                	j	80001474 <__sseek+0x24>

0000000080001488 <__sclose>:
    80001488:	01259583          	lh	a1,18(a1)
    8000148c:	ac09                	j	8000169e <_close_r>

000000008000148e <__swbuf_r>:
    8000148e:	7179                	addi	sp,sp,-48
    80001490:	f022                	sd	s0,32(sp)
    80001492:	ec26                	sd	s1,24(sp)
    80001494:	e84a                	sd	s2,16(sp)
    80001496:	f406                	sd	ra,40(sp)
    80001498:	e44e                	sd	s3,8(sp)
    8000149a:	84aa                	mv	s1,a0
    8000149c:	892e                	mv	s2,a1
    8000149e:	8432                	mv	s0,a2
    800014a0:	c509                	beqz	a0,800014aa <__swbuf_r+0x1c>
    800014a2:	591c                	lw	a5,48(a0)
    800014a4:	e399                	bnez	a5,800014aa <__swbuf_r+0x1c>
    800014a6:	cdcff0ef          	jal	ra,80000982 <__sinit>
    800014aa:	00001797          	auipc	a5,0x1
    800014ae:	ffe78793          	addi	a5,a5,-2 # 800024a8 <__sf_fake_stdin>
    800014b2:	06f41a63          	bne	s0,a5,80001526 <__swbuf_r+0x98>
    800014b6:	6480                	ld	s0,8(s1)
    800014b8:	541c                	lw	a5,40(s0)
    800014ba:	c45c                	sw	a5,12(s0)
    800014bc:	01045783          	lhu	a5,16(s0)
    800014c0:	8ba1                	andi	a5,a5,8
    800014c2:	c3d1                	beqz	a5,80001546 <__swbuf_r+0xb8>
    800014c4:	6c1c                	ld	a5,24(s0)
    800014c6:	c3c1                	beqz	a5,80001546 <__swbuf_r+0xb8>
    800014c8:	6c1c                	ld	a5,24(s0)
    800014ca:	6008                	ld	a0,0(s0)
    800014cc:	0ff97993          	andi	s3,s2,255
    800014d0:	894e                	mv	s2,s3
    800014d2:	9d1d                	subw	a0,a0,a5
    800014d4:	501c                	lw	a5,32(s0)
    800014d6:	00f54763          	blt	a0,a5,800014e4 <__swbuf_r+0x56>
    800014da:	85a2                	mv	a1,s0
    800014dc:	8526                	mv	a0,s1
    800014de:	326000ef          	jal	ra,80001804 <_fflush_r>
    800014e2:	e53d                	bnez	a0,80001550 <__swbuf_r+0xc2>
    800014e4:	445c                	lw	a5,12(s0)
    800014e6:	2505                	addiw	a0,a0,1
    800014e8:	37fd                	addiw	a5,a5,-1
    800014ea:	c45c                	sw	a5,12(s0)
    800014ec:	601c                	ld	a5,0(s0)
    800014ee:	00178713          	addi	a4,a5,1
    800014f2:	e018                	sd	a4,0(s0)
    800014f4:	01378023          	sb	s3,0(a5)
    800014f8:	501c                	lw	a5,32(s0)
    800014fa:	00a78963          	beq	a5,a0,8000150c <__swbuf_r+0x7e>
    800014fe:	01045783          	lhu	a5,16(s0)
    80001502:	8b85                	andi	a5,a5,1
    80001504:	cb89                	beqz	a5,80001516 <__swbuf_r+0x88>
    80001506:	47a9                	li	a5,10
    80001508:	00f91763          	bne	s2,a5,80001516 <__swbuf_r+0x88>
    8000150c:	85a2                	mv	a1,s0
    8000150e:	8526                	mv	a0,s1
    80001510:	2f4000ef          	jal	ra,80001804 <_fflush_r>
    80001514:	ed15                	bnez	a0,80001550 <__swbuf_r+0xc2>
    80001516:	70a2                	ld	ra,40(sp)
    80001518:	7402                	ld	s0,32(sp)
    8000151a:	64e2                	ld	s1,24(sp)
    8000151c:	69a2                	ld	s3,8(sp)
    8000151e:	854a                	mv	a0,s2
    80001520:	6942                	ld	s2,16(sp)
    80001522:	6145                	addi	sp,sp,48
    80001524:	8082                	ret
    80001526:	00001797          	auipc	a5,0x1
    8000152a:	fba78793          	addi	a5,a5,-70 # 800024e0 <__sf_fake_stdout>
    8000152e:	00f41463          	bne	s0,a5,80001536 <__swbuf_r+0xa8>
    80001532:	6880                	ld	s0,16(s1)
    80001534:	b751                	j	800014b8 <__swbuf_r+0x2a>
    80001536:	00001797          	auipc	a5,0x1
    8000153a:	f3a78793          	addi	a5,a5,-198 # 80002470 <__sf_fake_stderr>
    8000153e:	f6f41de3          	bne	s0,a5,800014b8 <__swbuf_r+0x2a>
    80001542:	6c80                	ld	s0,24(s1)
    80001544:	bf95                	j	800014b8 <__swbuf_r+0x2a>
    80001546:	85a2                	mv	a1,s0
    80001548:	8526                	mv	a0,s1
    8000154a:	044000ef          	jal	ra,8000158e <__swsetup_r>
    8000154e:	dd2d                	beqz	a0,800014c8 <__swbuf_r+0x3a>
    80001550:	597d                	li	s2,-1
    80001552:	b7d1                	j	80001516 <__swbuf_r+0x88>

0000000080001554 <__swbuf>:
    80001554:	862e                	mv	a2,a1
    80001556:	85aa                	mv	a1,a0
    80001558:	00001517          	auipc	a0,0x1
    8000155c:	1a853503          	ld	a0,424(a0) # 80002700 <_impure_ptr>
    80001560:	b73d                	j	8000148e <__swbuf_r>

0000000080001562 <_write_r>:
    80001562:	1141                	addi	sp,sp,-16
    80001564:	e022                	sd	s0,0(sp)
    80001566:	842a                	mv	s0,a0
    80001568:	852e                	mv	a0,a1
    8000156a:	85b2                	mv	a1,a2
    8000156c:	8636                	mv	a2,a3
    8000156e:	a601a823          	sw	zero,-1424(gp) # 80002970 <errno>
    80001572:	e406                	sd	ra,8(sp)
    80001574:	2c3000ef          	jal	ra,80002036 <_write>
    80001578:	57fd                	li	a5,-1
    8000157a:	00f51663          	bne	a0,a5,80001586 <_write_r+0x24>
    8000157e:	a701a783          	lw	a5,-1424(gp) # 80002970 <errno>
    80001582:	c391                	beqz	a5,80001586 <_write_r+0x24>
    80001584:	c01c                	sw	a5,0(s0)
    80001586:	60a2                	ld	ra,8(sp)
    80001588:	6402                	ld	s0,0(sp)
    8000158a:	0141                	addi	sp,sp,16
    8000158c:	8082                	ret

000000008000158e <__swsetup_r>:
    8000158e:	1101                	addi	sp,sp,-32
    80001590:	e822                	sd	s0,16(sp)
    80001592:	e426                	sd	s1,8(sp)
    80001594:	e04a                	sd	s2,0(sp)
    80001596:	ec06                	sd	ra,24(sp)
    80001598:	00001497          	auipc	s1,0x1
    8000159c:	1684b483          	ld	s1,360(s1) # 80002700 <_impure_ptr>
    800015a0:	892a                	mv	s2,a0
    800015a2:	842e                	mv	s0,a1
    800015a4:	c491                	beqz	s1,800015b0 <__swsetup_r+0x22>
    800015a6:	589c                	lw	a5,48(s1)
    800015a8:	e781                	bnez	a5,800015b0 <__swsetup_r+0x22>
    800015aa:	8526                	mv	a0,s1
    800015ac:	bd6ff0ef          	jal	ra,80000982 <__sinit>
    800015b0:	00001797          	auipc	a5,0x1
    800015b4:	ef878793          	addi	a5,a5,-264 # 800024a8 <__sf_fake_stdin>
    800015b8:	02f41763          	bne	s0,a5,800015e6 <__swsetup_r+0x58>
    800015bc:	6480                	ld	s0,8(s1)
    800015be:	01041783          	lh	a5,16(s0)
    800015c2:	03079713          	slli	a4,a5,0x30
    800015c6:	0087f693          	andi	a3,a5,8
    800015ca:	9341                	srli	a4,a4,0x30
    800015cc:	eab5                	bnez	a3,80001640 <__swsetup_r+0xb2>
    800015ce:	01077693          	andi	a3,a4,16
    800015d2:	ea95                	bnez	a3,80001606 <__swsetup_r+0x78>
    800015d4:	4725                	li	a4,9
    800015d6:	00e92023          	sw	a4,0(s2)
    800015da:	0407e793          	ori	a5,a5,64
    800015de:	00f41823          	sh	a5,16(s0)
    800015e2:	557d                	li	a0,-1
    800015e4:	a045                	j	80001684 <__swsetup_r+0xf6>
    800015e6:	00001797          	auipc	a5,0x1
    800015ea:	efa78793          	addi	a5,a5,-262 # 800024e0 <__sf_fake_stdout>
    800015ee:	00f41463          	bne	s0,a5,800015f6 <__swsetup_r+0x68>
    800015f2:	6880                	ld	s0,16(s1)
    800015f4:	b7e9                	j	800015be <__swsetup_r+0x30>
    800015f6:	00001797          	auipc	a5,0x1
    800015fa:	e7a78793          	addi	a5,a5,-390 # 80002470 <__sf_fake_stderr>
    800015fe:	fcf410e3          	bne	s0,a5,800015be <__swsetup_r+0x30>
    80001602:	6c80                	ld	s0,24(s1)
    80001604:	bf6d                	j	800015be <__swsetup_r+0x30>
    80001606:	8b11                	andi	a4,a4,4
    80001608:	c715                	beqz	a4,80001634 <__swsetup_r+0xa6>
    8000160a:	702c                	ld	a1,96(s0)
    8000160c:	c991                	beqz	a1,80001620 <__swsetup_r+0x92>
    8000160e:	07c40793          	addi	a5,s0,124
    80001612:	00f58563          	beq	a1,a5,8000161c <__swsetup_r+0x8e>
    80001616:	854a                	mv	a0,s2
    80001618:	6e4000ef          	jal	ra,80001cfc <_free_r>
    8000161c:	06043023          	sd	zero,96(s0)
    80001620:	01045783          	lhu	a5,16(s0)
    80001624:	00042423          	sw	zero,8(s0)
    80001628:	fdb7f793          	andi	a5,a5,-37
    8000162c:	00f41823          	sh	a5,16(s0)
    80001630:	6c1c                	ld	a5,24(s0)
    80001632:	e01c                	sd	a5,0(s0)
    80001634:	01045783          	lhu	a5,16(s0)
    80001638:	0087e793          	ori	a5,a5,8
    8000163c:	00f41823          	sh	a5,16(s0)
    80001640:	6c1c                	ld	a5,24(s0)
    80001642:	ef89                	bnez	a5,8000165c <__swsetup_r+0xce>
    80001644:	01045783          	lhu	a5,16(s0)
    80001648:	20000713          	li	a4,512
    8000164c:	2807f793          	andi	a5,a5,640
    80001650:	00e78663          	beq	a5,a4,8000165c <__swsetup_r+0xce>
    80001654:	85a2                	mv	a1,s0
    80001656:	854a                	mv	a0,s2
    80001658:	5a8000ef          	jal	ra,80001c00 <__smakebuf_r>
    8000165c:	01041783          	lh	a5,16(s0)
    80001660:	03079713          	slli	a4,a5,0x30
    80001664:	0017f693          	andi	a3,a5,1
    80001668:	9341                	srli	a4,a4,0x30
    8000166a:	c29d                	beqz	a3,80001690 <__swsetup_r+0x102>
    8000166c:	5014                	lw	a3,32(s0)
    8000166e:	00042623          	sw	zero,12(s0)
    80001672:	40d006bb          	negw	a3,a3
    80001676:	d414                	sw	a3,40(s0)
    80001678:	6c14                	ld	a3,24(s0)
    8000167a:	4501                	li	a0,0
    8000167c:	e681                	bnez	a3,80001684 <__swsetup_r+0xf6>
    8000167e:	08077713          	andi	a4,a4,128
    80001682:	ff21                	bnez	a4,800015da <__swsetup_r+0x4c>
    80001684:	60e2                	ld	ra,24(sp)
    80001686:	6442                	ld	s0,16(sp)
    80001688:	64a2                	ld	s1,8(sp)
    8000168a:	6902                	ld	s2,0(sp)
    8000168c:	6105                	addi	sp,sp,32
    8000168e:	8082                	ret
    80001690:	00277693          	andi	a3,a4,2
    80001694:	4601                	li	a2,0
    80001696:	e291                	bnez	a3,8000169a <__swsetup_r+0x10c>
    80001698:	5010                	lw	a2,32(s0)
    8000169a:	c450                	sw	a2,12(s0)
    8000169c:	bff1                	j	80001678 <__swsetup_r+0xea>

000000008000169e <_close_r>:
    8000169e:	1141                	addi	sp,sp,-16
    800016a0:	e022                	sd	s0,0(sp)
    800016a2:	842a                	mv	s0,a0
    800016a4:	852e                	mv	a0,a1
    800016a6:	a601a823          	sw	zero,-1424(gp) # 80002970 <errno>
    800016aa:	e406                	sd	ra,8(sp)
    800016ac:	0f5000ef          	jal	ra,80001fa0 <_close>
    800016b0:	57fd                	li	a5,-1
    800016b2:	00f51663          	bne	a0,a5,800016be <_close_r+0x20>
    800016b6:	a701a783          	lw	a5,-1424(gp) # 80002970 <errno>
    800016ba:	c391                	beqz	a5,800016be <_close_r+0x20>
    800016bc:	c01c                	sw	a5,0(s0)
    800016be:	60a2                	ld	ra,8(sp)
    800016c0:	6402                	ld	s0,0(sp)
    800016c2:	0141                	addi	sp,sp,16
    800016c4:	8082                	ret

00000000800016c6 <__sflush_r>:
    800016c6:	0105d783          	lhu	a5,16(a1)
    800016ca:	7179                	addi	sp,sp,-48
    800016cc:	f022                	sd	s0,32(sp)
    800016ce:	ec26                	sd	s1,24(sp)
    800016d0:	f406                	sd	ra,40(sp)
    800016d2:	e84a                	sd	s2,16(sp)
    800016d4:	e44e                	sd	s3,8(sp)
    800016d6:	0087f713          	andi	a4,a5,8
    800016da:	84aa                	mv	s1,a0
    800016dc:	842e                	mv	s0,a1
    800016de:	ef79                	bnez	a4,800017bc <__sflush_r+0xf6>
    800016e0:	4598                	lw	a4,8(a1)
    800016e2:	00e04d63          	bgtz	a4,800016fc <__sflush_r+0x36>
    800016e6:	5db8                	lw	a4,120(a1)
    800016e8:	00e04a63          	bgtz	a4,800016fc <__sflush_r+0x36>
    800016ec:	4501                	li	a0,0
    800016ee:	70a2                	ld	ra,40(sp)
    800016f0:	7402                	ld	s0,32(sp)
    800016f2:	64e2                	ld	s1,24(sp)
    800016f4:	6942                	ld	s2,16(sp)
    800016f6:	69a2                	ld	s3,8(sp)
    800016f8:	6145                	addi	sp,sp,48
    800016fa:	8082                	ret
    800016fc:	6838                	ld	a4,80(s0)
    800016fe:	d77d                	beqz	a4,800016ec <__sflush_r+0x26>
    80001700:	0004a903          	lw	s2,0(s1)
    80001704:	03379693          	slli	a3,a5,0x33
    80001708:	0004a023          	sw	zero,0(s1)
    8000170c:	0606de63          	bgez	a3,80001788 <__sflush_r+0xc2>
    80001710:	6c50                	ld	a2,152(s0)
    80001712:	01045783          	lhu	a5,16(s0)
    80001716:	8b91                	andi	a5,a5,4
    80001718:	c799                	beqz	a5,80001726 <__sflush_r+0x60>
    8000171a:	441c                	lw	a5,8(s0)
    8000171c:	8e1d                	sub	a2,a2,a5
    8000171e:	703c                	ld	a5,96(s0)
    80001720:	c399                	beqz	a5,80001726 <__sflush_r+0x60>
    80001722:	5c3c                	lw	a5,120(s0)
    80001724:	8e1d                	sub	a2,a2,a5
    80001726:	683c                	ld	a5,80(s0)
    80001728:	7c0c                	ld	a1,56(s0)
    8000172a:	4681                	li	a3,0
    8000172c:	8526                	mv	a0,s1
    8000172e:	9782                	jalr	a5
    80001730:	57fd                	li	a5,-1
    80001732:	01045703          	lhu	a4,16(s0)
    80001736:	00f51d63          	bne	a0,a5,80001750 <__sflush_r+0x8a>
    8000173a:	4094                	lw	a3,0(s1)
    8000173c:	47f5                	li	a5,29
    8000173e:	06d7e963          	bltu	a5,a3,800017b0 <__sflush_r+0xea>
    80001742:	204007b7          	lui	a5,0x20400
    80001746:	0785                	addi	a5,a5,1
    80001748:	00d7d7b3          	srl	a5,a5,a3
    8000174c:	8b85                	andi	a5,a5,1
    8000174e:	c3ad                	beqz	a5,800017b0 <__sflush_r+0xea>
    80001750:	6c1c                	ld	a5,24(s0)
    80001752:	00042423          	sw	zero,8(s0)
    80001756:	e01c                	sd	a5,0(s0)
    80001758:	03371793          	slli	a5,a4,0x33
    8000175c:	0007d863          	bgez	a5,8000176c <__sflush_r+0xa6>
    80001760:	57fd                	li	a5,-1
    80001762:	00f51463          	bne	a0,a5,8000176a <__sflush_r+0xa4>
    80001766:	409c                	lw	a5,0(s1)
    80001768:	e391                	bnez	a5,8000176c <__sflush_r+0xa6>
    8000176a:	ec48                	sd	a0,152(s0)
    8000176c:	702c                	ld	a1,96(s0)
    8000176e:	0124a023          	sw	s2,0(s1)
    80001772:	ddad                	beqz	a1,800016ec <__sflush_r+0x26>
    80001774:	07c40793          	addi	a5,s0,124
    80001778:	00f58563          	beq	a1,a5,80001782 <__sflush_r+0xbc>
    8000177c:	8526                	mv	a0,s1
    8000177e:	57e000ef          	jal	ra,80001cfc <_free_r>
    80001782:	06043023          	sd	zero,96(s0)
    80001786:	b79d                	j	800016ec <__sflush_r+0x26>
    80001788:	7c0c                	ld	a1,56(s0)
    8000178a:	4601                	li	a2,0
    8000178c:	4685                	li	a3,1
    8000178e:	8526                	mv	a0,s1
    80001790:	9702                	jalr	a4
    80001792:	57fd                	li	a5,-1
    80001794:	862a                	mv	a2,a0
    80001796:	f6f51ee3          	bne	a0,a5,80001712 <__sflush_r+0x4c>
    8000179a:	409c                	lw	a5,0(s1)
    8000179c:	dbbd                	beqz	a5,80001712 <__sflush_r+0x4c>
    8000179e:	4775                	li	a4,29
    800017a0:	00e78563          	beq	a5,a4,800017aa <__sflush_r+0xe4>
    800017a4:	4759                	li	a4,22
    800017a6:	04e79463          	bne	a5,a4,800017ee <__sflush_r+0x128>
    800017aa:	0124a023          	sw	s2,0(s1)
    800017ae:	bf3d                	j	800016ec <__sflush_r+0x26>
    800017b0:	04076713          	ori	a4,a4,64
    800017b4:	00e41823          	sh	a4,16(s0)
    800017b8:	557d                	li	a0,-1
    800017ba:	bf15                	j	800016ee <__sflush_r+0x28>
    800017bc:	0185b983          	ld	s3,24(a1)
    800017c0:	f20986e3          	beqz	s3,800016ec <__sflush_r+0x26>
    800017c4:	0005b903          	ld	s2,0(a1)
    800017c8:	8b8d                	andi	a5,a5,3
    800017ca:	0135b023          	sd	s3,0(a1)
    800017ce:	4139093b          	subw	s2,s2,s3
    800017d2:	4701                	li	a4,0
    800017d4:	e391                	bnez	a5,800017d8 <__sflush_r+0x112>
    800017d6:	5198                	lw	a4,32(a1)
    800017d8:	c458                	sw	a4,12(s0)
    800017da:	f12059e3          	blez	s2,800016ec <__sflush_r+0x26>
    800017de:	643c                	ld	a5,72(s0)
    800017e0:	7c0c                	ld	a1,56(s0)
    800017e2:	86ca                	mv	a3,s2
    800017e4:	864e                	mv	a2,s3
    800017e6:	8526                	mv	a0,s1
    800017e8:	9782                	jalr	a5
    800017ea:	00a04963          	bgtz	a0,800017fc <__sflush_r+0x136>
    800017ee:	01045783          	lhu	a5,16(s0)
    800017f2:	0407e793          	ori	a5,a5,64
    800017f6:	00f41823          	sh	a5,16(s0)
    800017fa:	bf7d                	j	800017b8 <__sflush_r+0xf2>
    800017fc:	99aa                	add	s3,s3,a0
    800017fe:	40a9093b          	subw	s2,s2,a0
    80001802:	bfe1                	j	800017da <__sflush_r+0x114>

0000000080001804 <_fflush_r>:
    80001804:	6d9c                	ld	a5,24(a1)
    80001806:	c3a5                	beqz	a5,80001866 <_fflush_r+0x62>
    80001808:	1101                	addi	sp,sp,-32
    8000180a:	e822                	sd	s0,16(sp)
    8000180c:	ec06                	sd	ra,24(sp)
    8000180e:	842a                	mv	s0,a0
    80001810:	c519                	beqz	a0,8000181e <_fflush_r+0x1a>
    80001812:	591c                	lw	a5,48(a0)
    80001814:	e789                	bnez	a5,8000181e <_fflush_r+0x1a>
    80001816:	e42e                	sd	a1,8(sp)
    80001818:	96aff0ef          	jal	ra,80000982 <__sinit>
    8000181c:	65a2                	ld	a1,8(sp)
    8000181e:	00001797          	auipc	a5,0x1
    80001822:	c8a78793          	addi	a5,a5,-886 # 800024a8 <__sf_fake_stdin>
    80001826:	00f59b63          	bne	a1,a5,8000183c <_fflush_r+0x38>
    8000182a:	640c                	ld	a1,8(s0)
    8000182c:	01059783          	lh	a5,16(a1)
    80001830:	c795                	beqz	a5,8000185c <_fflush_r+0x58>
    80001832:	8522                	mv	a0,s0
    80001834:	6442                	ld	s0,16(sp)
    80001836:	60e2                	ld	ra,24(sp)
    80001838:	6105                	addi	sp,sp,32
    8000183a:	b571                	j	800016c6 <__sflush_r>
    8000183c:	00001797          	auipc	a5,0x1
    80001840:	ca478793          	addi	a5,a5,-860 # 800024e0 <__sf_fake_stdout>
    80001844:	00f59463          	bne	a1,a5,8000184c <_fflush_r+0x48>
    80001848:	680c                	ld	a1,16(s0)
    8000184a:	b7cd                	j	8000182c <_fflush_r+0x28>
    8000184c:	00001797          	auipc	a5,0x1
    80001850:	c2478793          	addi	a5,a5,-988 # 80002470 <__sf_fake_stderr>
    80001854:	fcf59ce3          	bne	a1,a5,8000182c <_fflush_r+0x28>
    80001858:	6c0c                	ld	a1,24(s0)
    8000185a:	bfc9                	j	8000182c <_fflush_r+0x28>
    8000185c:	60e2                	ld	ra,24(sp)
    8000185e:	6442                	ld	s0,16(sp)
    80001860:	4501                	li	a0,0
    80001862:	6105                	addi	sp,sp,32
    80001864:	8082                	ret
    80001866:	4501                	li	a0,0
    80001868:	8082                	ret

000000008000186a <fflush>:
    8000186a:	85aa                	mv	a1,a0
    8000186c:	e919                	bnez	a0,80001882 <fflush+0x18>
    8000186e:	00000597          	auipc	a1,0x0
    80001872:	f9658593          	addi	a1,a1,-106 # 80001804 <_fflush_r>
    80001876:	00001517          	auipc	a0,0x1
    8000187a:	d6253503          	ld	a0,-670(a0) # 800025d8 <_global_impure_ptr>
    8000187e:	aa8ff06f          	j	80000b26 <_fwalk_reent>
    80001882:	00001517          	auipc	a0,0x1
    80001886:	e7e53503          	ld	a0,-386(a0) # 80002700 <_impure_ptr>
    8000188a:	bfad                	j	80001804 <_fflush_r>

000000008000188c <__sfvwrite_r>:
    8000188c:	6a1c                	ld	a5,16(a2)
    8000188e:	e781                	bnez	a5,80001896 <__sfvwrite_r+0xa>
    80001890:	4781                	li	a5,0
    80001892:	853e                	mv	a0,a5
    80001894:	8082                	ret
    80001896:	0105d783          	lhu	a5,16(a1)
    8000189a:	7119                	addi	sp,sp,-128
    8000189c:	f8a2                	sd	s0,112(sp)
    8000189e:	f0ca                	sd	s2,96(sp)
    800018a0:	e8d2                	sd	s4,80(sp)
    800018a2:	fc86                	sd	ra,120(sp)
    800018a4:	f4a6                	sd	s1,104(sp)
    800018a6:	ecce                	sd	s3,88(sp)
    800018a8:	e4d6                	sd	s5,72(sp)
    800018aa:	e0da                	sd	s6,64(sp)
    800018ac:	fc5e                	sd	s7,56(sp)
    800018ae:	f862                	sd	s8,48(sp)
    800018b0:	f466                	sd	s9,40(sp)
    800018b2:	f06a                	sd	s10,32(sp)
    800018b4:	ec6e                	sd	s11,24(sp)
    800018b6:	8ba1                	andi	a5,a5,8
    800018b8:	892a                	mv	s2,a0
    800018ba:	842e                	mv	s0,a1
    800018bc:	8a32                	mv	s4,a2
    800018be:	cfd1                	beqz	a5,8000195a <__sfvwrite_r+0xce>
    800018c0:	6d9c                	ld	a5,24(a1)
    800018c2:	cfc1                	beqz	a5,8000195a <__sfvwrite_r+0xce>
    800018c4:	01045783          	lhu	a5,16(s0)
    800018c8:	000a3983          	ld	s3,0(s4)
    800018cc:	0027f713          	andi	a4,a5,2
    800018d0:	0e071863          	bnez	a4,800019c0 <__sfvwrite_r+0x134>
    800018d4:	8b85                	andi	a5,a5,1
    800018d6:	4a81                	li	s5,0
    800018d8:	16078463          	beqz	a5,80001a40 <__sfvwrite_r+0x1b4>
    800018dc:	4501                	li	a0,0
    800018de:	4b81                	li	s7,0
    800018e0:	4b01                	li	s6,0
    800018e2:	240b0963          	beqz	s6,80001b34 <__sfvwrite_r+0x2a8>
    800018e6:	e919                	bnez	a0,800018fc <__sfvwrite_r+0x70>
    800018e8:	865a                	mv	a2,s6
    800018ea:	45a9                	li	a1,10
    800018ec:	855e                	mv	a0,s7
    800018ee:	3b4000ef          	jal	ra,80001ca2 <memchr>
    800018f2:	24050863          	beqz	a0,80001b42 <__sfvwrite_r+0x2b6>
    800018f6:	0505                	addi	a0,a0,1
    800018f8:	41750abb          	subw	s5,a0,s7
    800018fc:	8c56                	mv	s8,s5
    800018fe:	015b7363          	bgeu	s6,s5,80001904 <__sfvwrite_r+0x78>
    80001902:	8c5a                	mv	s8,s6
    80001904:	6008                	ld	a0,0(s0)
    80001906:	6c1c                	ld	a5,24(s0)
    80001908:	5014                	lw	a3,32(s0)
    8000190a:	22a7ff63          	bgeu	a5,a0,80001b48 <__sfvwrite_r+0x2bc>
    8000190e:	4444                	lw	s1,12(s0)
    80001910:	9cb5                	addw	s1,s1,a3
    80001912:	2384db63          	bge	s1,s8,80001b48 <__sfvwrite_r+0x2bc>
    80001916:	85de                	mv	a1,s7
    80001918:	8626                	mv	a2,s1
    8000191a:	3b8000ef          	jal	ra,80001cd2 <memmove>
    8000191e:	601c                	ld	a5,0(s0)
    80001920:	85a2                	mv	a1,s0
    80001922:	854a                	mv	a0,s2
    80001924:	97a6                	add	a5,a5,s1
    80001926:	e01c                	sd	a5,0(s0)
    80001928:	eddff0ef          	jal	ra,80001804 <_fflush_r>
    8000192c:	10051263          	bnez	a0,80001a30 <__sfvwrite_r+0x1a4>
    80001930:	409a8abb          	subw	s5,s5,s1
    80001934:	4505                	li	a0,1
    80001936:	000a9763          	bnez	s5,80001944 <__sfvwrite_r+0xb8>
    8000193a:	85a2                	mv	a1,s0
    8000193c:	854a                	mv	a0,s2
    8000193e:	ec7ff0ef          	jal	ra,80001804 <_fflush_r>
    80001942:	e57d                	bnez	a0,80001a30 <__sfvwrite_r+0x1a4>
    80001944:	010a3603          	ld	a2,16(s4)
    80001948:	9ba6                	add	s7,s7,s1
    8000194a:	409b0b33          	sub	s6,s6,s1
    8000194e:	409604b3          	sub	s1,a2,s1
    80001952:	009a3823          	sd	s1,16(s4)
    80001956:	f4d1                	bnez	s1,800018e2 <__sfvwrite_r+0x56>
    80001958:	a099                	j	8000199e <__sfvwrite_r+0x112>
    8000195a:	85a2                	mv	a1,s0
    8000195c:	854a                	mv	a0,s2
    8000195e:	c31ff0ef          	jal	ra,8000158e <__swsetup_r>
    80001962:	57fd                	li	a5,-1
    80001964:	d125                	beqz	a0,800018c4 <__sfvwrite_r+0x38>
    80001966:	a82d                	j	800019a0 <__sfvwrite_r+0x114>
    80001968:	0009ba83          	ld	s5,0(s3)
    8000196c:	0089b483          	ld	s1,8(s3)
    80001970:	09c1                	addi	s3,s3,16
    80001972:	d8fd                	beqz	s1,80001968 <__sfvwrite_r+0xdc>
    80001974:	86a6                	mv	a3,s1
    80001976:	009b7363          	bgeu	s6,s1,8000197c <__sfvwrite_r+0xf0>
    8000197a:	86da                	mv	a3,s6
    8000197c:	643c                	ld	a5,72(s0)
    8000197e:	7c0c                	ld	a1,56(s0)
    80001980:	2681                	sext.w	a3,a3
    80001982:	8656                	mv	a2,s5
    80001984:	854a                	mv	a0,s2
    80001986:	9782                	jalr	a5
    80001988:	0aa05463          	blez	a0,80001a30 <__sfvwrite_r+0x1a4>
    8000198c:	010a3783          	ld	a5,16(s4)
    80001990:	9aaa                	add	s5,s5,a0
    80001992:	8c89                	sub	s1,s1,a0
    80001994:	40a78533          	sub	a0,a5,a0
    80001998:	00aa3823          	sd	a0,16(s4)
    8000199c:	f979                	bnez	a0,80001972 <__sfvwrite_r+0xe6>
    8000199e:	4781                	li	a5,0
    800019a0:	70e6                	ld	ra,120(sp)
    800019a2:	7446                	ld	s0,112(sp)
    800019a4:	74a6                	ld	s1,104(sp)
    800019a6:	7906                	ld	s2,96(sp)
    800019a8:	69e6                	ld	s3,88(sp)
    800019aa:	6a46                	ld	s4,80(sp)
    800019ac:	6aa6                	ld	s5,72(sp)
    800019ae:	6b06                	ld	s6,64(sp)
    800019b0:	7be2                	ld	s7,56(sp)
    800019b2:	7c42                	ld	s8,48(sp)
    800019b4:	7ca2                	ld	s9,40(sp)
    800019b6:	7d02                	ld	s10,32(sp)
    800019b8:	6de2                	ld	s11,24(sp)
    800019ba:	853e                	mv	a0,a5
    800019bc:	6109                	addi	sp,sp,128
    800019be:	8082                	ret
    800019c0:	80000b37          	lui	s6,0x80000
    800019c4:	4a81                	li	s5,0
    800019c6:	4481                	li	s1,0
    800019c8:	c00b4b13          	xori	s6,s6,-1024
    800019cc:	b75d                	j	80001972 <__sfvwrite_r+0xe6>
    800019ce:	0009ba83          	ld	s5,0(s3)
    800019d2:	0089bd03          	ld	s10,8(s3)
    800019d6:	09c1                	addi	s3,s3,16
    800019d8:	4444                	lw	s1,12(s0)
    800019da:	8626                	mv	a2,s1
    800019dc:	fe0d09e3          	beqz	s10,800019ce <__sfvwrite_r+0x142>
    800019e0:	01045703          	lhu	a4,16(s0)
    800019e4:	6008                	ld	a0,0(s0)
    800019e6:	20077793          	andi	a5,a4,512
    800019ea:	c7ed                	beqz	a5,80001ad4 <__sfvwrite_r+0x248>
    800019ec:	089d6863          	bltu	s10,s1,80001a7c <__sfvwrite_r+0x1f0>
    800019f0:	48077793          	andi	a5,a4,1152
    800019f4:	c7c1                	beqz	a5,80001a7c <__sfvwrite_r+0x1f0>
    800019f6:	501c                	lw	a5,32(s0)
    800019f8:	6c0c                	ld	a1,24(s0)
    800019fa:	02fc07bb          	mulw	a5,s8,a5
    800019fe:	8d0d                	sub	a0,a0,a1
    80001a00:	00050d9b          	sext.w	s11,a0
    80001a04:	001d8693          	addi	a3,s11,1
    80001a08:	96ea                	add	a3,a3,s10
    80001a0a:	0397cbbb          	divw	s7,a5,s9
    80001a0e:	00dbf563          	bgeu	s7,a3,80001a18 <__sfvwrite_r+0x18c>
    80001a12:	2505                	addiw	a0,a0,1
    80001a14:	01a50bbb          	addw	s7,a0,s10
    80001a18:	40077713          	andi	a4,a4,1024
    80001a1c:	cb59                	beqz	a4,80001ab2 <__sfvwrite_r+0x226>
    80001a1e:	85de                	mv	a1,s7
    80001a20:	854a                	mv	a0,s2
    80001a22:	980ff0ef          	jal	ra,80000ba2 <_malloc_r>
    80001a26:	84aa                	mv	s1,a0
    80001a28:	e505                	bnez	a0,80001a50 <__sfvwrite_r+0x1c4>
    80001a2a:	47b1                	li	a5,12
    80001a2c:	00f92023          	sw	a5,0(s2)
    80001a30:	01045783          	lhu	a5,16(s0)
    80001a34:	0407e793          	ori	a5,a5,64
    80001a38:	00f41823          	sh	a5,16(s0)
    80001a3c:	57fd                	li	a5,-1
    80001a3e:	b78d                	j	800019a0 <__sfvwrite_r+0x114>
    80001a40:	80000b37          	lui	s6,0x80000
    80001a44:	4d01                	li	s10,0
    80001a46:	fffb4b13          	not	s6,s6
    80001a4a:	4c0d                	li	s8,3
    80001a4c:	4c89                	li	s9,2
    80001a4e:	b769                	j	800019d8 <__sfvwrite_r+0x14c>
    80001a50:	6c0c                	ld	a1,24(s0)
    80001a52:	866e                	mv	a2,s11
    80001a54:	268000ef          	jal	ra,80001cbc <memcpy>
    80001a58:	01045703          	lhu	a4,16(s0)
    80001a5c:	b7f77713          	andi	a4,a4,-1153
    80001a60:	08076713          	ori	a4,a4,128
    80001a64:	00e41823          	sh	a4,16(s0)
    80001a68:	ec04                	sd	s1,24(s0)
    80001a6a:	94ee                	add	s1,s1,s11
    80001a6c:	41bb8dbb          	subw	s11,s7,s11
    80001a70:	e004                	sd	s1,0(s0)
    80001a72:	03742023          	sw	s7,32(s0)
    80001a76:	866a                	mv	a2,s10
    80001a78:	01b42623          	sw	s11,12(s0)
    80001a7c:	84ea                	mv	s1,s10
    80001a7e:	00cd7363          	bgeu	s10,a2,80001a84 <__sfvwrite_r+0x1f8>
    80001a82:	866a                	mv	a2,s10
    80001a84:	6008                	ld	a0,0(s0)
    80001a86:	85d6                	mv	a1,s5
    80001a88:	e432                	sd	a2,8(sp)
    80001a8a:	248000ef          	jal	ra,80001cd2 <memmove>
    80001a8e:	445c                	lw	a5,12(s0)
    80001a90:	6622                	ld	a2,8(sp)
    80001a92:	9f91                	subw	a5,a5,a2
    80001a94:	c45c                	sw	a5,12(s0)
    80001a96:	601c                	ld	a5,0(s0)
    80001a98:	963e                	add	a2,a2,a5
    80001a9a:	e010                	sd	a2,0(s0)
    80001a9c:	010a3503          	ld	a0,16(s4)
    80001aa0:	9aa6                	add	s5,s5,s1
    80001aa2:	409d0d33          	sub	s10,s10,s1
    80001aa6:	409504b3          	sub	s1,a0,s1
    80001aaa:	009a3823          	sd	s1,16(s4)
    80001aae:	f48d                	bnez	s1,800019d8 <__sfvwrite_r+0x14c>
    80001ab0:	b5fd                	j	8000199e <__sfvwrite_r+0x112>
    80001ab2:	865e                	mv	a2,s7
    80001ab4:	854a                	mv	a0,s2
    80001ab6:	2ea000ef          	jal	ra,80001da0 <_realloc_r>
    80001aba:	84aa                	mv	s1,a0
    80001abc:	f555                	bnez	a0,80001a68 <__sfvwrite_r+0x1dc>
    80001abe:	6c0c                	ld	a1,24(s0)
    80001ac0:	854a                	mv	a0,s2
    80001ac2:	23a000ef          	jal	ra,80001cfc <_free_r>
    80001ac6:	01045783          	lhu	a5,16(s0)
    80001aca:	f7f7f793          	andi	a5,a5,-129
    80001ace:	00f41823          	sh	a5,16(s0)
    80001ad2:	bfa1                	j	80001a2a <__sfvwrite_r+0x19e>
    80001ad4:	6c1c                	ld	a5,24(s0)
    80001ad6:	00a7e563          	bltu	a5,a0,80001ae0 <__sfvwrite_r+0x254>
    80001ada:	5014                	lw	a3,32(s0)
    80001adc:	02dd7763          	bgeu	s10,a3,80001b0a <__sfvwrite_r+0x27e>
    80001ae0:	009d7363          	bgeu	s10,s1,80001ae6 <__sfvwrite_r+0x25a>
    80001ae4:	84ea                	mv	s1,s10
    80001ae6:	8626                	mv	a2,s1
    80001ae8:	85d6                	mv	a1,s5
    80001aea:	1e8000ef          	jal	ra,80001cd2 <memmove>
    80001aee:	445c                	lw	a5,12(s0)
    80001af0:	4097873b          	subw	a4,a5,s1
    80001af4:	601c                	ld	a5,0(s0)
    80001af6:	c458                	sw	a4,12(s0)
    80001af8:	97a6                	add	a5,a5,s1
    80001afa:	e01c                	sd	a5,0(s0)
    80001afc:	f345                	bnez	a4,80001a9c <__sfvwrite_r+0x210>
    80001afe:	85a2                	mv	a1,s0
    80001b00:	854a                	mv	a0,s2
    80001b02:	d03ff0ef          	jal	ra,80001804 <_fflush_r>
    80001b06:	d959                	beqz	a0,80001a9c <__sfvwrite_r+0x210>
    80001b08:	b725                	j	80001a30 <__sfvwrite_r+0x1a4>
    80001b0a:	80000737          	lui	a4,0x80000
    80001b0e:	ffe74713          	xori	a4,a4,-2
    80001b12:	87da                	mv	a5,s6
    80001b14:	01a76363          	bltu	a4,s10,80001b1a <__sfvwrite_r+0x28e>
    80001b18:	87ea                	mv	a5,s10
    80001b1a:	02d7c7bb          	divw	a5,a5,a3
    80001b1e:	6438                	ld	a4,72(s0)
    80001b20:	7c0c                	ld	a1,56(s0)
    80001b22:	8656                	mv	a2,s5
    80001b24:	854a                	mv	a0,s2
    80001b26:	02d786bb          	mulw	a3,a5,a3
    80001b2a:	9702                	jalr	a4
    80001b2c:	84aa                	mv	s1,a0
    80001b2e:	f6a047e3          	bgtz	a0,80001a9c <__sfvwrite_r+0x210>
    80001b32:	bdfd                	j	80001a30 <__sfvwrite_r+0x1a4>
    80001b34:	0009bb83          	ld	s7,0(s3)
    80001b38:	0089bb03          	ld	s6,8(s3)
    80001b3c:	4501                	li	a0,0
    80001b3e:	09c1                	addi	s3,s3,16
    80001b40:	b34d                	j	800018e2 <__sfvwrite_r+0x56>
    80001b42:	001b0a9b          	addiw	s5,s6,1
    80001b46:	bb5d                	j	800018fc <__sfvwrite_r+0x70>
    80001b48:	00dc4b63          	blt	s8,a3,80001b5e <__sfvwrite_r+0x2d2>
    80001b4c:	643c                	ld	a5,72(s0)
    80001b4e:	7c0c                	ld	a1,56(s0)
    80001b50:	865e                	mv	a2,s7
    80001b52:	854a                	mv	a0,s2
    80001b54:	9782                	jalr	a5
    80001b56:	84aa                	mv	s1,a0
    80001b58:	dca04ce3          	bgtz	a0,80001930 <__sfvwrite_r+0xa4>
    80001b5c:	bdd1                	j	80001a30 <__sfvwrite_r+0x1a4>
    80001b5e:	8662                	mv	a2,s8
    80001b60:	85de                	mv	a1,s7
    80001b62:	170000ef          	jal	ra,80001cd2 <memmove>
    80001b66:	445c                	lw	a5,12(s0)
    80001b68:	84e2                	mv	s1,s8
    80001b6a:	418787bb          	subw	a5,a5,s8
    80001b6e:	c45c                	sw	a5,12(s0)
    80001b70:	601c                	ld	a5,0(s0)
    80001b72:	97e2                	add	a5,a5,s8
    80001b74:	e01c                	sd	a5,0(s0)
    80001b76:	bb6d                	j	80001930 <__sfvwrite_r+0xa4>

0000000080001b78 <_lseek_r>:
    80001b78:	1141                	addi	sp,sp,-16
    80001b7a:	e022                	sd	s0,0(sp)
    80001b7c:	842a                	mv	s0,a0
    80001b7e:	852e                	mv	a0,a1
    80001b80:	85b2                	mv	a1,a2
    80001b82:	8636                	mv	a2,a3
    80001b84:	a601a823          	sw	zero,-1424(gp) # 80002970 <errno>
    80001b88:	e406                	sd	ra,8(sp)
    80001b8a:	446000ef          	jal	ra,80001fd0 <_lseek>
    80001b8e:	57fd                	li	a5,-1
    80001b90:	00f51663          	bne	a0,a5,80001b9c <_lseek_r+0x24>
    80001b94:	a701a783          	lw	a5,-1424(gp) # 80002970 <errno>
    80001b98:	c391                	beqz	a5,80001b9c <_lseek_r+0x24>
    80001b9a:	c01c                	sw	a5,0(s0)
    80001b9c:	60a2                	ld	ra,8(sp)
    80001b9e:	6402                	ld	s0,0(sp)
    80001ba0:	0141                	addi	sp,sp,16
    80001ba2:	8082                	ret

0000000080001ba4 <__swhatbuf_r>:
    80001ba4:	7175                	addi	sp,sp,-144
    80001ba6:	f8ca                	sd	s2,112(sp)
    80001ba8:	892e                	mv	s2,a1
    80001baa:	01259583          	lh	a1,18(a1)
    80001bae:	e122                	sd	s0,128(sp)
    80001bb0:	fca6                	sd	s1,120(sp)
    80001bb2:	e506                	sd	ra,136(sp)
    80001bb4:	8432                	mv	s0,a2
    80001bb6:	84b6                	mv	s1,a3
    80001bb8:	0005dc63          	bgez	a1,80001bd0 <__swhatbuf_r+0x2c>
    80001bbc:	01095783          	lhu	a5,16(s2)
    80001bc0:	0004a023          	sw	zero,0(s1)
    80001bc4:	0807f793          	andi	a5,a5,128
    80001bc8:	e395                	bnez	a5,80001bec <__swhatbuf_r+0x48>
    80001bca:	40000793          	li	a5,1024
    80001bce:	a00d                	j	80001bf0 <__swhatbuf_r+0x4c>
    80001bd0:	0030                	addi	a2,sp,8
    80001bd2:	35c000ef          	jal	ra,80001f2e <_fstat_r>
    80001bd6:	fe0543e3          	bltz	a0,80001bbc <__swhatbuf_r+0x18>
    80001bda:	47b2                	lw	a5,12(sp)
    80001bdc:	673d                	lui	a4,0xf
    80001bde:	8ff9                	and	a5,a5,a4
    80001be0:	6709                	lui	a4,0x2
    80001be2:	8f99                	sub	a5,a5,a4
    80001be4:	0017b793          	seqz	a5,a5
    80001be8:	c09c                	sw	a5,0(s1)
    80001bea:	b7c5                	j	80001bca <__swhatbuf_r+0x26>
    80001bec:	04000793          	li	a5,64
    80001bf0:	60aa                	ld	ra,136(sp)
    80001bf2:	e01c                	sd	a5,0(s0)
    80001bf4:	640a                	ld	s0,128(sp)
    80001bf6:	74e6                	ld	s1,120(sp)
    80001bf8:	7946                	ld	s2,112(sp)
    80001bfa:	4501                	li	a0,0
    80001bfc:	6149                	addi	sp,sp,144
    80001bfe:	8082                	ret

0000000080001c00 <__smakebuf_r>:
    80001c00:	0105d783          	lhu	a5,16(a1)
    80001c04:	7179                	addi	sp,sp,-48
    80001c06:	f022                	sd	s0,32(sp)
    80001c08:	f406                	sd	ra,40(sp)
    80001c0a:	ec26                	sd	s1,24(sp)
    80001c0c:	e84a                	sd	s2,16(sp)
    80001c0e:	8b89                	andi	a5,a5,2
    80001c10:	842e                	mv	s0,a1
    80001c12:	cf89                	beqz	a5,80001c2c <__smakebuf_r+0x2c>
    80001c14:	07f40793          	addi	a5,s0,127
    80001c18:	e01c                	sd	a5,0(s0)
    80001c1a:	ec1c                	sd	a5,24(s0)
    80001c1c:	4785                	li	a5,1
    80001c1e:	d01c                	sw	a5,32(s0)
    80001c20:	70a2                	ld	ra,40(sp)
    80001c22:	7402                	ld	s0,32(sp)
    80001c24:	64e2                	ld	s1,24(sp)
    80001c26:	6942                	ld	s2,16(sp)
    80001c28:	6145                	addi	sp,sp,48
    80001c2a:	8082                	ret
    80001c2c:	0054                	addi	a3,sp,4
    80001c2e:	0030                	addi	a2,sp,8
    80001c30:	892a                	mv	s2,a0
    80001c32:	f73ff0ef          	jal	ra,80001ba4 <__swhatbuf_r>
    80001c36:	65a2                	ld	a1,8(sp)
    80001c38:	84aa                	mv	s1,a0
    80001c3a:	854a                	mv	a0,s2
    80001c3c:	f67fe0ef          	jal	ra,80000ba2 <_malloc_r>
    80001c40:	ed01                	bnez	a0,80001c58 <__smakebuf_r+0x58>
    80001c42:	01041783          	lh	a5,16(s0)
    80001c46:	2007f713          	andi	a4,a5,512
    80001c4a:	fb79                	bnez	a4,80001c20 <__smakebuf_r+0x20>
    80001c4c:	9bf1                	andi	a5,a5,-4
    80001c4e:	0027e793          	ori	a5,a5,2
    80001c52:	00f41823          	sh	a5,16(s0)
    80001c56:	bf7d                	j	80001c14 <__smakebuf_r+0x14>
    80001c58:	fffff797          	auipc	a5,0xfffff
    80001c5c:	cca78793          	addi	a5,a5,-822 # 80000922 <_cleanup_r>
    80001c60:	04f93423          	sd	a5,72(s2)
    80001c64:	01045783          	lhu	a5,16(s0)
    80001c68:	e008                	sd	a0,0(s0)
    80001c6a:	ec08                	sd	a0,24(s0)
    80001c6c:	0807e793          	ori	a5,a5,128
    80001c70:	00f41823          	sh	a5,16(s0)
    80001c74:	67a2                	ld	a5,8(sp)
    80001c76:	d01c                	sw	a5,32(s0)
    80001c78:	4792                	lw	a5,4(sp)
    80001c7a:	cf91                	beqz	a5,80001c96 <__smakebuf_r+0x96>
    80001c7c:	01241583          	lh	a1,18(s0)
    80001c80:	854a                	mv	a0,s2
    80001c82:	2d6000ef          	jal	ra,80001f58 <_isatty_r>
    80001c86:	c901                	beqz	a0,80001c96 <__smakebuf_r+0x96>
    80001c88:	01045783          	lhu	a5,16(s0)
    80001c8c:	9bf1                	andi	a5,a5,-4
    80001c8e:	0017e793          	ori	a5,a5,1
    80001c92:	00f41823          	sh	a5,16(s0)
    80001c96:	01045503          	lhu	a0,16(s0)
    80001c9a:	8cc9                	or	s1,s1,a0
    80001c9c:	00941823          	sh	s1,16(s0)
    80001ca0:	b741                	j	80001c20 <__smakebuf_r+0x20>

0000000080001ca2 <memchr>:
    80001ca2:	0ff5f593          	andi	a1,a1,255
    80001ca6:	962a                	add	a2,a2,a0
    80001ca8:	00c51463          	bne	a0,a2,80001cb0 <memchr+0xe>
    80001cac:	4501                	li	a0,0
    80001cae:	8082                	ret
    80001cb0:	00054783          	lbu	a5,0(a0)
    80001cb4:	feb78de3          	beq	a5,a1,80001cae <memchr+0xc>
    80001cb8:	0505                	addi	a0,a0,1
    80001cba:	b7fd                	j	80001ca8 <memchr+0x6>

0000000080001cbc <memcpy>:
    80001cbc:	832a                	mv	t1,a0
    80001cbe:	ca09                	beqz	a2,80001cd0 <memcpy+0x14>
    80001cc0:	00058383          	lb	t2,0(a1)
    80001cc4:	00730023          	sb	t2,0(t1)
    80001cc8:	167d                	addi	a2,a2,-1
    80001cca:	0305                	addi	t1,t1,1
    80001ccc:	0585                	addi	a1,a1,1
    80001cce:	fa6d                	bnez	a2,80001cc0 <memcpy+0x4>
    80001cd0:	8082                	ret

0000000080001cd2 <memmove>:
    80001cd2:	c215                	beqz	a2,80001cf6 <memmove+0x24>
    80001cd4:	832a                	mv	t1,a0
    80001cd6:	4685                	li	a3,1
    80001cd8:	00b56763          	bltu	a0,a1,80001ce6 <memmove+0x14>
    80001cdc:	56fd                	li	a3,-1
    80001cde:	fff60713          	addi	a4,a2,-1
    80001ce2:	933a                	add	t1,t1,a4
    80001ce4:	95ba                	add	a1,a1,a4
    80001ce6:	00058383          	lb	t2,0(a1)
    80001cea:	00730023          	sb	t2,0(t1)
    80001cee:	167d                	addi	a2,a2,-1
    80001cf0:	9336                	add	t1,t1,a3
    80001cf2:	95b6                	add	a1,a1,a3
    80001cf4:	fa6d                	bnez	a2,80001ce6 <memmove+0x14>
    80001cf6:	8082                	ret

0000000080001cf8 <__malloc_lock>:
    80001cf8:	8082                	ret

0000000080001cfa <__malloc_unlock>:
    80001cfa:	8082                	ret

0000000080001cfc <_free_r>:
    80001cfc:	c1cd                	beqz	a1,80001d9e <_free_r+0xa2>
    80001cfe:	ff85b783          	ld	a5,-8(a1)
    80001d02:	1101                	addi	sp,sp,-32
    80001d04:	e822                	sd	s0,16(sp)
    80001d06:	ec06                	sd	ra,24(sp)
    80001d08:	ff858413          	addi	s0,a1,-8
    80001d0c:	0007d363          	bgez	a5,80001d12 <_free_r+0x16>
    80001d10:	943e                	add	s0,s0,a5
    80001d12:	e42a                	sd	a0,8(sp)
    80001d14:	fe5ff0ef          	jal	ra,80001cf8 <__malloc_lock>
    80001d18:	84018713          	addi	a4,gp,-1984 # 80002740 <__malloc_free_list>
    80001d1c:	631c                	ld	a5,0(a4)
    80001d1e:	6522                	ld	a0,8(sp)
    80001d20:	863a                	mv	a2,a4
    80001d22:	eb81                	bnez	a5,80001d32 <_free_r+0x36>
    80001d24:	00043423          	sd	zero,8(s0)
    80001d28:	e300                	sd	s0,0(a4)
    80001d2a:	6442                	ld	s0,16(sp)
    80001d2c:	60e2                	ld	ra,24(sp)
    80001d2e:	6105                	addi	sp,sp,32
    80001d30:	b7e9                	j	80001cfa <__malloc_unlock>
    80001d32:	00f47e63          	bgeu	s0,a5,80001d4e <_free_r+0x52>
    80001d36:	6014                	ld	a3,0(s0)
    80001d38:	00d40733          	add	a4,s0,a3
    80001d3c:	00e79663          	bne	a5,a4,80001d48 <_free_r+0x4c>
    80001d40:	6398                	ld	a4,0(a5)
    80001d42:	679c                	ld	a5,8(a5)
    80001d44:	9736                	add	a4,a4,a3
    80001d46:	e018                	sd	a4,0(s0)
    80001d48:	e41c                	sd	a5,8(s0)
    80001d4a:	e200                	sd	s0,0(a2)
    80001d4c:	bff9                	j	80001d2a <_free_r+0x2e>
    80001d4e:	873e                	mv	a4,a5
    80001d50:	679c                	ld	a5,8(a5)
    80001d52:	c399                	beqz	a5,80001d58 <_free_r+0x5c>
    80001d54:	fef47de3          	bgeu	s0,a5,80001d4e <_free_r+0x52>
    80001d58:	6314                	ld	a3,0(a4)
    80001d5a:	00d70633          	add	a2,a4,a3
    80001d5e:	00861f63          	bne	a2,s0,80001d7c <_free_r+0x80>
    80001d62:	6010                	ld	a2,0(s0)
    80001d64:	96b2                	add	a3,a3,a2
    80001d66:	e314                	sd	a3,0(a4)
    80001d68:	00d70633          	add	a2,a4,a3
    80001d6c:	fac79fe3          	bne	a5,a2,80001d2a <_free_r+0x2e>
    80001d70:	6390                	ld	a2,0(a5)
    80001d72:	679c                	ld	a5,8(a5)
    80001d74:	96b2                	add	a3,a3,a2
    80001d76:	e314                	sd	a3,0(a4)
    80001d78:	e71c                	sd	a5,8(a4)
    80001d7a:	bf45                	j	80001d2a <_free_r+0x2e>
    80001d7c:	00c47563          	bgeu	s0,a2,80001d86 <_free_r+0x8a>
    80001d80:	47b1                	li	a5,12
    80001d82:	c11c                	sw	a5,0(a0)
    80001d84:	b75d                	j	80001d2a <_free_r+0x2e>
    80001d86:	6010                	ld	a2,0(s0)
    80001d88:	00c406b3          	add	a3,s0,a2
    80001d8c:	00d79663          	bne	a5,a3,80001d98 <_free_r+0x9c>
    80001d90:	6394                	ld	a3,0(a5)
    80001d92:	679c                	ld	a5,8(a5)
    80001d94:	96b2                	add	a3,a3,a2
    80001d96:	e014                	sd	a3,0(s0)
    80001d98:	e41c                	sd	a5,8(s0)
    80001d9a:	e700                	sd	s0,8(a4)
    80001d9c:	b779                	j	80001d2a <_free_r+0x2e>
    80001d9e:	8082                	ret

0000000080001da0 <_realloc_r>:
    80001da0:	7179                	addi	sp,sp,-48
    80001da2:	f022                	sd	s0,32(sp)
    80001da4:	f406                	sd	ra,40(sp)
    80001da6:	ec26                	sd	s1,24(sp)
    80001da8:	e84a                	sd	s2,16(sp)
    80001daa:	e44e                	sd	s3,8(sp)
    80001dac:	8432                	mv	s0,a2
    80001dae:	e991                	bnez	a1,80001dc2 <_realloc_r+0x22>
    80001db0:	7402                	ld	s0,32(sp)
    80001db2:	70a2                	ld	ra,40(sp)
    80001db4:	64e2                	ld	s1,24(sp)
    80001db6:	6942                	ld	s2,16(sp)
    80001db8:	69a2                	ld	s3,8(sp)
    80001dba:	85b2                	mv	a1,a2
    80001dbc:	6145                	addi	sp,sp,48
    80001dbe:	de5fe06f          	j	80000ba2 <_malloc_r>
    80001dc2:	ee01                	bnez	a2,80001dda <_realloc_r+0x3a>
    80001dc4:	f39ff0ef          	jal	ra,80001cfc <_free_r>
    80001dc8:	4481                	li	s1,0
    80001dca:	70a2                	ld	ra,40(sp)
    80001dcc:	7402                	ld	s0,32(sp)
    80001dce:	6942                	ld	s2,16(sp)
    80001dd0:	69a2                	ld	s3,8(sp)
    80001dd2:	8526                	mv	a0,s1
    80001dd4:	64e2                	ld	s1,24(sp)
    80001dd6:	6145                	addi	sp,sp,48
    80001dd8:	8082                	ret
    80001dda:	892e                	mv	s2,a1
    80001ddc:	89aa                	mv	s3,a0
    80001dde:	1a2000ef          	jal	ra,80001f80 <_malloc_usable_size_r>
    80001de2:	84ca                	mv	s1,s2
    80001de4:	fe8573e3          	bgeu	a0,s0,80001dca <_realloc_r+0x2a>
    80001de8:	85a2                	mv	a1,s0
    80001dea:	854e                	mv	a0,s3
    80001dec:	db7fe0ef          	jal	ra,80000ba2 <_malloc_r>
    80001df0:	84aa                	mv	s1,a0
    80001df2:	dd61                	beqz	a0,80001dca <_realloc_r+0x2a>
    80001df4:	85ca                	mv	a1,s2
    80001df6:	8622                	mv	a2,s0
    80001df8:	ec5ff0ef          	jal	ra,80001cbc <memcpy>
    80001dfc:	85ca                	mv	a1,s2
    80001dfe:	854e                	mv	a0,s3
    80001e00:	efdff0ef          	jal	ra,80001cfc <_free_r>
    80001e04:	b7d9                	j	80001dca <_realloc_r+0x2a>

0000000080001e06 <_read_r>:
    80001e06:	1141                	addi	sp,sp,-16
    80001e08:	e022                	sd	s0,0(sp)
    80001e0a:	842a                	mv	s0,a0
    80001e0c:	852e                	mv	a0,a1
    80001e0e:	85b2                	mv	a1,a2
    80001e10:	8636                	mv	a2,a3
    80001e12:	a601a823          	sw	zero,-1424(gp) # 80002970 <errno>
    80001e16:	e406                	sd	ra,8(sp)
    80001e18:	1cc000ef          	jal	ra,80001fe4 <_read>
    80001e1c:	57fd                	li	a5,-1
    80001e1e:	00f51663          	bne	a0,a5,80001e2a <_read_r+0x24>
    80001e22:	a701a783          	lw	a5,-1424(gp) # 80002970 <errno>
    80001e26:	c391                	beqz	a5,80001e2a <_read_r+0x24>
    80001e28:	c01c                	sw	a5,0(s0)
    80001e2a:	60a2                	ld	ra,8(sp)
    80001e2c:	6402                	ld	s0,0(sp)
    80001e2e:	0141                	addi	sp,sp,16
    80001e30:	8082                	ret

0000000080001e32 <cleanup_glue>:
    80001e32:	1101                	addi	sp,sp,-32
    80001e34:	e822                	sd	s0,16(sp)
    80001e36:	842e                	mv	s0,a1
    80001e38:	618c                	ld	a1,0(a1)
    80001e3a:	e426                	sd	s1,8(sp)
    80001e3c:	ec06                	sd	ra,24(sp)
    80001e3e:	84aa                	mv	s1,a0
    80001e40:	c199                	beqz	a1,80001e46 <cleanup_glue+0x14>
    80001e42:	ff1ff0ef          	jal	ra,80001e32 <cleanup_glue>
    80001e46:	85a2                	mv	a1,s0
    80001e48:	6442                	ld	s0,16(sp)
    80001e4a:	60e2                	ld	ra,24(sp)
    80001e4c:	8526                	mv	a0,s1
    80001e4e:	64a2                	ld	s1,8(sp)
    80001e50:	6105                	addi	sp,sp,32
    80001e52:	b56d                	j	80001cfc <_free_r>

0000000080001e54 <_reclaim_reent>:
    80001e54:	00001797          	auipc	a5,0x1
    80001e58:	8ac7b783          	ld	a5,-1876(a5) # 80002700 <_impure_ptr>
    80001e5c:	0ca78863          	beq	a5,a0,80001f2c <_reclaim_reent+0xd8>
    80001e60:	613c                	ld	a5,64(a0)
    80001e62:	7179                	addi	sp,sp,-48
    80001e64:	f022                	sd	s0,32(sp)
    80001e66:	f406                	sd	ra,40(sp)
    80001e68:	ec26                	sd	s1,24(sp)
    80001e6a:	e84a                	sd	s2,16(sp)
    80001e6c:	e44e                	sd	s3,8(sp)
    80001e6e:	842a                	mv	s0,a0
    80001e70:	cb8d                	beqz	a5,80001ea2 <_reclaim_reent+0x4e>
    80001e72:	6f9c                	ld	a5,24(a5)
    80001e74:	c38d                	beqz	a5,80001e96 <_reclaim_reent+0x42>
    80001e76:	4481                	li	s1,0
    80001e78:	20000913          	li	s2,512
    80001e7c:	603c                	ld	a5,64(s0)
    80001e7e:	6f9c                	ld	a5,24(a5)
    80001e80:	97a6                	add	a5,a5,s1
    80001e82:	638c                	ld	a1,0(a5)
    80001e84:	e5d1                	bnez	a1,80001f10 <_reclaim_reent+0xbc>
    80001e86:	04a1                	addi	s1,s1,8
    80001e88:	ff249ae3          	bne	s1,s2,80001e7c <_reclaim_reent+0x28>
    80001e8c:	603c                	ld	a5,64(s0)
    80001e8e:	8522                	mv	a0,s0
    80001e90:	6f8c                	ld	a1,24(a5)
    80001e92:	e6bff0ef          	jal	ra,80001cfc <_free_r>
    80001e96:	603c                	ld	a5,64(s0)
    80001e98:	638c                	ld	a1,0(a5)
    80001e9a:	c581                	beqz	a1,80001ea2 <_reclaim_reent+0x4e>
    80001e9c:	8522                	mv	a0,s0
    80001e9e:	e5fff0ef          	jal	ra,80001cfc <_free_r>
    80001ea2:	740c                	ld	a1,40(s0)
    80001ea4:	c581                	beqz	a1,80001eac <_reclaim_reent+0x58>
    80001ea6:	8522                	mv	a0,s0
    80001ea8:	e55ff0ef          	jal	ra,80001cfc <_free_r>
    80001eac:	602c                	ld	a1,64(s0)
    80001eae:	c581                	beqz	a1,80001eb6 <_reclaim_reent+0x62>
    80001eb0:	8522                	mv	a0,s0
    80001eb2:	e4bff0ef          	jal	ra,80001cfc <_free_r>
    80001eb6:	702c                	ld	a1,96(s0)
    80001eb8:	c581                	beqz	a1,80001ec0 <_reclaim_reent+0x6c>
    80001eba:	8522                	mv	a0,s0
    80001ebc:	e41ff0ef          	jal	ra,80001cfc <_free_r>
    80001ec0:	742c                	ld	a1,104(s0)
    80001ec2:	c581                	beqz	a1,80001eca <_reclaim_reent+0x76>
    80001ec4:	8522                	mv	a0,s0
    80001ec6:	e37ff0ef          	jal	ra,80001cfc <_free_r>
    80001eca:	782c                	ld	a1,112(s0)
    80001ecc:	c581                	beqz	a1,80001ed4 <_reclaim_reent+0x80>
    80001ece:	8522                	mv	a0,s0
    80001ed0:	e2dff0ef          	jal	ra,80001cfc <_free_r>
    80001ed4:	744c                	ld	a1,168(s0)
    80001ed6:	c581                	beqz	a1,80001ede <_reclaim_reent+0x8a>
    80001ed8:	8522                	mv	a0,s0
    80001eda:	e23ff0ef          	jal	ra,80001cfc <_free_r>
    80001ede:	704c                	ld	a1,160(s0)
    80001ee0:	c581                	beqz	a1,80001ee8 <_reclaim_reent+0x94>
    80001ee2:	8522                	mv	a0,s0
    80001ee4:	e19ff0ef          	jal	ra,80001cfc <_free_r>
    80001ee8:	6c2c                	ld	a1,88(s0)
    80001eea:	c581                	beqz	a1,80001ef2 <_reclaim_reent+0x9e>
    80001eec:	8522                	mv	a0,s0
    80001eee:	e0fff0ef          	jal	ra,80001cfc <_free_r>
    80001ef2:	581c                	lw	a5,48(s0)
    80001ef4:	c78d                	beqz	a5,80001f1e <_reclaim_reent+0xca>
    80001ef6:	643c                	ld	a5,72(s0)
    80001ef8:	8522                	mv	a0,s0
    80001efa:	9782                	jalr	a5
    80001efc:	604c                	ld	a1,128(s0)
    80001efe:	c185                	beqz	a1,80001f1e <_reclaim_reent+0xca>
    80001f00:	8522                	mv	a0,s0
    80001f02:	7402                	ld	s0,32(sp)
    80001f04:	70a2                	ld	ra,40(sp)
    80001f06:	64e2                	ld	s1,24(sp)
    80001f08:	6942                	ld	s2,16(sp)
    80001f0a:	69a2                	ld	s3,8(sp)
    80001f0c:	6145                	addi	sp,sp,48
    80001f0e:	b715                	j	80001e32 <cleanup_glue>
    80001f10:	0005b983          	ld	s3,0(a1)
    80001f14:	8522                	mv	a0,s0
    80001f16:	de7ff0ef          	jal	ra,80001cfc <_free_r>
    80001f1a:	85ce                	mv	a1,s3
    80001f1c:	b7a5                	j	80001e84 <_reclaim_reent+0x30>
    80001f1e:	70a2                	ld	ra,40(sp)
    80001f20:	7402                	ld	s0,32(sp)
    80001f22:	64e2                	ld	s1,24(sp)
    80001f24:	6942                	ld	s2,16(sp)
    80001f26:	69a2                	ld	s3,8(sp)
    80001f28:	6145                	addi	sp,sp,48
    80001f2a:	8082                	ret
    80001f2c:	8082                	ret

0000000080001f2e <_fstat_r>:
    80001f2e:	1141                	addi	sp,sp,-16
    80001f30:	e022                	sd	s0,0(sp)
    80001f32:	842a                	mv	s0,a0
    80001f34:	852e                	mv	a0,a1
    80001f36:	85b2                	mv	a1,a2
    80001f38:	a601a823          	sw	zero,-1424(gp) # 80002970 <errno>
    80001f3c:	e406                	sd	ra,8(sp)
    80001f3e:	076000ef          	jal	ra,80001fb4 <_fstat>
    80001f42:	57fd                	li	a5,-1
    80001f44:	00f51663          	bne	a0,a5,80001f50 <_fstat_r+0x22>
    80001f48:	a701a783          	lw	a5,-1424(gp) # 80002970 <errno>
    80001f4c:	c391                	beqz	a5,80001f50 <_fstat_r+0x22>
    80001f4e:	c01c                	sw	a5,0(s0)
    80001f50:	60a2                	ld	ra,8(sp)
    80001f52:	6402                	ld	s0,0(sp)
    80001f54:	0141                	addi	sp,sp,16
    80001f56:	8082                	ret

0000000080001f58 <_isatty_r>:
    80001f58:	1141                	addi	sp,sp,-16
    80001f5a:	e022                	sd	s0,0(sp)
    80001f5c:	842a                	mv	s0,a0
    80001f5e:	852e                	mv	a0,a1
    80001f60:	a601a823          	sw	zero,-1424(gp) # 80002970 <errno>
    80001f64:	e406                	sd	ra,8(sp)
    80001f66:	062000ef          	jal	ra,80001fc8 <_isatty>
    80001f6a:	57fd                	li	a5,-1
    80001f6c:	00f51663          	bne	a0,a5,80001f78 <_isatty_r+0x20>
    80001f70:	a701a783          	lw	a5,-1424(gp) # 80002970 <errno>
    80001f74:	c391                	beqz	a5,80001f78 <_isatty_r+0x20>
    80001f76:	c01c                	sw	a5,0(s0)
    80001f78:	60a2                	ld	ra,8(sp)
    80001f7a:	6402                	ld	s0,0(sp)
    80001f7c:	0141                	addi	sp,sp,16
    80001f7e:	8082                	ret

0000000080001f80 <_malloc_usable_size_r>:
    80001f80:	ff85b703          	ld	a4,-8(a1)
    80001f84:	02071693          	slli	a3,a4,0x20
    80001f88:	0007079b          	sext.w	a5,a4
    80001f8c:	ff870513          	addi	a0,a4,-8 # 1ff8 <__stack_align+0x1fe8>
    80001f90:	0006d763          	bgez	a3,80001f9e <_malloc_usable_size_r+0x1e>
    80001f94:	95aa                	add	a1,a1,a0
    80001f96:	618c                	ld	a1,0(a1)
    80001f98:	ff878513          	addi	a0,a5,-8
    80001f9c:	952e                	add	a0,a0,a1
    80001f9e:	8082                	ret

0000000080001fa0 <_close>:
    80001fa0:	1141                	addi	sp,sp,-16
    80001fa2:	e406                	sd	ra,8(sp)
    80001fa4:	15c000ef          	jal	ra,80002100 <__errno>
    80001fa8:	60a2                	ld	ra,8(sp)
    80001faa:	47a5                	li	a5,9
    80001fac:	c11c                	sw	a5,0(a0)
    80001fae:	557d                	li	a0,-1
    80001fb0:	0141                	addi	sp,sp,16
    80001fb2:	8082                	ret

0000000080001fb4 <_fstat>:
    80001fb4:	1141                	addi	sp,sp,-16
    80001fb6:	e406                	sd	ra,8(sp)
    80001fb8:	148000ef          	jal	ra,80002100 <__errno>
    80001fbc:	60a2                	ld	ra,8(sp)
    80001fbe:	47a5                	li	a5,9
    80001fc0:	c11c                	sw	a5,0(a0)
    80001fc2:	557d                	li	a0,-1
    80001fc4:	0141                	addi	sp,sp,16
    80001fc6:	8082                	ret

0000000080001fc8 <_isatty>:
    80001fc8:	357d                	addiw	a0,a0,-1
    80001fca:	00253513          	sltiu	a0,a0,2
    80001fce:	8082                	ret

0000000080001fd0 <_lseek>:
    80001fd0:	1141                	addi	sp,sp,-16
    80001fd2:	e406                	sd	ra,8(sp)
    80001fd4:	12c000ef          	jal	ra,80002100 <__errno>
    80001fd8:	60a2                	ld	ra,8(sp)
    80001fda:	47a5                	li	a5,9
    80001fdc:	c11c                	sw	a5,0(a0)
    80001fde:	557d                	li	a0,-1
    80001fe0:	0141                	addi	sp,sp,16
    80001fe2:	8082                	ret

0000000080001fe4 <_read>:
    80001fe4:	1141                	addi	sp,sp,-16
    80001fe6:	e406                	sd	ra,8(sp)
    80001fe8:	118000ef          	jal	ra,80002100 <__errno>
    80001fec:	60a2                	ld	ra,8(sp)
    80001fee:	05800793          	li	a5,88
    80001ff2:	c11c                	sw	a5,0(a0)
    80001ff4:	557d                	li	a0,-1
    80001ff6:	0141                	addi	sp,sp,16
    80001ff8:	8082                	ret

0000000080001ffa <_sbrk>:
    80001ffa:	00000717          	auipc	a4,0x0
    80001ffe:	70e70713          	addi	a4,a4,1806 # 80002708 <curbrk>
    80002002:	631c                	ld	a5,0(a4)
    80002004:	a7818693          	addi	a3,gp,-1416 # 80002978 <_end>
    80002008:	953e                	add	a0,a0,a5
    8000200a:	00d56b63          	bltu	a0,a3,80002020 <_sbrk+0x26>
    8000200e:	00021697          	auipc	a3,0x21
    80002012:	ff268693          	addi	a3,a3,-14 # 80023000 <__heap_end>
    80002016:	00d57563          	bgeu	a0,a3,80002020 <_sbrk+0x26>
    8000201a:	e308                	sd	a0,0(a4)
    8000201c:	853e                	mv	a0,a5
    8000201e:	8082                	ret
    80002020:	1141                	addi	sp,sp,-16
    80002022:	e406                	sd	ra,8(sp)
    80002024:	0dc000ef          	jal	ra,80002100 <__errno>
    80002028:	60a2                	ld	ra,8(sp)
    8000202a:	47b1                	li	a5,12
    8000202c:	c11c                	sw	a5,0(a0)
    8000202e:	57fd                	li	a5,-1
    80002030:	853e                	mv	a0,a5
    80002032:	0141                	addi	sp,sp,16
    80002034:	8082                	ret

0000000080002036 <_write>:
    80002036:	04000693          	li	a3,64
    8000203a:	a0b9                	j	80002088 <htif_syscall>

000000008000203c <handle_trap>:
    8000203c:	1141                	addi	sp,sp,-16
    8000203e:	02159513          	slli	a0,a1,0x21
    80002042:	e406                	sd	ra,8(sp)
    80002044:	9105                	srli	a0,a0,0x21
    80002046:	0005d463          	bgez	a1,8000204e <handle_trap+0x12>
    8000204a:	40a0053b          	negw	a0,a0
    8000204e:	086000ef          	jal	ra,800020d4 <_exit>

0000000080002052 <__init_tls>:
    80002052:	1141                	addi	sp,sp,-16
    80002054:	00000613          	li	a2,0
    80002058:	00000597          	auipc	a1,0x0
    8000205c:	2c058593          	addi	a1,a1,704 # 80002318 <__tbss_end>
    80002060:	8512                	mv	a0,tp
    80002062:	e022                	sd	s0,0(sp)
    80002064:	e406                	sd	ra,8(sp)
    80002066:	8412                	mv	s0,tp
    80002068:	c55ff0ef          	jal	ra,80001cbc <memcpy>
    8000206c:	00000513          	li	a0,0
    80002070:	9522                	add	a0,a0,s0
    80002072:	6402                	ld	s0,0(sp)
    80002074:	60a2                	ld	ra,8(sp)
    80002076:	00000613          	li	a2,0
    8000207a:	4581                	li	a1,0
    8000207c:	0141                	addi	sp,sp,16
    8000207e:	b15fe06f          	j	80000b92 <memset>

0000000080002082 <__main>:
    80002082:	10500073          	wfi
    80002086:	bff5                	j	80002082 <__main>

0000000080002088 <htif_syscall>:
    80002088:	7139                	addi	sp,sp,-64
    8000208a:	e036                	sd	a3,0(sp)
    8000208c:	e42a                	sd	a0,8(sp)
    8000208e:	e82e                	sd	a1,16(sp)
    80002090:	57fd                	li	a5,-1
    80002092:	ec32                	sd	a2,24(sp)
    80002094:	83c1                	srli	a5,a5,0x10
    80002096:	860a                	mv	a2,sp
    80002098:	8e7d                	and	a2,a2,a5
    8000209a:	85018713          	addi	a4,gp,-1968 # 80002750 <htif_lock>
    8000209e:	56fd                	li	a3,-1
    800020a0:	431c                	lw	a5,0(a4)
    800020a2:	2781                	sext.w	a5,a5
    800020a4:	fff5                	bnez	a5,800020a0 <htif_syscall+0x18>
    800020a6:	0cd727af          	amoswap.w.aq	a5,a3,(a4)
    800020aa:	fbfd                	bnez	a5,800020a0 <htif_syscall+0x18>
    800020ac:	0110000f          	fence	w,w
    800020b0:	00000697          	auipc	a3,0x0
    800020b4:	59068693          	addi	a3,a3,1424 # 80002640 <tohost>
    800020b8:	e290                	sd	a2,0(a3)
    800020ba:	669c                	ld	a5,8(a3)
    800020bc:	dffd                	beqz	a5,800020ba <htif_syscall+0x32>
    800020be:	00000797          	auipc	a5,0x0
    800020c2:	5807b523          	sd	zero,1418(a5) # 80002648 <fromhost>
    800020c6:	0a07202f          	amoswap.w.rl	zero,zero,(a4)
    800020ca:	0220000f          	fence	r,r
    800020ce:	6502                	ld	a0,0(sp)
    800020d0:	6121                	addi	sp,sp,64
    800020d2:	8082                	ret

00000000800020d4 <_exit>:
    800020d4:	0015179b          	slliw	a5,a0,0x1
    800020d8:	0017e793          	ori	a5,a5,1
    800020dc:	2781                	sext.w	a5,a5
    800020de:	07c2                	slli	a5,a5,0x10
    800020e0:	83c1                	srli	a5,a5,0x10
    800020e2:	00000717          	auipc	a4,0x0
    800020e6:	55e70713          	addi	a4,a4,1374 # 80002640 <tohost>
    800020ea:	00000697          	auipc	a3,0x0
    800020ee:	5406bf23          	sd	zero,1374(a3) # 80002648 <fromhost>
    800020f2:	e31c                	sd	a5,0(a4)
    800020f4:	bfdd                	j	800020ea <_exit+0x16>

00000000800020f6 <atexit>:
    800020f6:	85aa                	mv	a1,a0
    800020f8:	4681                	li	a3,0
    800020fa:	4601                	li	a2,0
    800020fc:	4501                	li	a0,0
    800020fe:	a8e9                	j	800021d8 <__register_exitproc>

0000000080002100 <__errno>:
    80002100:	00000517          	auipc	a0,0x0
    80002104:	60053503          	ld	a0,1536(a0) # 80002700 <_impure_ptr>
    80002108:	8082                	ret

000000008000210a <exit>:
    8000210a:	1141                	addi	sp,sp,-16
    8000210c:	e022                	sd	s0,0(sp)
    8000210e:	e406                	sd	ra,8(sp)
    80002110:	00000797          	auipc	a5,0x0
    80002114:	14278793          	addi	a5,a5,322 # 80002252 <__call_exitprocs>
    80002118:	842a                	mv	s0,a0
    8000211a:	c781                	beqz	a5,80002122 <exit+0x18>
    8000211c:	4581                	li	a1,0
    8000211e:	134000ef          	jal	ra,80002252 <__call_exitprocs>
    80002122:	00000517          	auipc	a0,0x0
    80002126:	4b653503          	ld	a0,1206(a0) # 800025d8 <_global_impure_ptr>
    8000212a:	653c                	ld	a5,72(a0)
    8000212c:	c391                	beqz	a5,80002130 <exit+0x26>
    8000212e:	9782                	jalr	a5
    80002130:	8522                	mv	a0,s0
    80002132:	fa3ff0ef          	jal	ra,800020d4 <_exit>

0000000080002136 <__libc_fini_array>:
    80002136:	1101                	addi	sp,sp,-32
    80002138:	00000797          	auipc	a5,0x0
    8000213c:	4d078793          	addi	a5,a5,1232 # 80002608 <__fini_array_end>
    80002140:	e822                	sd	s0,16(sp)
    80002142:	00000417          	auipc	s0,0x0
    80002146:	4c640413          	addi	s0,s0,1222 # 80002608 <__fini_array_end>
    8000214a:	8c1d                	sub	s0,s0,a5
    8000214c:	e426                	sd	s1,8(sp)
    8000214e:	ec06                	sd	ra,24(sp)
    80002150:	840d                	srai	s0,s0,0x3
    80002152:	84be                	mv	s1,a5
    80002154:	e411                	bnez	s0,80002160 <__libc_fini_array+0x2a>
    80002156:	60e2                	ld	ra,24(sp)
    80002158:	6442                	ld	s0,16(sp)
    8000215a:	64a2                	ld	s1,8(sp)
    8000215c:	6105                	addi	sp,sp,32
    8000215e:	8082                	ret
    80002160:	147d                	addi	s0,s0,-1
    80002162:	00341793          	slli	a5,s0,0x3
    80002166:	97a6                	add	a5,a5,s1
    80002168:	639c                	ld	a5,0(a5)
    8000216a:	9782                	jalr	a5
    8000216c:	b7e5                	j	80002154 <__libc_fini_array+0x1e>

000000008000216e <__libc_init_array>:
    8000216e:	1101                	addi	sp,sp,-32
    80002170:	00000797          	auipc	a5,0x0
    80002174:	49878793          	addi	a5,a5,1176 # 80002608 <__fini_array_end>
    80002178:	e822                	sd	s0,16(sp)
    8000217a:	00000417          	auipc	s0,0x0
    8000217e:	48e40413          	addi	s0,s0,1166 # 80002608 <__fini_array_end>
    80002182:	8c1d                	sub	s0,s0,a5
    80002184:	e426                	sd	s1,8(sp)
    80002186:	e04a                	sd	s2,0(sp)
    80002188:	ec06                	sd	ra,24(sp)
    8000218a:	840d                	srai	s0,s0,0x3
    8000218c:	4481                	li	s1,0
    8000218e:	893e                	mv	s2,a5
    80002190:	02849663          	bne	s1,s0,800021bc <__libc_init_array+0x4e>
    80002194:	00000797          	auipc	a5,0x0
    80002198:	47478793          	addi	a5,a5,1140 # 80002608 <__fini_array_end>
    8000219c:	00000417          	auipc	s0,0x0
    800021a0:	46c40413          	addi	s0,s0,1132 # 80002608 <__fini_array_end>
    800021a4:	8c1d                	sub	s0,s0,a5
    800021a6:	840d                	srai	s0,s0,0x3
    800021a8:	4481                	li	s1,0
    800021aa:	893e                	mv	s2,a5
    800021ac:	00849f63          	bne	s1,s0,800021ca <__libc_init_array+0x5c>
    800021b0:	60e2                	ld	ra,24(sp)
    800021b2:	6442                	ld	s0,16(sp)
    800021b4:	64a2                	ld	s1,8(sp)
    800021b6:	6902                	ld	s2,0(sp)
    800021b8:	6105                	addi	sp,sp,32
    800021ba:	8082                	ret
    800021bc:	00349793          	slli	a5,s1,0x3
    800021c0:	97ca                	add	a5,a5,s2
    800021c2:	639c                	ld	a5,0(a5)
    800021c4:	0485                	addi	s1,s1,1
    800021c6:	9782                	jalr	a5
    800021c8:	b7e1                	j	80002190 <__libc_init_array+0x22>
    800021ca:	00349793          	slli	a5,s1,0x3
    800021ce:	97ca                	add	a5,a5,s2
    800021d0:	639c                	ld	a5,0(a5)
    800021d2:	0485                	addi	s1,s1,1
    800021d4:	9782                	jalr	a5
    800021d6:	bfd9                	j	800021ac <__libc_init_array+0x3e>

00000000800021d8 <__register_exitproc>:
    800021d8:	88aa                	mv	a7,a0
    800021da:	86018513          	addi	a0,gp,-1952 # 80002760 <_global_atexit>
    800021de:	611c                	ld	a5,0(a0)
    800021e0:	ef91                	bnez	a5,800021fc <__register_exitproc+0x24>
    800021e2:	95818713          	addi	a4,gp,-1704 # 80002858 <_global_atexit0>
    800021e6:	e118                	sd	a4,0(a0)
    800021e8:	00000537          	lui	a0,0x0
    800021ec:	00050513          	mv	a0,a0
    800021f0:	87ba                	mv	a5,a4
    800021f2:	c509                	beqz	a0,800021fc <__register_exitproc+0x24>
    800021f4:	611c                	ld	a5,0(a0)
    800021f6:	10f73823          	sd	a5,272(a4)
    800021fa:	87ba                	mv	a5,a4
    800021fc:	4798                	lw	a4,8(a5)
    800021fe:	487d                	li	a6,31
    80002200:	557d                	li	a0,-1
    80002202:	04e84763          	blt	a6,a4,80002250 <__register_exitproc+0x78>
    80002206:	02088d63          	beqz	a7,80002240 <__register_exitproc+0x68>
    8000220a:	1107b803          	ld	a6,272(a5)
    8000220e:	04080163          	beqz	a6,80002250 <__register_exitproc+0x78>
    80002212:	00371513          	slli	a0,a4,0x3
    80002216:	9542                	add	a0,a0,a6
    80002218:	e110                	sd	a2,0(a0)
    8000221a:	20082303          	lw	t1,512(a6)
    8000221e:	4605                	li	a2,1
    80002220:	00e6163b          	sllw	a2,a2,a4
    80002224:	00c36333          	or	t1,t1,a2
    80002228:	20682023          	sw	t1,512(a6)
    8000222c:	10d53023          	sd	a3,256(a0) # 100 <__stack_align+0xf0>
    80002230:	4689                	li	a3,2
    80002232:	00d89763          	bne	a7,a3,80002240 <__register_exitproc+0x68>
    80002236:	20482683          	lw	a3,516(a6)
    8000223a:	8e55                	or	a2,a2,a3
    8000223c:	20c82223          	sw	a2,516(a6)
    80002240:	0017069b          	addiw	a3,a4,1
    80002244:	0709                	addi	a4,a4,2
    80002246:	070e                	slli	a4,a4,0x3
    80002248:	c794                	sw	a3,8(a5)
    8000224a:	97ba                	add	a5,a5,a4
    8000224c:	e38c                	sd	a1,0(a5)
    8000224e:	4501                	li	a0,0
    80002250:	8082                	ret

0000000080002252 <__call_exitprocs>:
    80002252:	715d                	addi	sp,sp,-80
    80002254:	f44e                	sd	s3,40(sp)
    80002256:	f052                	sd	s4,32(sp)
    80002258:	ec56                	sd	s5,24(sp)
    8000225a:	e85a                	sd	s6,16(sp)
    8000225c:	e486                	sd	ra,72(sp)
    8000225e:	e0a2                	sd	s0,64(sp)
    80002260:	fc26                	sd	s1,56(sp)
    80002262:	f84a                	sd	s2,48(sp)
    80002264:	e45e                	sd	s7,8(sp)
    80002266:	8a2a                	mv	s4,a0
    80002268:	89ae                	mv	s3,a1
    8000226a:	86018a93          	addi	s5,gp,-1952 # 80002760 <_global_atexit>
    8000226e:	4b05                	li	s6,1
    80002270:	000ab403          	ld	s0,0(s5)
    80002274:	c819                	beqz	s0,8000228a <__call_exitprocs+0x38>
    80002276:	4404                	lw	s1,8(s0)
    80002278:	11043903          	ld	s2,272(s0)
    8000227c:	34fd                	addiw	s1,s1,-1
    8000227e:	02049713          	slli	a4,s1,0x20
    80002282:	0004879b          	sext.w	a5,s1
    80002286:	00075d63          	bgez	a4,800022a0 <__call_exitprocs+0x4e>
    8000228a:	60a6                	ld	ra,72(sp)
    8000228c:	6406                	ld	s0,64(sp)
    8000228e:	74e2                	ld	s1,56(sp)
    80002290:	7942                	ld	s2,48(sp)
    80002292:	79a2                	ld	s3,40(sp)
    80002294:	7a02                	ld	s4,32(sp)
    80002296:	6ae2                	ld	s5,24(sp)
    80002298:	6b42                	ld	s6,16(sp)
    8000229a:	6ba2                	ld	s7,8(sp)
    8000229c:	6161                	addi	sp,sp,80
    8000229e:	8082                	ret
    800022a0:	00098d63          	beqz	s3,800022ba <__call_exitprocs+0x68>
    800022a4:	00091463          	bnez	s2,800022ac <__call_exitprocs+0x5a>
    800022a8:	14fd                	addi	s1,s1,-1
    800022aa:	bfd1                	j	8000227e <__call_exitprocs+0x2c>
    800022ac:	00349713          	slli	a4,s1,0x3
    800022b0:	974a                	add	a4,a4,s2
    800022b2:	10073703          	ld	a4,256(a4)
    800022b6:	ff3719e3          	bne	a4,s3,800022a8 <__call_exitprocs+0x56>
    800022ba:	4418                	lw	a4,8(s0)
    800022bc:	00349613          	slli	a2,s1,0x3
    800022c0:	00c405b3          	add	a1,s0,a2
    800022c4:	377d                	addiw	a4,a4,-1
    800022c6:	6994                	ld	a3,16(a1)
    800022c8:	02f71863          	bne	a4,a5,800022f8 <__call_exitprocs+0xa6>
    800022cc:	c41c                	sw	a5,8(s0)
    800022ce:	dee9                	beqz	a3,800022a8 <__call_exitprocs+0x56>
    800022d0:	00842b83          	lw	s7,8(s0)
    800022d4:	00090963          	beqz	s2,800022e6 <__call_exitprocs+0x94>
    800022d8:	20092703          	lw	a4,512(s2)
    800022dc:	00fb17bb          	sllw	a5,s6,a5
    800022e0:	8f7d                	and	a4,a4,a5
    800022e2:	2701                	sext.w	a4,a4
    800022e4:	ef09                	bnez	a4,800022fe <__call_exitprocs+0xac>
    800022e6:	9682                	jalr	a3
    800022e8:	4418                	lw	a4,8(s0)
    800022ea:	000ab783          	ld	a5,0(s5)
    800022ee:	f97711e3          	bne	a4,s7,80002270 <__call_exitprocs+0x1e>
    800022f2:	faf40be3          	beq	s0,a5,800022a8 <__call_exitprocs+0x56>
    800022f6:	bfad                	j	80002270 <__call_exitprocs+0x1e>
    800022f8:	0005b823          	sd	zero,16(a1)
    800022fc:	bfc9                	j	800022ce <__call_exitprocs+0x7c>
    800022fe:	20492703          	lw	a4,516(s2)
    80002302:	964a                	add	a2,a2,s2
    80002304:	620c                	ld	a1,0(a2)
    80002306:	8ff9                	and	a5,a5,a4
    80002308:	2781                	sext.w	a5,a5
    8000230a:	e781                	bnez	a5,80002312 <__call_exitprocs+0xc0>
    8000230c:	8552                	mv	a0,s4
    8000230e:	9682                	jalr	a3
    80002310:	bfe1                	j	800022e8 <__call_exitprocs+0x96>
    80002312:	852e                	mv	a0,a1
    80002314:	9682                	jalr	a3
    80002316:	bfc9                	j	800022e8 <__call_exitprocs+0x96>

Disassembly of section .htif:

0000000080002640 <tohost>:
	...

0000000080002648 <fromhost>:
	...
